(lp1
(dp2
VendIndex
p3
I31
sVanimacy
p4
VANIMATE
p5
sS'title'
p6
I00
sVtext
p7
Vhis
p8
sVisRepresentativeMention
p9
I00
sVnumber
p10
VSINGULAR
p11
sS'name_type'
p12
(lp13
sS'appositive'
p14
NsVstartIndex
p15
I30
sVsentNum
p16
I5
sVgender
p17
VMALE
p18
sVposition
p19
(lp20
I5
aI12
asS'syntax'
p21
S'subj-det'
p22
sVtype
p23
VPRONOMINAL
p24
sVid
p25
I43
sa(dp26
VendIndex
p27
I38
sVanimacy
p28
VANIMATE
p29
sg6
I00
sVtext
p30
Vhis
p31
sVisRepresentativeMention
p32
I00
sVnumber
p33
VSINGULAR
p34
sg12
(lp35
sg14
NsVstartIndex
p36
I37
sVsentNum
p37
I5
sVgender
p38
VMALE
p39
sVposition
p40
(lp41
I5
aI14
asg21
g22
sVtype
p42
VPRONOMINAL
p43
sVid
p44
I45
sa(dp45
VendIndex
p46
I61
sVanimacy
p47
VANIMATE
p48
sg6
I00
sVtext
p49
Vhis
p50
sVisRepresentativeMention
p51
I00
sVnumber
p52
VSINGULAR
p53
sg12
(lp54
sg14
NsVstartIndex
p55
I60
sVsentNum
p56
I16
sVgender
p57
VMALE
p58
sVposition
p59
(lp60
I16
aI24
asg21
g22
sVtype
p61
VPRONOMINAL
p62
sVid
p63
I149
sa(dp64
VendIndex
p65
I24
sVanimacy
p66
VANIMATE
p67
sg6
I00
sVtext
p68
VAlito
p69
sVisRepresentativeMention
p70
I01
sVnumber
p71
VSINGULAR
p72
sg12
(lp73
sg14
NsVstartIndex
p74
I23
sVsentNum
p75
I3
sVgender
p76
VMALE
p77
sVposition
p78
(lp79
I3
aI6
asg21
S'np-subj'
p80
sVtype
p81
VPROPER
p82
sVid
p83
I22
sa(dp84
VendIndex
p85
I27
sVanimacy
p86
VANIMATE
p87
sg6
I00
sVtext
p88
VAlito
p89
sVisRepresentativeMention
p90
I00
sVnumber
p91
VSINGULAR
p92
sg12
(lp93
sg14
NsVstartIndex
p94
I26
sVsentNum
p95
I5
sVgender
p96
VMALE
p97
sVposition
p98
(lp99
I5
aI10
asg21
g80
sVtype
p100
VPROPER
p101
sVid
p102
I32
sa(dp103
VendIndex
p104
I67
sVanimacy
p105
VANIMATE
p106
sg6
I00
sVtext
p107
VAlito's
p108
sVisRepresentativeMention
p109
I00
sVnumber
p110
VSINGULAR
p111
sg12
(lp112
sg14
NsVstartIndex
p113
I65
sVsentNum
p114
I5
sVgender
p115
VMALE
p116
sVposition
p117
(lp118
I5
aI21
asg21
g22
sVtype
p119
VPROPER
p120
sVid
p121
I33
sa(dp122
VendIndex
p123
I26
sVanimacy
p124
VANIMATE
p125
sg6
I00
sVtext
p126
VAlito
p127
sVisRepresentativeMention
p128
I00
sVnumber
p129
VSINGULAR
p130
sg12
(lp131
sg14
NsVstartIndex
p132
I25
sVsentNum
p133
I6
sVgender
p134
VMALE
p135
sVposition
p136
(lp137
I6
aI6
asg21
g80
sVtype
p138
VPROPER
p139
sVid
p140
I53
sa(dp141
VendIndex
p142
I18
sVanimacy
p143
VANIMATE
p144
sg6
I00
sVtext
p145
VSamuel Anthony Alito  as exceedingly well qualified and well within the mainstream of conservative thought
p146
sVisRepresentativeMention
p147
I01
sVnumber
p148
VSINGULAR
p149
sg12
(lp150
sg14
NsVstartIndex
p151
I3
sVsentNum
p152
I15
sVgender
p153
VMALE
p154
sVposition
p155
(lp156
I15
aI2
asg21
S'np-obj'
p157
sVtype
p158
VPROPER
p159
sVid
p160
I124
sa(dp161
VendIndex
p162
I8
sVanimacy
p163
VANIMATE
p164
sg6
I00
sVtext
p165
VSAmuel's
p166
sVisRepresentativeMention
p167
I01
sVnumber
p168
VSINGULAR
p169
sg12
(lp170
sg14
NsVstartIndex
p171
I6
sVsentNum
p172
I14
sVgender
p173
VMALE
p174
sVposition
p175
(lp176
I14
aI4
asg21
g22
sVtype
p177
VPROPER
p178
sVid
p179
I118
sa(dp180
VendIndex
p181
I17
sVanimacy
p182
VANIMATE
p183
sg6
I00
sVtext
p184
VSamuel Anthony Alito
p185
sVisRepresentativeMention
p186
I00
sVnumber
p187
VSINGULAR
p188
sg12
(lp189
sg14
NsVstartIndex
p190
I14
sVsentNum
p191
I1
sVgender
p192
VMALE
p193
sVposition
p194
(lp195
I1
aI6
asg21
g80
sVtype
p196
VPROPER
p197
sVid
p198
I2
sa(dp199
VendIndex
p200
I17
sVanimacy
p201
VANIMATE
p202
sg6
I00
sVtext
p203
VSamuel Anthony Alito
p204
sVisRepresentativeMention
p205
I00
sVnumber
p206
VSINGULAR
p207
sg12
(lp208
sg14
NsVstartIndex
p209
I14
sVsentNum
p210
I2
sVgender
p211
VMALE
p212
sVposition
p213
(lp214
I2
aI5
asg21
g80
sVtype
p215
VPROPER
p216
sVid
p217
I10
sa(dp218
VendIndex
p219
I14
sVanimacy
p220
VANIMATE
p221
sg6
I00
sVtext
p222
VSamuel Anthony Alito
p223
sVisRepresentativeMention
p224
I00
sVnumber
p225
VSINGULAR
p226
sg12
(lp227
sg14
NsVstartIndex
p228
I11
sVsentNum
p229
I11
sVgender
p230
VMALE
p231
sVposition
p232
(lp233
I11
aI5
asg21
g22
sVtype
p234
VPROPER
p235
sVid
p236
I67
sa(dp237
VendIndex
p238
I15
sVanimacy
p239
VANIMATE
p240
sg6
I00
sVtext
p241
VAlito
p242
sVisRepresentativeMention
p243
I00
sVnumber
p244
VSINGULAR
p245
sg12
(lp246
sg14
NsVstartIndex
p247
I14
sVsentNum
p248
I16
sVgender
p249
VMALE
p250
sVposition
p251
(lp252
I16
aI5
asg21
g22
sVtype
p253
VPROPER
p254
sVid
p255
I127
sa(dp256
VendIndex
p257
I45
sVanimacy
p258
VANIMATE
p259
sg6
I00
sVtext
p260
VSamuel Anthony Alito
p261
sVisRepresentativeMention
p262
I00
sVnumber
p263
VSINGULAR
p264
sg12
(lp265
sg14
NsVstartIndex
p266
I42
sVsentNum
p267
I16
sVgender
p268
VMALE
p269
sVposition
p270
(lp271
I16
aI15
asg21
g22
sVtype
p272
VPROPER
p273
sVid
p274
I133
sa.