(lp1
(dp2
VendIndex
p3
I31
sVanimacy
p4
VANIMATE
p5
sS'title'
p6
I00
sVtext
p7
Vhis
p8
sVisRepresentativeMention
p9
I00
sVnumber
p10
VSINGULAR
p11
sS'name_type'
p12
(lp13
sS'appositive'
p14
NsVstartIndex
p15
I30
sVsentNum
p16
I5
sVgender
p17
VMALE
p18
sVposition
p19
(lp20
I5
aI12
asS'syntax'
p21
S'subj-det'
p22
sVtype
p23
VPRONOMINAL
p24
sVid
p25
I47
sa(dp26
VendIndex
p27
I38
sVanimacy
p28
VANIMATE
p29
sg6
I00
sVtext
p30
Vhis
p31
sVisRepresentativeMention
p32
I00
sVnumber
p33
VSINGULAR
p34
sg12
(lp35
sg14
NsVstartIndex
p36
I37
sVsentNum
p37
I5
sVgender
p38
VMALE
p39
sVposition
p40
(lp41
I5
aI14
asg21
g22
sVtype
p42
VPRONOMINAL
p43
sVid
p44
I49
sa(dp45
VendIndex
p46
I57
sVanimacy
p47
VANIMATE
p48
sg6
I00
sVtext
p49
Vhis
p50
sVisRepresentativeMention
p51
I00
sVnumber
p52
VSINGULAR
p53
sg12
(lp54
sg14
NsVstartIndex
p55
I56
sVsentNum
p56
I16
sVgender
p57
VMALE
p58
sVposition
p59
(lp60
I16
aI21
asg21
g22
sVtype
p61
VPRONOMINAL
p62
sVid
p63
I152
sa(dp64
VendIndex
p65
I17
sVanimacy
p66
VANIMATE
p67
sg6
I00
sVtext
p68
VSamuel Anthony Alito
p69
sVisRepresentativeMention
p70
I01
sVnumber
p71
VSINGULAR
p72
sg12
(lp73
sg14
NsVstartIndex
p74
I14
sVsentNum
p75
I1
sVgender
p76
VMALE
p77
sVposition
p78
(lp79
I1
aI7
asg21
S'np-subj'
p80
sVtype
p81
VPROPER
p82
sVid
p83
I3
sa(dp84
VendIndex
p85
I24
sVanimacy
p86
VANIMATE
p87
sg6
I00
sVtext
p88
VAlito
p89
sVisRepresentativeMention
p90
I00
sVnumber
p91
VSINGULAR
p92
sg12
(lp93
sg14
NsVstartIndex
p94
I23
sVsentNum
p95
I3
sVgender
p96
VMALE
p97
sVposition
p98
(lp99
I3
aI6
asg21
g80
sVtype
p100
VPROPER
p101
sVid
p102
I26
sa(dp103
VendIndex
p104
I27
sVanimacy
p105
VANIMATE
p106
sg6
I00
sVtext
p107
VAlito
p108
sVisRepresentativeMention
p109
I00
sVnumber
p110
VSINGULAR
p111
sg12
(lp112
sg14
NsVstartIndex
p113
I26
sVsentNum
p114
I5
sVgender
p115
VMALE
p116
sVposition
p117
(lp118
I5
aI10
asg21
g80
sVtype
p119
VPROPER
p120
sVid
p121
I36
sa(dp122
VendIndex
p123
I67
sVanimacy
p124
VANIMATE
p125
sg6
I00
sVtext
p126
VAlito's
p127
sVisRepresentativeMention
p128
I00
sVnumber
p129
VSINGULAR
p130
sg12
(lp131
sg14
NsVstartIndex
p132
I65
sVsentNum
p133
I5
sVgender
p134
VMALE
p135
sVposition
p136
(lp137
I5
aI21
asg21
g22
sVtype
p138
VPROPER
p139
sVid
p140
I37
sa(dp141
VendIndex
p142
I26
sVanimacy
p143
VANIMATE
p144
sg6
I00
sVtext
p145
VAlito
p146
sVisRepresentativeMention
p147
I00
sVnumber
p148
VSINGULAR
p149
sg12
(lp150
sg14
NsVstartIndex
p151
I25
sVsentNum
p152
I6
sVgender
p153
VMALE
p154
sVposition
p155
(lp156
I6
aI6
asg21
g80
sVtype
p157
VPROPER
p158
sVid
p159
I57
sa(dp160
VendIndex
p161
I13
sVanimacy
p162
VANIMATE
p163
sg6
I00
sVtext
p164
VAlito's
p165
sVisRepresentativeMention
p166
I00
sVnumber
p167
VSINGULAR
p168
sg12
(lp169
sg14
NsVstartIndex
p170
I11
sVsentNum
p171
I11
sVgender
p172
VMALE
p173
sVposition
p174
(lp175
I11
aI5
asg21
g22
sVtype
p176
VPROPER
p177
sVid
p178
I71
sa(dp179
VendIndex
p180
I9
sVanimacy
p181
VANIMATE
p182
sg6
I00
sVtext
p183
VAlito
p184
sVisRepresentativeMention
p185
I00
sVnumber
p186
VSINGULAR
p187
sg12
(lp188
sg14
NsVstartIndex
p189
I8
sVsentNum
p190
I13
sVgender
p191
VMALE
p192
sVposition
p193
(lp194
I13
aI3
asg21
g22
sVtype
p195
VPROPER
p196
sVid
p197
I99
sa(dp198
VendIndex
p199
I29
sVanimacy
p200
VANIMATE
p201
sg6
I00
sVtext
p202
VAlito's
p203
sVisRepresentativeMention
p204
I00
sVnumber
p205
VSINGULAR
p206
sg12
(lp207
sg14
NsVstartIndex
p208
I27
sVsentNum
p209
I13
sVgender
p210
VMALE
p211
sVposition
p212
(lp213
I13
aI14
asg21
g22
sVtype
p214
VPROPER
p215
sVid
p216
I102
sa(dp217
VendIndex
p218
I15
sVanimacy
p219
VANIMATE
p220
sg6
I00
sVtext
p221
VAlito
p222
sVisRepresentativeMention
p223
I00
sVnumber
p224
VSINGULAR
p225
sg12
(lp226
sg14
NsVstartIndex
p227
I14
sVsentNum
p228
I16
sVgender
p229
VMALE
p230
sVposition
p231
(lp232
I16
aI5
asg21
g22
sVtype
p233
VPROPER
p234
sVid
p235
I133
sa(dp236
VendIndex
p237
I43
sVanimacy
p238
VANIMATE
p239
sg6
I00
sVtext
p240
VAlito's
p241
sVisRepresentativeMention
p242
I00
sVnumber
p243
VSINGULAR
p244
sg12
(lp245
sg14
NsVstartIndex
p246
I41
sVsentNum
p247
I16
sVgender
p248
VMALE
p249
sVposition
p250
(lp251
I16
aI17
asg21
g22
sVtype
p252
VPROPER
p253
sVid
p254
I138
sa.