(lp1
(dp2
VendIndex
p3
I10
sVanimacy
p4
VINANIMATE
p5
sS'title'
p6
I00
sVtext
p7
Vit
p8
sVisRepresentativeMention
p9
I00
sVnumber
p10
VSINGULAR
p11
sS'name_type'
p12
(lp13
sS'appositive'
p14
NsVstartIndex
p15
I9
sVsentNum
p16
I2
sVgender
p17
VNEUTRAL
p18
sVposition
p19
(lp20
I2
aI3
asS'syntax'
p21
S'np-subj'
p22
sVtype
p23
VPRONOMINAL
p24
sVid
p25
I24
sa(dp26
VendIndex
p27
I15
sVanimacy
p28
VANIMATE
p29
sg6
I00
sVtext
p30
Vhim
p31
sVisRepresentativeMention
p32
I00
sVnumber
p33
VSINGULAR
p34
sg12
(lp35
sg14
NsVstartIndex
p36
I14
sVsentNum
p37
I1
sVgender
p38
VMALE
p39
sVposition
p40
(lp41
I1
aI7
asg21
S'np-obj'
p42
sVtype
p43
VPRONOMINAL
p44
sVid
p45
I8
sa(dp46
VendIndex
p47
I29
sVanimacy
p48
VANIMATE
p49
sg6
I00
sVtext
p50
Vhe
p51
sVisRepresentativeMention
p52
I00
sVnumber
p53
VSINGULAR
p54
sg12
(lp55
sg14
NsVstartIndex
p56
I28
sVsentNum
p57
I1
sVgender
p58
VMALE
p59
sVposition
p60
(lp61
I1
aI12
asg21
g22
sVtype
p62
VPRONOMINAL
p63
sVid
p64
I12
sa(dp65
VendIndex
p66
I25
sVanimacy
p67
VANIMATE
p68
sg6
I01
sVtext
p69
VJudge Alito
p70
sVisRepresentativeMention
p71
I01
sVnumber
p72
VSINGULAR
p73
sg12
(lp74
sg14
NsVstartIndex
p75
I23
sVsentNum
p76
I2
sVgender
p77
VMALE
p78
sVposition
p79
(lp80
I2
aI6
asg21
g22
sVtype
p81
VPROPER
p82
sVid
p83
I27
sa(dp84
VendIndex
p85
I4
sVanimacy
p86
VANIMATE
p87
sg6
I00
sVtext
p88
VAlito
p89
sVisRepresentativeMention
p90
I00
sVnumber
p91
VSINGULAR
p92
sg12
(lp93
sg14
NsVstartIndex
p94
I3
sVsentNum
p95
I14
sVgender
p96
VMALE
p97
sVposition
p98
(lp99
I14
aI2
asg21
g42
sVtype
p100
VPROPER
p101
sVid
p102
I119
sa(dp103
VendIndex
p104
I15
sVanimacy
p105
VANIMATE
p106
sg6
I00
sVtext
p107
VAlito
p108
sVisRepresentativeMention
p109
I00
sVnumber
p110
VSINGULAR
p111
sg12
(lp112
sg14
NsVstartIndex
p113
I14
sVsentNum
p114
I15
sVgender
p115
VMALE
p116
sVposition
p117
(lp118
I15
aI5
asg21
S'subj-det'
p119
sVtype
p120
VPROPER
p121
sVid
p122
I123
sa(dp123
VendIndex
p124
I8
sVanimacy
p125
VANIMATE
p126
sg6
I00
sVtext
p127
VAlito's
p128
sVisRepresentativeMention
p129
I01
sVnumber
p130
VSINGULAR
p131
sg12
(lp132
sg14
NsVstartIndex
p133
I6
sVsentNum
p134
I1
sVgender
p135
VMALE
p136
sVposition
p137
(lp138
I1
aI4
asg21
g119
sVtype
p139
VPROPER
p140
sVid
p141
I1
sa(dp142
VendIndex
p143
I26
sVanimacy
p144
VANIMATE
p145
sg6
I00
sVtext
p146
VAlito
p147
sVisRepresentativeMention
p148
I00
sVnumber
p149
VSINGULAR
p150
sg12
(lp151
sg14
NsVstartIndex
p152
I25
sVsentNum
p153
I5
sVgender
p154
VMALE
p155
sVposition
p156
(lp157
I5
aI6
asg21
g22
sVtype
p158
VPROPER
p159
sVid
p160
I53
sa.