(lp1
(dp2
VendIndex
p3
I14
sVanimacy
p4
VANIMATE
p5
sS'title'
p6
I00
sVtext
p7
Vhim
p8
sVisRepresentativeMention
p9
I00
sVnumber
p10
VSINGULAR
p11
sS'name_type'
p12
(lp13
sS'appositive'
p14
NsVstartIndex
p15
I13
sVsentNum
p16
I1
sVgender
p17
VMALE
p18
sVposition
p19
(lp20
I1
aI7
asS'syntax'
p21
S'np-obj'
p22
sVtype
p23
VPRONOMINAL
p24
sVid
p25
I9
sa(dp26
VendIndex
p27
I31
sVanimacy
p28
VANIMATE
p29
sg6
I00
sVtext
p30
Vhis
p31
sVisRepresentativeMention
p32
I00
sVnumber
p33
VSINGULAR
p34
sg12
(lp35
sg14
NsVstartIndex
p36
I30
sVsentNum
p37
I4
sVgender
p38
VMALE
p39
sVposition
p40
(lp41
I4
aI12
asg21
S'subj-det'
p42
sVtype
p43
VPRONOMINAL
p44
sVid
p45
I42
sa(dp46
VendIndex
p47
I38
sVanimacy
p48
VANIMATE
p49
sg6
I00
sVtext
p50
Vhis
p51
sVisRepresentativeMention
p52
I00
sVnumber
p53
VSINGULAR
p54
sg12
(lp55
sg14
NsVstartIndex
p56
I37
sVsentNum
p57
I4
sVgender
p58
VMALE
p59
sVposition
p60
(lp61
I4
aI14
asg21
g42
sVtype
p62
VPRONOMINAL
p63
sVid
p64
I44
sa(dp65
VendIndex
p66
I66
sVanimacy
p67
VANIMATE
p68
sg6
I00
sVtext
p69
Vhis
p70
sVisRepresentativeMention
p71
I00
sVnumber
p72
VSINGULAR
p73
sg12
(lp74
sg14
NsVstartIndex
p75
I65
sVsentNum
p76
I4
sVgender
p77
VMALE
p78
sVposition
p79
(lp80
I4
aI21
asg21
g42
sVtype
p81
VPRONOMINAL
p82
sVid
p83
I51
sa(dp84
VendIndex
p85
I30
sVanimacy
p86
VANIMATE
p87
sg6
I00
sVtext
p88
Vhis
p89
sVisRepresentativeMention
p90
I00
sVnumber
p91
VSINGULAR
p92
sg12
(lp93
sg14
NsVstartIndex
p94
I29
sVsentNum
p95
I1
sVgender
p96
VMALE
p97
sVposition
p98
(lp99
I1
aI14
asg21
g42
sVtype
p100
VPRONOMINAL
p101
sVid
p102
I14
sa(dp103
VendIndex
p104
I28
sVanimacy
p105
VANIMATE
p106
sg6
I00
sVtext
p107
VSamuel
p108
sVisRepresentativeMention
p109
I01
sVnumber
p110
VSINGULAR
p111
sg12
(lp112
sg14
NsVstartIndex
p113
I27
sVsentNum
p114
I1
sVgender
p115
VMALE
p116
sVposition
p117
(lp118
I1
aI12
asg21
S'np-subj'
p119
sVtype
p120
VPROPER
p121
sVid
p122
I3
sa(dp123
VendIndex
p124
I12
sVanimacy
p125
VANIMATE
p126
sg6
I00
sVtext
p127
VAlito  past support for conservative positions
p128
sVisRepresentativeMention
p129
I01
sVnumber
p130
VSINGULAR
p131
sg12
(lp132
sg14
NsVstartIndex
p133
I6
sVsentNum
p134
I1
sVgender
p135
VMALE
p136
sVposition
p137
(lp138
I1
aI3
asg21
g119
sVtype
p139
VPROPER
p140
sVid
p141
I6
sa(dp142
VendIndex
p143
I27
sVanimacy
p144
VANIMATE
p145
sg6
I00
sVtext
p146
VAlito
p147
sVisRepresentativeMention
p148
I00
sVnumber
p149
VSINGULAR
p150
sg12
(lp151
sg14
NsVstartIndex
p152
I26
sVsentNum
p153
I4
sVgender
p154
VMALE
p155
sVposition
p156
(lp157
I4
aI10
asg21
g119
sVtype
p158
VPROPER
p159
sVid
p160
I32
sa(dp161
VendIndex
p162
I26
sVanimacy
p163
VANIMATE
p164
sg6
I00
sVtext
p165
VAlito
p166
sVisRepresentativeMention
p167
I00
sVnumber
p168
VSINGULAR
p169
sg12
(lp170
sg14
NsVstartIndex
p171
I25
sVsentNum
p172
I5
sVgender
p173
VMALE
p174
sVposition
p175
(lp176
I5
aI6
asg21
g119
sVtype
p177
VPROPER
p178
sVid
p179
I53
sa(dp180
VendIndex
p181
I8
sVanimacy
p182
VANIMATE
p183
sg6
I00
sVtext
p184
VAlito's
p185
sVisRepresentativeMention
p186
I00
sVnumber
p187
VSINGULAR
p188
sg12
(lp189
sg14
NsVstartIndex
p190
I6
sVsentNum
p191
I13
sVgender
p192
VMALE
p193
sVposition
p194
(lp195
I13
aI4
asg21
g42
sVtype
p196
VPROPER
p197
sVid
p198
I118
sa(dp199
VendIndex
p200
I4
sVanimacy
p201
VANIMATE
p202
sg6
I00
sVtext
p203
VAlito
p204
sVisRepresentativeMention
p205
I00
sVnumber
p206
VSINGULAR
p207
sg12
(lp208
sg14
NsVstartIndex
p209
I3
sVsentNum
p210
I14
sVgender
p211
VMALE
p212
sVposition
p213
(lp214
I14
aI2
asg21
g22
sVtype
p215
VPROPER
p216
sVid
p217
I123
sa(dp218
VendIndex
p219
I15
sVanimacy
p220
VANIMATE
p221
sg6
I00
sVtext
p222
VAlito
p223
sVisRepresentativeMention
p224
I00
sVnumber
p225
VSINGULAR
p226
sg12
(lp227
sg14
NsVstartIndex
p228
I14
sVsentNum
p229
I15
sVgender
p230
VMALE
p231
sVposition
p232
(lp233
I15
aI5
asg21
g42
sVtype
p234
VPROPER
p235
sVid
p236
I127
sa.