(lp1
(dp2
VendIndex
p3
I5
sVanimacy
p4
VANIMATE
p5
sS'title'
p6
I00
sVtext
p7
Vhis
p8
sVisRepresentativeMention
p9
I00
sVnumber
p10
VSINGULAR
p11
sS'name_type'
p12
(lp13
sS'appositive'
p14
NsVstartIndex
p15
I4
sVsentNum
p16
I6
sVgender
p17
VMALE
p18
sVposition
p19
(lp20
I6
aI2
asS'syntax'
p21
S'subj-det'
p22
sVtype
p23
VPRONOMINAL
p24
sVid
p25
I51
sa(dp26
VendIndex
p27
I40
sVanimacy
p28
VANIMATE
p29
sg6
I00
sVtext
p30
Vhis
p31
sVisRepresentativeMention
p32
I00
sVnumber
p33
VSINGULAR
p34
sg12
(lp35
sg14
NsVstartIndex
p36
I39
sVsentNum
p37
I6
sVgender
p38
VMALE
p39
sVposition
p40
(lp41
I6
aI10
asg21
g22
sVtype
p42
VPRONOMINAL
p43
sVid
p44
I59
sa(dp45
VendIndex
p46
I15
sVanimacy
p47
VANIMATE
p48
sg6
I00
sVtext
p49
VAlito
p50
sVisRepresentativeMention
p51
I00
sVnumber
p52
VSINGULAR
p53
sg12
(lp54
sg14
NsVstartIndex
p55
I14
sVsentNum
p56
I20
sVgender
p57
VMALE
p58
sVposition
p59
(lp60
I20
aI5
asg21
g22
sVtype
p61
VPROPER
p62
sVid
p63
I148
sa(dp64
VendIndex
p65
I31
sVanimacy
p66
VANIMATE
p67
sg6
I00
sVtext
p68
VSamuel Anthony Alito
p69
sVisRepresentativeMention
p70
I01
sVnumber
p71
VSINGULAR
p72
sg12
(lp73
sg14
NsVstartIndex
p74
I28
sVsentNum
p75
I1
sVgender
p76
VMALE
p77
sVposition
p78
(lp79
I1
aI13
asg21
g22
sVtype
p80
VPROPER
p81
sVid
p82
I5
sa(dp83
VendIndex
p84
I30
sVanimacy
p85
VANIMATE
p86
sg6
I00
sVtext
p87
VSamuel Anthony Alito
p88
sVisRepresentativeMention
p89
I00
sVnumber
p90
VSINGULAR
p91
sg12
(lp92
sg14
NsVstartIndex
p93
I27
sVsentNum
p94
I5
sVgender
p95
VMALE
p96
sVposition
p97
(lp98
I5
aI11
asg21
g22
sVtype
p99
VPROPER
p100
sVid
p101
I37
sa(dp102
VendIndex
p103
I29
sVanimacy
p104
VANIMATE
p105
sg6
I00
sVtext
p106
VSamuel Anthony Alito
p107
sVisRepresentativeMention
p108
I00
sVnumber
p109
VSINGULAR
p110
sg12
(lp111
sg14
NsVstartIndex
p112
I26
sVsentNum
p113
I7
sVgender
p114
VMALE
p115
sVposition
p116
(lp117
I7
aI7
asg21
g22
sVtype
p118
VPROPER
p119
sVid
p120
I62
sa(dp121
VendIndex
p122
I12
sVanimacy
p123
VANIMATE
p124
sg6
I00
sVtext
p125
VSamuel Anthony Alito
p126
sVisRepresentativeMention
p127
I00
sVnumber
p128
VSINGULAR
p129
sg12
(lp130
sg14
NsVstartIndex
p131
I9
sVsentNum
p132
I14
sVgender
p133
VMALE
p134
sVposition
p135
(lp136
I14
aI4
asg21
g22
sVtype
p137
VPROPER
p138
sVid
p139
I92
sa(dp140
VendIndex
p141
I11
sVanimacy
p142
VANIMATE
p143
sg6
I00
sVtext
p144
VSamuel Anthony Alito
p145
sVisRepresentativeMention
p146
I00
sVnumber
p147
VSINGULAR
p148
sg12
(lp149
sg14
NsVstartIndex
p150
I8
sVsentNum
p151
I16
sVgender
p152
VMALE
p153
sVposition
p154
(lp155
I16
aI3
asg21
g22
sVtype
p156
VPROPER
p157
sVid
p158
I111
sa(dp159
VendIndex
p160
I7
sVanimacy
p161
VANIMATE
p162
sg6
I00
sVtext
p163
VSamuel Anthony Alito
p164
sVisRepresentativeMention
p165
I00
sVnumber
p166
VSINGULAR
p167
sg12
(lp168
sg14
NsVstartIndex
p169
I4
sVsentNum
p170
I18
sVgender
p171
VMALE
p172
sVposition
p173
(lp174
I18
aI2
asg21
S'np-obj'
p175
sVtype
p176
VPROPER
p177
sVid
p178
I141
sa.