(lp1
(dp2
VendIndex
p3
I31
sVanimacy
p4
VANIMATE
p5
sS'title'
p6
I00
sVtext
p7
Vhis
p8
sVisRepresentativeMention
p9
I00
sVnumber
p10
VSINGULAR
p11
sS'name_type'
p12
(lp13
sS'appositive'
p14
NsVstartIndex
p15
I30
sVsentNum
p16
I4
sVgender
p17
VMALE
p18
sVposition
p19
(lp20
I4
aI12
asS'syntax'
p21
S'subj-det'
p22
sVtype
p23
VPRONOMINAL
p24
sVid
p25
I42
sa(dp26
VendIndex
p27
I38
sVanimacy
p28
VANIMATE
p29
sg6
I00
sVtext
p30
Vhis
p31
sVisRepresentativeMention
p32
I00
sVnumber
p33
VSINGULAR
p34
sg12
(lp35
sg14
NsVstartIndex
p36
I37
sVsentNum
p37
I4
sVgender
p38
VMALE
p39
sVposition
p40
(lp41
I4
aI14
asg21
g22
sVtype
p42
VPRONOMINAL
p43
sVid
p44
I44
sa(dp45
VendIndex
p46
I66
sVanimacy
p47
VANIMATE
p48
sg6
I00
sVtext
p49
Vhis
p50
sVisRepresentativeMention
p51
I00
sVnumber
p52
VSINGULAR
p53
sg12
(lp54
sg14
NsVstartIndex
p55
I65
sVsentNum
p56
I4
sVgender
p57
VMALE
p58
sVposition
p59
(lp60
I4
aI21
asg21
g22
sVtype
p61
VPRONOMINAL
p62
sVid
p63
I51
sa(dp64
VendIndex
p65
I57
sVanimacy
p66
VANIMATE
p67
sg6
I00
sVtext
p68
Vhis
p69
sVisRepresentativeMention
p70
I00
sVnumber
p71
VSINGULAR
p72
sg12
(lp73
sg14
NsVstartIndex
p74
I56
sVsentNum
p75
I15
sVgender
p76
VMALE
p77
sVposition
p78
(lp79
I15
aI21
asg21
g22
sVtype
p80
VPRONOMINAL
p81
sVid
p82
I149
sa(dp83
VendIndex
p84
I29
sVanimacy
p85
VANIMATE
p86
sg6
I00
sVtext
p87
VSamuel Alito
p88
sVisRepresentativeMention
p89
I01
sVnumber
p90
VSINGULAR
p91
sg12
(lp92
sg14
NsVstartIndex
p93
I27
sVsentNum
p94
I1
sVgender
p95
VMALE
p96
sVposition
p97
(lp98
I1
aI12
asg21
S'np-subj'
p99
sVtype
p100
VPROPER
p101
sVid
p102
I4
sa(dp103
VendIndex
p104
I24
sVanimacy
p105
VANIMATE
p106
sg6
I00
sVtext
p107
VAlito
p108
sVisRepresentativeMention
p109
I00
sVnumber
p110
VSINGULAR
p111
sg12
(lp112
sg14
NsVstartIndex
p113
I23
sVsentNum
p114
I2
sVgender
p115
VMALE
p116
sVposition
p117
(lp118
I2
aI6
asg21
g99
sVtype
p119
VPROPER
p120
sVid
p121
I22
sa(dp122
VendIndex
p123
I27
sVanimacy
p124
VANIMATE
p125
sg6
I00
sVtext
p126
VAlito
p127
sVisRepresentativeMention
p128
I00
sVnumber
p129
VSINGULAR
p130
sg12
(lp131
sg14
NsVstartIndex
p132
I26
sVsentNum
p133
I4
sVgender
p134
VMALE
p135
sVposition
p136
(lp137
I4
aI10
asg21
g99
sVtype
p138
VPROPER
p139
sVid
p140
I32
sa(dp141
VendIndex
p142
I9
sVanimacy
p143
VANIMATE
p144
sg6
I00
sVtext
p145
VAlito
p146
sVisRepresentativeMention
p147
I00
sVnumber
p148
VSINGULAR
p149
sg12
(lp150
sg14
NsVstartIndex
p151
I8
sVsentNum
p152
I12
sVgender
p153
VMALE
p154
sVposition
p155
(lp156
I12
aI4
asg21
g22
sVtype
p157
VPROPER
p158
sVid
p159
I95
sa(dp160
VendIndex
p161
I5
sVanimacy
p162
VANIMATE
p163
sg6
I01
sVtext
p164
VJudge Alito
p165
sVisRepresentativeMention
p166
I00
sVnumber
p167
VSINGULAR
p168
sg12
(lp169
sg14
NsVstartIndex
p170
I3
sVsentNum
p171
I14
sVgender
p172
VMALE
p173
sVposition
p174
(lp175
I14
aI2
asg21
S'np-obj'
p176
sVtype
p177
VPROPER
p178
sVid
p179
I127
sa(dp180
VendIndex
p181
I15
sVanimacy
p182
VANIMATE
p183
sg6
I00
sVtext
p184
VAlito
p185
sVisRepresentativeMention
p186
I00
sVnumber
p187
VSINGULAR
p188
sg12
(lp189
sg14
NsVstartIndex
p190
I14
sVsentNum
p191
I15
sVgender
p192
VMALE
p193
sVposition
p194
(lp195
I15
aI5
asg21
g22
sVtype
p196
VPROPER
p197
sVid
p198
I130
sa(dp199
VendIndex
p200
I43
sVanimacy
p201
VANIMATE
p202
sg6
I00
sVtext
p203
VAlito's
p204
sVisRepresentativeMention
p205
I00
sVnumber
p206
VSINGULAR
p207
sg12
(lp208
sg14
NsVstartIndex
p209
I41
sVsentNum
p210
I15
sVgender
p211
VMALE
p212
sVposition
p213
(lp214
I15
aI17
asg21
g22
sVtype
p215
VPROPER
p216
sVid
p217
I135
sa(dp218
VendIndex
p219
I27
sVanimacy
p220
VANIMATE
p221
sg6
I01
sVtext
p222
VMr. Alito
p223
sVisRepresentativeMention
p224
I01
sVnumber
p225
VSINGULAR
p226
sg12
(lp227
sg14
NsVstartIndex
p228
I25
sVsentNum
p229
I5
sVgender
p230
VMALE
p231
sVposition
p232
(lp233
I5
aI6
asg21
g99
sVtype
p234
VPROPER
p235
sVid
p236
I58
sa(dp237
VendIndex
p238
I31
sVanimacy
p239
VANIMATE
p240
sg6
I01
sVtext
p241
VMr. Alito's
p242
sVisRepresentativeMention
p243
I00
sVnumber
p244
VSINGULAR
p245
sg12
(lp246
sg14
NsVstartIndex
p247
I28
sVsentNum
p248
I12
sVgender
p249
VMALE
p250
sVposition
p251
(lp252
I12
aI13
asg21
g22
sVtype
p253
VPROPER
p254
sVid
p255
I108
sa.