(lp1
(dp2
VendIndex
p3
I31
sVanimacy
p4
VANIMATE
p5
sS'title'
p6
I00
sVtext
p7
Vhis
p8
sVisRepresentativeMention
p9
I00
sVnumber
p10
VSINGULAR
p11
sS'name_type'
p12
(lp13
sS'appositive'
p14
NsVstartIndex
p15
I30
sVsentNum
p16
I4
sVgender
p17
VMALE
p18
sVposition
p19
(lp20
I4
aI12
asS'syntax'
p21
S'subj-det'
p22
sVtype
p23
VPRONOMINAL
p24
sVid
p25
I46
sa(dp26
VendIndex
p27
I38
sVanimacy
p28
VANIMATE
p29
sg6
I00
sVtext
p30
Vhis
p31
sVisRepresentativeMention
p32
I00
sVnumber
p33
VSINGULAR
p34
sg12
(lp35
sg14
NsVstartIndex
p36
I37
sVsentNum
p37
I4
sVgender
p38
VMALE
p39
sVposition
p40
(lp41
I4
aI14
asg21
g22
sVtype
p42
VPRONOMINAL
p43
sVid
p44
I48
sa(dp45
VendIndex
p46
I66
sVanimacy
p47
VANIMATE
p48
sg6
I00
sVtext
p49
Vhis
p50
sVisRepresentativeMention
p51
I00
sVnumber
p52
VSINGULAR
p53
sg12
(lp54
sg14
NsVstartIndex
p55
I65
sVsentNum
p56
I4
sVgender
p57
VMALE
p58
sVposition
p59
(lp60
I4
aI21
asg21
g22
sVtype
p61
VPRONOMINAL
p62
sVid
p63
I55
sa(dp64
VendIndex
p65
I14
sVanimacy
p66
VANIMATE
p67
sg6
I01
sVtext
p68
VJudge Alito  at the White House
p69
sVisRepresentativeMention
p70
I01
sVnumber
p71
VSINGULAR
p72
sg12
(lp73
sg14
NsVstartIndex
p74
I8
sVsentNum
p75
I11
sVgender
p76
VMALE
p77
sVposition
p78
(lp79
I11
aI5
asg21
g22
sVtype
p80
VPROPER
p81
sVid
p82
I88
sa(dp83
VendIndex
p84
I10
sVanimacy
p85
VANIMATE
p86
sg6
I00
sVtext
p87
VSamuel Anthony Alito
p88
sVisRepresentativeMention
p89
I01
sVnumber
p90
VSINGULAR
p91
sg12
(lp92
sg14
NsVstartIndex
p93
I7
sVsentNum
p94
I1
sVgender
p95
VMALE
p96
sVposition
p97
(lp98
I1
aI3
asg21
S'np-subj'
p99
sVtype
p100
VPROPER
p101
sVid
p102
I2
sa(dp103
VendIndex
p104
I37
sVanimacy
p105
VANIMATE
p106
sg6
I00
sVtext
p107
VAlito
p108
sVisRepresentativeMention
p109
I00
sVnumber
p110
VSINGULAR
p111
sg12
(lp112
sg14
NsVstartIndex
p113
I36
sVsentNum
p114
I1
sVgender
p115
VMALE
p116
sVposition
p117
(lp118
I1
aI16
asg21
g99
sVtype
p119
VPROPER
p120
sVid
p121
I6
sa(dp122
VendIndex
p123
I27
sVanimacy
p124
VANIMATE
p125
sg6
I00
sVtext
p126
VAlito
p127
sVisRepresentativeMention
p128
I00
sVnumber
p129
VSINGULAR
p130
sg12
(lp131
sg14
NsVstartIndex
p132
I26
sVsentNum
p133
I4
sVgender
p134
VMALE
p135
sVposition
p136
(lp137
I4
aI10
asg21
g99
sVtype
p138
VPROPER
p139
sVid
p140
I36
sa(dp141
VendIndex
p142
I13
sVanimacy
p143
VANIMATE
p144
sg6
I00
sVtext
p145
VAlito's
p146
sVisRepresentativeMention
p147
I00
sVnumber
p148
VSINGULAR
p149
sg12
(lp150
sg14
NsVstartIndex
p151
I11
sVsentNum
p152
I10
sVgender
p153
VMALE
p154
sVposition
p155
(lp156
I10
aI5
asg21
g22
sVtype
p157
VPROPER
p158
sVid
p159
I72
sa(dp160
VendIndex
p161
I15
sVanimacy
p162
VANIMATE
p163
sg6
I00
sVtext
p164
VAlito
p165
sVisRepresentativeMention
p166
I00
sVnumber
p167
VSINGULAR
p168
sg12
(lp169
sg14
NsVstartIndex
p170
I14
sVsentNum
p171
I15
sVgender
p172
VMALE
p173
sVposition
p174
(lp175
I15
aI5
asg21
g22
sVtype
p176
VPROPER
p177
sVid
p178
I135
sa(dp179
VendIndex
p180
I25
sVanimacy
p181
VANIMATE
p182
sg6
I01
sVtext
p183
VJudge Alito
p184
sVisRepresentativeMention
p185
I00
sVnumber
p186
VSINGULAR
p187
sg12
(lp188
sg14
NsVstartIndex
p189
I23
sVsentNum
p190
I2
sVgender
p191
VMALE
p192
sVposition
p193
(lp194
I2
aI6
asg21
g99
sVtype
p195
VPROPER
p196
sVid
p197
I31
sa(dp198
VendIndex
p199
I27
sVanimacy
p200
VANIMATE
p201
sg6
I01
sVtext
p202
VJudge Alito
p203
sVisRepresentativeMention
p204
I00
sVnumber
p205
VSINGULAR
p206
sg12
(lp207
sg14
NsVstartIndex
p208
I25
sVsentNum
p209
I5
sVgender
p210
VMALE
p211
sVposition
p212
(lp213
I5
aI6
asg21
g99
sVtype
p214
VPROPER
p215
sVid
p216
I63
sa(dp217
VendIndex
p218
I9
sVanimacy
p219
VANIMATE
p220
sg6
I01
sVtext
p221
VJudge Alito's
p222
sVisRepresentativeMention
p223
I00
sVnumber
p224
VSINGULAR
p225
sg12
(lp226
sg14
NsVstartIndex
p227
I6
sVsentNum
p228
I13
sVgender
p229
VMALE
p230
sVposition
p231
(lp232
I13
aI4
asg21
g22
sVtype
p233
VPROPER
p234
sVid
p235
I128
sa(dp236
VendIndex
p237
I5
sVanimacy
p238
VANIMATE
p239
sg6
I01
sVtext
p240
VJudge Alito
p241
sVisRepresentativeMention
p242
I00
sVnumber
p243
VSINGULAR
p244
sg12
(lp245
sg14
NsVstartIndex
p246
I3
sVsentNum
p247
I14
sVgender
p248
VMALE
p249
sVposition
p250
(lp251
I14
aI2
asg21
S'np-obj'
p252
sVtype
p253
VPROPER
p254
sVid
p255
I132
sa.