(lp1
(dp2
VendIndex
p3
I15
sVanimacy
p4
VANIMATE
p5
sS'title'
p6
I00
sVtext
p7
VAlito
p8
sVisRepresentativeMention
p9
I00
sVnumber
p10
VSINGULAR
p11
sS'name_type'
p12
(lp13
sS'appositive'
p14
NsVstartIndex
p15
I14
sVsentNum
p16
I17
sVgender
p17
VMALE
p18
sVposition
p19
(lp20
I17
aI5
asS'syntax'
p21
S'subj-det'
p22
sVtype
p23
VPROPER
p24
sVid
p25
I125
sa(dp26
VendIndex
p27
I28
sVanimacy
p28
VANIMATE
p29
sg6
I01
sVtext
p30
VJudge Alito Jr
p31
sVisRepresentativeMention
p32
I01
sVnumber
p33
VSINGULAR
p34
sg12
(lp35
sg14
NsVstartIndex
p36
I25
sVsentNum
p37
I6
sVgender
p38
VMALE
p39
sVposition
p40
(lp41
I6
aI7
asg21
g22
sVtype
p42
VPROPER
p43
sVid
p44
I58
sa.