(lp1
(dp2
VendIndex
p3
I14
sVanimacy
p4
VANIMATE
p5
sS'title'
p6
I00
sVtext
p7
VJustice Alito  at the White House
p8
sVisRepresentativeMention
p9
I01
sVnumber
p10
VSINGULAR
p11
sS'name_type'
p12
(lp13
sS'appositive'
p14
NsVstartIndex
p15
I8
sVsentNum
p16
I11
sVgender
p17
VNEUTRAL
p18
sVposition
p19
(lp20
I11
aI5
asS'syntax'
p21
S'subj-det'
p22
sVtype
p23
VPROPER
p24
sVid
p25
I80
sa(dp26
VendIndex
p27
I28
sVanimacy
p28
VANIMATE
p29
sg6
I00
sVtext
p30
VAlito
p31
sVisRepresentativeMention
p32
I00
sVnumber
p33
VSINGULAR
p34
sg12
(lp35
sg14
NsVstartIndex
p36
I27
sVsentNum
p37
I1
sVgender
p38
VMALE
p39
sVposition
p40
(lp41
I1
aI11
asg21
S'np-subj'
p42
sVtype
p43
VPROPER
p44
sVid
p45
I3
sa(dp46
VendIndex
p47
I24
sVanimacy
p48
VANIMATE
p49
sg6
I00
sVtext
p50
VAlito
p51
sVisRepresentativeMention
p52
I00
sVnumber
p53
VSINGULAR
p54
sg12
(lp55
sg14
NsVstartIndex
p56
I23
sVsentNum
p57
I2
sVgender
p58
VMALE
p59
sVposition
p60
(lp61
I2
aI6
asg21
g42
sVtype
p62
VPROPER
p63
sVid
p64
I21
sa(dp65
VendIndex
p66
I26
sVanimacy
p67
VANIMATE
p68
sg6
I00
sVtext
p69
VAlito
p70
sVisRepresentativeMention
p71
I00
sVnumber
p72
VSINGULAR
p73
sg12
(lp74
sg14
NsVstartIndex
p75
I25
sVsentNum
p76
I5
sVgender
p77
VMALE
p78
sVposition
p79
(lp80
I5
aI6
asg21
g42
sVtype
p81
VPROPER
p82
sVid
p83
I52
sa(dp84
VendIndex
p85
I4
sVanimacy
p86
VANIMATE
p87
sg6
I00
sVtext
p88
VAlito
p89
sVisRepresentativeMention
p90
I00
sVnumber
p91
VSINGULAR
p92
sg12
(lp93
sg14
NsVstartIndex
p94
I3
sVsentNum
p95
I14
sVgender
p96
VMALE
p97
sVposition
p98
(lp99
I14
aI2
asg21
S'np-obj'
p100
sVtype
p101
VPROPER
p102
sVid
p103
I120
sa(dp104
VendIndex
p105
I15
sVanimacy
p106
VANIMATE
p107
sg6
I00
sVtext
p108
VAlito
p109
sVisRepresentativeMention
p110
I00
sVnumber
p111
VSINGULAR
p112
sg12
(lp113
sg14
NsVstartIndex
p114
I14
sVsentNum
p115
I15
sVgender
p116
VMALE
p117
sVposition
p118
(lp119
I15
aI5
asg21
g22
sVtype
p120
VPROPER
p121
sVid
p122
I124
sa.