(lp1
(dp2
VendIndex
p3
I10
sVanimacy
p4
VINANIMATE
p5
sS'title'
p6
I00
sVtext
p7
Vit
p8
sVisRepresentativeMention
p9
I00
sVnumber
p10
VSINGULAR
p11
sS'name_type'
p12
(lp13
sS'appositive'
p14
NsVstartIndex
p15
I9
sVsentNum
p16
I2
sVgender
p17
VNEUTRAL
p18
sVposition
p19
(lp20
I2
aI3
asS'syntax'
p21
S'np-subj'
p22
sVtype
p23
VPRONOMINAL
p24
sVid
p25
I25
sa(dp26
VendIndex
p27
I15
sVanimacy
p28
VANIMATE
p29
sg6
I00
sVtext
p30
Vhim
p31
sVisRepresentativeMention
p32
I00
sVnumber
p33
VSINGULAR
p34
sg12
(lp35
sg14
NsVstartIndex
p36
I14
sVsentNum
p37
I1
sVgender
p38
VMALE
p39
sVposition
p40
(lp41
I1
aI7
asg21
S'np-obj'
p42
sVtype
p43
VPRONOMINAL
p44
sVid
p45
I8
sa(dp46
VendIndex
p47
I32
sVanimacy
p48
VANIMATE
p49
sg6
I00
sVtext
p50
Vhis
p51
sVisRepresentativeMention
p52
I00
sVnumber
p53
VSINGULAR
p54
sg12
(lp55
sg14
NsVstartIndex
p56
I31
sVsentNum
p57
I4
sVgender
p58
VMALE
p59
sVposition
p60
(lp61
I4
aI13
asg21
S'subj-det'
p62
sVtype
p63
VPRONOMINAL
p64
sVid
p65
I43
sa(dp66
VendIndex
p67
I39
sVanimacy
p68
VANIMATE
p69
sg6
I00
sVtext
p70
Vhis
p71
sVisRepresentativeMention
p72
I00
sVnumber
p73
VSINGULAR
p74
sg12
(lp75
sg14
NsVstartIndex
p76
I38
sVsentNum
p77
I4
sVgender
p78
VMALE
p79
sVposition
p80
(lp81
I4
aI15
asg21
g62
sVtype
p82
VPRONOMINAL
p83
sVid
p84
I45
sa(dp85
VendIndex
p86
I67
sVanimacy
p87
VANIMATE
p88
sg6
I00
sVtext
p89
Vhis
p90
sVisRepresentativeMention
p91
I00
sVnumber
p92
VSINGULAR
p93
sg12
(lp94
sg14
NsVstartIndex
p95
I66
sVsentNum
p96
I4
sVgender
p97
VMALE
p98
sVposition
p99
(lp100
I4
aI22
asg21
g62
sVtype
p101
VPRONOMINAL
p102
sVid
p103
I52
sa(dp104
VendIndex
p105
I26
sVanimacy
p106
VANIMATE
p107
sg6
I00
sVtext
p108
Vhe
p109
sVisRepresentativeMention
p110
I00
sVnumber
p111
VSINGULAR
p112
sg12
(lp113
sg14
NsVstartIndex
p114
I25
sVsentNum
p115
I5
sVgender
p116
VMALE
p117
sVposition
p118
(lp119
I5
aI6
asg21
g22
sVtype
p120
VPRONOMINAL
p121
sVid
p122
I59
sa(dp123
VendIndex
p124
I29
sVanimacy
p125
VANIMATE
p126
sg6
I00
sVtext
p127
Vhe
p128
sVisRepresentativeMention
p129
I00
sVnumber
p130
VSINGULAR
p131
sg12
(lp132
sg14
NsVstartIndex
p133
I28
sVsentNum
p134
I1
sVgender
p135
VMALE
p136
sVposition
p137
(lp138
I1
aI12
asg21
g22
sVtype
p139
VPRONOMINAL
p140
sVid
p141
I12
sa(dp142
VendIndex
p143
I31
sVanimacy
p144
VANIMATE
p145
sg6
I00
sVtext
p146
Vhis
p147
sVisRepresentativeMention
p148
I00
sVnumber
p149
VSINGULAR
p150
sg12
(lp151
sg14
NsVstartIndex
p152
I30
sVsentNum
p153
I1
sVgender
p154
VMALE
p155
sVposition
p156
(lp157
I1
aI14
asg21
g62
sVtype
p158
VPRONOMINAL
p159
sVid
p160
I14
sa(dp161
VendIndex
p162
I8
sVanimacy
p163
VANIMATE
p164
sg6
I00
sVtext
p165
VAlito's
p166
sVisRepresentativeMention
p167
I00
sVnumber
p168
VSINGULAR
p169
sg12
(lp170
sg14
NsVstartIndex
p171
I6
sVsentNum
p172
I1
sVgender
p173
VMALE
p174
sVposition
p175
(lp176
I1
aI4
asg21
g62
sVtype
p177
VPROPER
p178
sVid
p179
I1
sa(dp180
VendIndex
p181
I24
sVanimacy
p182
VANIMATE
p183
sg6
I00
sVtext
p184
VAlito
p185
sVisRepresentativeMention
p186
I00
sVnumber
p187
VSINGULAR
p188
sg12
(lp189
sg14
NsVstartIndex
p190
I23
sVsentNum
p191
I2
sVgender
p192
VMALE
p193
sVposition
p194
(lp195
I2
aI6
asg21
g22
sVtype
p196
VPROPER
p197
sVid
p198
I22
sa(dp199
VendIndex
p200
I28
sVanimacy
p201
VANIMATE
p202
sg6
I01
sVtext
p203
VJudge Alito
p204
sVisRepresentativeMention
p205
I01
sVnumber
p206
VSINGULAR
p207
sg12
(lp208
sg14
NsVstartIndex
p209
I26
sVsentNum
p210
I4
sVgender
p211
VMALE
p212
sVposition
p213
(lp214
I4
aI10
asg21
g22
sVtype
p215
VPROPER
p216
sVid
p217
I41
sa(dp218
VendIndex
p219
I4
sVanimacy
p220
VANIMATE
p221
sg6
I00
sVtext
p222
VAlito
p223
sVisRepresentativeMention
p224
I00
sVnumber
p225
VSINGULAR
p226
sg12
(lp227
sg14
NsVstartIndex
p228
I3
sVsentNum
p229
I14
sVgender
p230
VMALE
p231
sVposition
p232
(lp233
I14
aI2
asg21
g42
sVtype
p234
VPROPER
p235
sVid
p236
I122
sa(dp237
VendIndex
p238
I15
sVanimacy
p239
VANIMATE
p240
sg6
I00
sVtext
p241
VAlito
p242
sVisRepresentativeMention
p243
I00
sVnumber
p244
VSINGULAR
p245
sg12
(lp246
sg14
NsVstartIndex
p247
I14
sVsentNum
p248
I15
sVgender
p249
VMALE
p250
sVposition
p251
(lp252
I15
aI5
asg21
g62
sVtype
p253
VPROPER
p254
sVid
p255
I126
sa.