(lp1
(dp2
VendIndex
p3
I28
sVanimacy
p4
VANIMATE
p5
sS'title'
p6
I00
sVtext
p7
Vhe
p8
sVisRepresentativeMention
p9
I00
sVnumber
p10
VSINGULAR
p11
sS'name_type'
p12
(lp13
sS'appositive'
p14
NsVstartIndex
p15
I27
sVsentNum
p16
I1
sVgender
p17
VMALE
p18
sVposition
p19
(lp20
I1
aI12
asS'syntax'
p21
S'np-subj'
p22
sVtype
p23
VPRONOMINAL
p24
sVid
p25
I12
sa(dp26
VendIndex
p27
I30
sVanimacy
p28
VANIMATE
p29
sg6
I00
sVtext
p30
Vhis
p31
sVisRepresentativeMention
p32
I00
sVnumber
p33
VSINGULAR
p34
sg12
(lp35
sg14
NsVstartIndex
p36
I29
sVsentNum
p37
I1
sVgender
p38
VMALE
p39
sVposition
p40
(lp41
I1
aI14
asg21
S'subj-det'
p42
sVtype
p43
VPRONOMINAL
p44
sVid
p45
I14
sa(dp46
VendIndex
p47
I24
sVanimacy
p48
VANIMATE
p49
sg6
I00
sVtext
p50
Vhe
p51
sVisRepresentativeMention
p52
I00
sVnumber
p53
VSINGULAR
p54
sg12
(lp55
sg14
NsVstartIndex
p56
I23
sVsentNum
p57
I2
sVgender
p58
VMALE
p59
sVposition
p60
(lp61
I2
aI6
asg21
g22
sVtype
p62
VPRONOMINAL
p63
sVid
p64
I27
sa(dp65
VendIndex
p66
I14
sVanimacy
p67
VANIMATE
p68
sg6
I00
sVtext
p69
Vhim
p70
sVisRepresentativeMention
p71
I00
sVnumber
p72
VSINGULAR
p73
sg12
(lp74
sg14
NsVstartIndex
p75
I13
sVsentNum
p76
I1
sVgender
p77
VMALE
p78
sVposition
p79
(lp80
I1
aI7
asg21
S'np-obj'
p81
sVtype
p82
VPRONOMINAL
p83
sVid
p84
I8
sa(dp85
VendIndex
p86
I56
sVanimacy
p87
VANIMATE
p88
sg6
I00
sVtext
p89
Vhis
p90
sVisRepresentativeMention
p91
I00
sVnumber
p92
VSINGULAR
p93
sg12
(lp94
sg14
NsVstartIndex
p95
I55
sVsentNum
p96
I15
sVgender
p97
VMALE
p98
sVposition
p99
(lp100
I15
aI22
asg21
g42
sVtype
p101
VPRONOMINAL
p102
sVid
p103
I144
sa(dp104
VendIndex
p105
I12
sVanimacy
p106
VANIMATE
p107
sg6
I00
sVtext
p108
VAlito  past support for conservative positions
p109
sVisRepresentativeMention
p110
I00
sVnumber
p111
VSINGULAR
p112
sg12
(lp113
sg14
NsVstartIndex
p114
I6
sVsentNum
p115
I1
sVgender
p116
VMALE
p117
sVposition
p118
(lp119
I1
aI3
asg21
g22
sVtype
p120
VPROPER
p121
sVid
p122
I5
sa(dp123
VendIndex
p124
I7
sVanimacy
p125
VANIMATE
p126
sg6
I00
sVtext
p127
VAlito
p128
sVisRepresentativeMention
p129
I00
sVnumber
p130
VSINGULAR
p131
sg12
(lp132
sg14
NsVstartIndex
p133
I6
sVsentNum
p134
I13
sVgender
p135
VMALE
p136
sVposition
p137
(lp138
I13
aI4
asg21
g42
sVtype
p139
VPROPER
p140
sVid
p141
I115
sa(dp142
VendIndex
p143
I15
sVanimacy
p144
VANIMATE
p145
sg6
I00
sVtext
p146
VAlito
p147
sVisRepresentativeMention
p148
I00
sVnumber
p149
VSINGULAR
p150
sg12
(lp151
sg14
NsVstartIndex
p152
I14
sVsentNum
p153
I15
sVgender
p154
VMALE
p155
sVposition
p156
(lp157
I15
aI5
asg21
g42
sVtype
p158
VPROPER
p159
sVid
p160
I124
sa(dp161
VendIndex
p162
I42
sVanimacy
p163
VANIMATE
p164
sg6
I00
sVtext
p165
VAlito
p166
sVisRepresentativeMention
p167
I00
sVnumber
p168
VSINGULAR
p169
sg12
(lp170
sg14
NsVstartIndex
p171
I41
sVsentNum
p172
I15
sVgender
p173
VMALE
p174
sVposition
p175
(lp176
I15
aI16
asg21
g42
sVtype
p177
VPROPER
p178
sVid
p179
I129
sa.