(lp1
(dp2
VendIndex
p3
I17
sVanimacy
p4
VANIMATE
p5
sS'title'
p6
I00
sVtext
p7
Vhis
p8
sVisRepresentativeMention
p9
I00
sVnumber
p10
VSINGULAR
p11
sS'name_type'
p12
(lp13
sS'appositive'
p14
NsVstartIndex
p15
I16
sVsentNum
p16
I4
sVgender
p17
VMALE
p18
sVposition
p19
(lp20
I4
aI6
asS'syntax'
p21
S'subj-det'
p22
sVtype
p23
VPRONOMINAL
p24
sVid
p25
I39
sa(dp26
VendIndex
p27
I23
sVanimacy
p28
VANIMATE
p29
sg6
I00
sVtext
p30
Vhe
p31
sVisRepresentativeMention
p32
I00
sVnumber
p33
VSINGULAR
p34
sg12
(lp35
sg14
NsVstartIndex
p36
I22
sVsentNum
p37
I4
sVgender
p38
VMALE
p39
sVposition
p40
(lp41
I4
aI8
asg21
S'np-subj'
p42
sVtype
p43
VPRONOMINAL
p44
sVid
p45
I41
sa(dp46
VendIndex
p47
I5
sVanimacy
p48
VANIMATE
p49
sg6
I00
sVtext
p50
VThe last time  Anschutz
p51
sVisRepresentativeMention
p52
I01
sVnumber
p53
VSINGULAR
p54
sg12
(lp55
sg14
NsVstartIndex
p56
I1
sVsentNum
p57
I17
sVgender
p58
VNEUTRAL
p59
sVposition
p60
(lp61
I17
aI1
asg21
g42
sVtype
p62
VPROPER
p63
sVid
p64
I116
sa(dp65
VendIndex
p66
I2
sVanimacy
p67
VANIMATE
p68
sg6
I00
sVtext
p69
VAnschutz
p70
sVisRepresentativeMention
p71
I00
sVnumber
p72
VSINGULAR
p73
sg12
(lp74
S'surnames'
p75
asg14
NsVstartIndex
p76
I1
sVsentNum
p77
I1
sVgender
p78
VMALE
p79
sVposition
p80
(lp81
I1
aI1
asg21
g42
sVtype
p82
VPROPER
p83
sVid
p84
I1
sa(dp85
VendIndex
p86
I2
sVanimacy
p87
VANIMATE
p88
sg6
I00
sVtext
p89
VAnschutz
p90
sVisRepresentativeMention
p91
I00
sVnumber
p92
VSINGULAR
p93
sg12
(lp94
g75
asg14
(dp95
VendIndex
p96
I10
sVanimacy
p97
VANIMATE
p98
sg6
I00
sVtext
p99
Van influential developer in downtown Los Angeles
p100
sVisRepresentativeMention
p101
I00
sVnumber
p102
VSINGULAR
p103
sg12
(lp104
sg14
NsVstartIndex
p105
I3
sVsentNum
p106
I2
sVgender
p107
VUNKNOWN
p108
sVposition
p109
(lp110
I2
aI4
asVtype
p111
VNOMINAL
p112
sVid
p113
I17
ssVstartIndex
p114
I1
sVsentNum
p115
I2
sVgender
p116
VMALE
p117
sVposition
p118
(lp119
I2
aI1
asg21
g42
sVtype
p120
VPROPER
p121
sVid
p122
I13
sa(dp123
VendIndex
p124
I9
sVanimacy
p125
VANIMATE
p126
sg6
I01
sVtext
p127
VMr. Anschutz
p128
sVisRepresentativeMention
p129
I01
sVnumber
p130
VSINGULAR
p131
sg12
(lp132
g75
asg14
NsVstartIndex
p133
I7
sVsentNum
p134
I4
sVgender
p135
VMALE
p136
sVposition
p137
(lp138
I4
aI3
asg21
S'np-obj'
p139
sVtype
p140
VPROPER
p141
sVid
p142
I36
sa(dp143
VendIndex
p144
I2
sVanimacy
p145
VANIMATE
p146
sg6
I00
sVtext
p147
VAnschutz
p148
sVisRepresentativeMention
p149
I00
sVnumber
p150
VSINGULAR
p151
sg12
(lp152
g75
asg14
NsVstartIndex
p153
I1
sVsentNum
p154
I5
sVgender
p155
VMALE
p156
sVposition
p157
(lp158
I5
aI1
asg21
g42
sVtype
p159
VPROPER
p160
sVid
p161
I45
sa(dp162
VendIndex
p163
I2
sVanimacy
p164
VANIMATE
p165
sg6
I00
sVtext
p166
VAnschutz
p167
sVisRepresentativeMention
p168
I00
sVnumber
p169
VSINGULAR
p170
sg12
(lp171
g75
asg14
NsVstartIndex
p172
I1
sVsentNum
p173
I16
sVgender
p174
VMALE
p175
sVposition
p176
(lp177
I16
aI1
asg21
g42
sVtype
p178
VPROPER
p179
sVid
p180
I111
sa(dp181
VendIndex
p182
I12
sVanimacy
p183
VANIMATE
p184
sg6
I00
sVtext
p185
VAnschutz
p186
sVisRepresentativeMention
p187
I00
sVnumber
p188
VSINGULAR
p189
sg12
(lp190
g75
asg14
NsVstartIndex
p191
I11
sVsentNum
p192
I16
sVgender
p193
VMALE
p194
sVposition
p195
(lp196
I16
aI5
asg21
g139
sVtype
p197
VPROPER
p198
sVid
p199
I112
sa.