(lp1
(dp2
VendIndex
p3
I9
sVanimacy
p4
VANIMATE
p5
sS'title'
p6
I00
sVtext
p7
Vhe
p8
sVisRepresentativeMention
p9
I00
sVnumber
p10
VSINGULAR
p11
sS'name_type'
p12
(lp13
sS'appositive'
p14
NsVstartIndex
p15
I8
sVsentNum
p16
I3
sVgender
p17
VMALE
p18
sVposition
p19
(lp20
I3
aI6
asS'syntax'
p21
S'np-subj'
p22
sVtype
p23
VPRONOMINAL
p24
sVid
p25
I31
sa(dp26
VendIndex
p27
I17
sVanimacy
p28
VANIMATE
p29
sg6
I00
sVtext
p30
Vhis
p31
sVisRepresentativeMention
p32
I00
sVnumber
p33
VSINGULAR
p34
sg12
(lp35
sg14
NsVstartIndex
p36
I16
sVsentNum
p37
I4
sVgender
p38
VMALE
p39
sVposition
p40
(lp41
I4
aI6
asg21
S'subj-det'
p42
sVtype
p43
VPRONOMINAL
p44
sVid
p45
I41
sa(dp46
VendIndex
p47
I23
sVanimacy
p48
VANIMATE
p49
sg6
I00
sVtext
p50
Vhe
p51
sVisRepresentativeMention
p52
I00
sVnumber
p53
VSINGULAR
p54
sg12
(lp55
sg14
NsVstartIndex
p56
I22
sVsentNum
p57
I4
sVgender
p58
VMALE
p59
sVposition
p60
(lp61
I4
aI8
asg21
g22
sVtype
p62
VPRONOMINAL
p63
sVid
p64
I43
sa(dp65
VendIndex
p66
I4
sVanimacy
p67
VANIMATE
p68
sg6
I00
sVtext
p69
Vhis
p70
sVisRepresentativeMention
p71
I00
sVnumber
p72
VSINGULAR
p73
sg12
(lp74
sg14
NsVstartIndex
p75
I3
sVsentNum
p76
I7
sVgender
p77
VMALE
p78
sVposition
p79
(lp80
I7
aI3
asg21
g42
sVtype
p81
VPRONOMINAL
p82
sVid
p83
I61
sa(dp84
VendIndex
p85
I17
sVanimacy
p86
VANIMATE
p87
sg6
I00
sVtext
p88
Vhis
p89
sVisRepresentativeMention
p90
I00
sVnumber
p91
VSINGULAR
p92
sg12
(lp93
sg14
NsVstartIndex
p94
I16
sVsentNum
p95
I20
sVgender
p96
VMALE
p97
sVposition
p98
(lp99
I20
aI3
asg21
g42
sVtype
p100
VPRONOMINAL
p101
sVid
p102
I145
sa(dp103
VendIndex
p104
I3
sVanimacy
p105
VANIMATE
p106
sg6
I00
sVtext
p107
Vhe
p108
sVisRepresentativeMention
p109
I00
sVnumber
p110
VSINGULAR
p111
sg12
(lp112
sg14
NsVstartIndex
p113
I2
sVsentNum
p114
I23
sVgender
p115
VMALE
p116
sVposition
p117
(lp118
I23
aI1
asg21
g22
sVtype
p119
VPRONOMINAL
p120
sVid
p121
I158
sa(dp122
VendIndex
p123
I6
sVanimacy
p124
VANIMATE
p125
sg6
I00
sVtext
p126
Vhis
p127
sVisRepresentativeMention
p128
I00
sVnumber
p129
VSINGULAR
p130
sg12
(lp131
sg14
NsVstartIndex
p132
I5
sVsentNum
p133
I25
sVgender
p134
VMALE
p135
sVposition
p136
(lp137
I25
aI4
asg21
g42
sVtype
p138
VPRONOMINAL
p139
sVid
p140
I182
sa(dp141
VendIndex
p142
I9
sVanimacy
p143
VANIMATE
p144
sg6
I00
sVtext
p145
Vhis
p146
sVisRepresentativeMention
p147
I00
sVnumber
p148
VSINGULAR
p149
sg12
(lp150
sg14
NsVstartIndex
p151
I8
sVsentNum
p152
I25
sVgender
p153
VMALE
p154
sVposition
p155
(lp156
I25
aI6
asg21
g42
sVtype
p157
VPRONOMINAL
p158
sVid
p159
I184
sa(dp160
VendIndex
p161
I12
sVanimacy
p162
VANIMATE
p163
sg6
I00
sVtext
p164
Vhis
p165
sVisRepresentativeMention
p166
I00
sVnumber
p167
VSINGULAR
p168
sg12
(lp169
sg14
NsVstartIndex
p170
I11
sVsentNum
p171
I25
sVgender
p172
VMALE
p173
sVposition
p174
(lp175
I25
aI8
asg21
g42
sVtype
p176
VPRONOMINAL
p177
sVid
p178
I186
sa(dp179
VendIndex
p180
I4
sVanimacy
p181
VANIMATE
p182
sg6
I00
sVtext
p183
VPhilip Frederick Anschutz
p184
sVisRepresentativeMention
p185
I01
sVnumber
p186
VSINGULAR
p187
sg12
(lp188
S'birthNames'
p189
asg14
(dp190
VendIndex
p191
I12
sVanimacy
p192
VANIMATE
p193
sg6
I00
sVtext
p194
Van influential developer in downtown Los Angeles
p195
sVisRepresentativeMention
p196
I00
sVnumber
p197
VSINGULAR
p198
sg12
(lp199
sg14
NsVstartIndex
p200
I5
sVsentNum
p201
I2
sVgender
p202
VUNKNOWN
p203
sVposition
p204
(lp205
I2
aI4
asVtype
p206
VNOMINAL
p207
sVid
p208
I17
ssVstartIndex
p209
I1
sVsentNum
p210
I2
sVgender
p211
VMALE
p212
sVposition
p213
(lp214
I2
aI1
asg21
g22
sVtype
p215
VPROPER
p216
sVid
p217
I13
sa(dp218
VendIndex
p219
I9
sVanimacy
p220
VANIMATE
p221
sg6
I01
sVtext
p222
VMr. Anschutz
p223
sVisRepresentativeMention
p224
I00
sVnumber
p225
VSINGULAR
p226
sg12
(lp227
S'surnames'
p228
asg14
NsVstartIndex
p229
I7
sVsentNum
p230
I4
sVgender
p231
VMALE
p232
sVposition
p233
(lp234
I4
aI3
asg21
S'np-obj'
p235
sVtype
p236
VPROPER
p237
sVid
p238
I38
sa(dp239
VendIndex
p240
I36
sVanimacy
p241
VANIMATE
p242
sg6
I00
sVtext
p243
VAnschutz
p244
sVisRepresentativeMention
p245
I00
sVnumber
p246
VSINGULAR
p247
sg12
(lp248
g228
asg14
NsVstartIndex
p249
I35
sVsentNum
p250
I4
sVgender
p251
VMALE
p252
sVposition
p253
(lp254
I4
aI11
asg21
g42
sVtype
p255
VPROPER
p256
sVid
p257
I35
sa(dp258
VendIndex
p259
I4
sVanimacy
p260
VANIMATE
p261
sg6
I00
sVtext
p262
VPhilip Frederick Anschutz
p263
sVisRepresentativeMention
p264
I00
sVnumber
p265
VSINGULAR
p266
sg12
(lp267
g189
asg14
NsVstartIndex
p268
I1
sVsentNum
p269
I5
sVgender
p270
VMALE
p271
sVposition
p272
(lp273
I5
aI1
asg21
g22
sVtype
p274
VPROPER
p275
sVid
p276
I47
sa(dp277
VendIndex
p278
I2
sVanimacy
p279
VANIMATE
p280
sg6
I00
sVtext
p281
VAnschutz
p282
sVisRepresentativeMention
p283
I00
sVnumber
p284
VSINGULAR
p285
sg12
(lp286
g228
asg14
NsVstartIndex
p287
I1
sVsentNum
p288
I7
sVgender
p289
VMALE
p290
sVposition
p291
(lp292
I7
aI1
asg21
g22
sVtype
p293
VPROPER
p294
sVid
p295
I59
sa(dp296
VendIndex
p297
I2
sVanimacy
p298
VANIMATE
p299
sg6
I00
sVtext
p300
VAnschutz
p301
sVisRepresentativeMention
p302
I00
sVnumber
p303
VSINGULAR
p304
sg12
(lp305
g228
asg14
NsVstartIndex
p306
I1
sVsentNum
p307
I18
sVgender
p308
VMALE
p309
sVposition
p310
(lp311
I18
aI1
asg21
g22
sVtype
p312
VPROPER
p313
sVid
p314
I129
sa(dp315
VendIndex
p316
I3
sVanimacy
p317
VANIMATE
p318
sg6
I01
sVtext
p319
VMr Anschutz
p320
sVisRepresentativeMention
p321
I00
sVnumber
p322
VSINGULAR
p323
sg12
(lp324
g228
asg14
NsVstartIndex
p325
I1
sVsentNum
p326
I20
sVgender
p327
VMALE
p328
sVposition
p329
(lp330
I20
aI1
asg21
g22
sVtype
p331
VPROPER
p332
sVid
p333
I143
sa(dp334
VendIndex
p335
I3
sVanimacy
p336
VANIMATE
p337
sg6
I01
sVtext
p338
VMr Anschutz
p339
sVisRepresentativeMention
p340
I00
sVnumber
p341
VSINGULAR
p342
sg12
(lp343
g228
asg14
NsVstartIndex
p344
I1
sVsentNum
p345
I24
sVgender
p346
VMALE
p347
sVposition
p348
(lp349
I24
aI1
asg21
g22
sVtype
p350
VPROPER
p351
sVid
p352
I168
sa.