(lp1
(dp2
VendIndex
p3
I8
sVanimacy
p4
VANIMATE
p5
sS'title'
p6
I00
sVtext
p7
Vhe
p8
sVisRepresentativeMention
p9
I00
sVnumber
p10
VSINGULAR
p11
sS'name_type'
p12
(lp13
sS'appositive'
p14
NsVstartIndex
p15
I7
sVsentNum
p16
I1
sVgender
p17
VMALE
p18
sVposition
p19
(lp20
I1
aI3
asS'syntax'
p21
S'np-subj'
p22
sVtype
p23
VPRONOMINAL
p24
sVid
p25
I7
sa(dp26
VendIndex
p27
I19
sVanimacy
p28
VANIMATE
p29
sg6
I00
sVtext
p30
Vhe
p31
sVisRepresentativeMention
p32
I00
sVnumber
p33
VSINGULAR
p34
sg12
(lp35
sg14
NsVstartIndex
p36
I18
sVsentNum
p37
I1
sVgender
p38
VMALE
p39
sVposition
p40
(lp41
I1
aI7
asg21
g22
sVtype
p42
VPRONOMINAL
p43
sVid
p44
I10
sa(dp45
VendIndex
p46
I9
sVanimacy
p47
VANIMATE
p48
sg6
I00
sVtext
p49
Vhe
p50
sVisRepresentativeMention
p51
I00
sVnumber
p52
VSINGULAR
p53
sg12
(lp54
sg14
NsVstartIndex
p55
I8
sVsentNum
p56
I3
sVgender
p57
VMALE
p58
sVposition
p59
(lp60
I3
aI6
asg21
g22
sVtype
p61
VPRONOMINAL
p62
sVid
p63
I31
sa(dp64
VendIndex
p65
I22
sVanimacy
p66
VANIMATE
p67
sg6
I00
sVtext
p68
Vhe
p69
sVisRepresentativeMention
p70
I00
sVnumber
p71
VSINGULAR
p72
sg12
(lp73
sg14
NsVstartIndex
p74
I21
sVsentNum
p75
I3
sVgender
p76
VMALE
p77
sVposition
p78
(lp79
I3
aI9
asg21
g22
sVtype
p80
VPRONOMINAL
p81
sVid
p82
I34
sa(dp83
VendIndex
p84
I17
sVanimacy
p85
VANIMATE
p86
sg6
I00
sVtext
p87
Vhis
p88
sVisRepresentativeMention
p89
I00
sVnumber
p90
VSINGULAR
p91
sg12
(lp92
sg14
NsVstartIndex
p93
I16
sVsentNum
p94
I4
sVgender
p95
VMALE
p96
sVposition
p97
(lp98
I4
aI6
asg21
S'subj-det'
p99
sVtype
p100
VPRONOMINAL
p101
sVid
p102
I40
sa(dp103
VendIndex
p104
I23
sVanimacy
p105
VANIMATE
p106
sg6
I00
sVtext
p107
Vhe
p108
sVisRepresentativeMention
p109
I00
sVnumber
p110
VSINGULAR
p111
sg12
(lp112
sg14
NsVstartIndex
p113
I22
sVsentNum
p114
I4
sVgender
p115
VMALE
p116
sVposition
p117
(lp118
I4
aI8
asg21
g22
sVtype
p119
VPRONOMINAL
p120
sVid
p121
I42
sa(dp122
VendIndex
p123
I3
sVanimacy
p124
VANIMATE
p125
sg6
I00
sVtext
p126
VWe
p127
sVisRepresentativeMention
p128
I00
sVnumber
p129
VPLURAL
p130
sg12
(lp131
sg14
NsVstartIndex
p132
I2
sVsentNum
p133
I25
sVgender
p134
VUNKNOWN
p135
sVposition
p136
(lp137
I25
aI1
asg21
g22
sVtype
p138
VPRONOMINAL
p139
sVid
p140
I180
sa(dp141
VendIndex
p142
I4
sVanimacy
p143
VANIMATE
p144
sg6
I00
sVtext
p145
VPhilip Frederick Anschutz
p146
sVisRepresentativeMention
p147
I01
sVnumber
p148
VSINGULAR
p149
sg12
(lp150
S'birthNames'
p151
asg14
NsVstartIndex
p152
I1
sVsentNum
p153
I1
sVgender
p154
VMALE
p155
sVposition
p156
(lp157
I1
aI1
asg21
g22
sVtype
p158
VPROPER
p159
sVid
p160
I1
sa(dp161
VendIndex
p162
I4
sVanimacy
p163
VANIMATE
p164
sg6
I00
sVtext
p165
VPhilip Frederick Anschutz
p166
sVisRepresentativeMention
p167
I00
sVnumber
p168
VSINGULAR
p169
sg12
(lp170
g151
asg14
(dp171
VendIndex
p172
I12
sVanimacy
p173
VANIMATE
p174
sg6
I00
sVtext
p175
Van influential developer in downtown Los Angeles
p176
sVisRepresentativeMention
p177
I00
sVnumber
p178
VSINGULAR
p179
sg12
(lp180
sg14
NsVstartIndex
p181
I5
sVsentNum
p182
I2
sVgender
p183
VUNKNOWN
p184
sVposition
p185
(lp186
I2
aI4
asVtype
p187
VNOMINAL
p188
sVid
p189
I17
ssVstartIndex
p190
I1
sVsentNum
p191
I2
sVgender
p192
VMALE
p193
sVposition
p194
(lp195
I2
aI1
asg21
g22
sVtype
p196
VPROPER
p197
sVid
p198
I13
sa(dp199
VendIndex
p200
I9
sVanimacy
p201
VANIMATE
p202
sg6
I01
sVtext
p203
VMr. Anschutz
p204
sVisRepresentativeMention
p205
I00
sVnumber
p206
VSINGULAR
p207
sg12
(lp208
S'surnames'
p209
asg14
NsVstartIndex
p210
I7
sVsentNum
p211
I4
sVgender
p212
VMALE
p213
sVposition
p214
(lp215
I4
aI3
asg21
S'np-obj'
p216
sVtype
p217
VPROPER
p218
sVid
p219
I37
sa(dp220
VendIndex
p221
I4
sVanimacy
p222
VANIMATE
p223
sg6
I00
sVtext
p224
VPhilip Frederick Anschutz
p225
sVisRepresentativeMention
p226
I00
sVnumber
p227
VSINGULAR
p228
sg12
(lp229
g151
asg14
NsVstartIndex
p230
I1
sVsentNum
p231
I5
sVgender
p232
VMALE
p233
sVposition
p234
(lp235
I5
aI1
asg21
g22
sVtype
p236
VPROPER
p237
sVid
p238
I46
sa(dp239
VendIndex
p240
I4
sVanimacy
p241
VANIMATE
p242
sg6
I00
sVtext
p243
VPhilip Frederick Anschutz
p244
sVisRepresentativeMention
p245
I00
sVnumber
p246
VSINGULAR
p247
sg12
(lp248
g151
asg14
NsVstartIndex
p249
I1
sVsentNum
p250
I24
sVgender
p251
VMALE
p252
sVposition
p253
(lp254
I24
aI1
asg21
g22
sVtype
p255
VPROPER
p256
sVid
p257
I167
sa.