(lp1
(dp2
VendIndex
p3
I8
sVanimacy
p4
VANIMATE
p5
sS'title'
p6
I00
sVtext
p7
Vhe
p8
sVisRepresentativeMention
p9
I00
sVnumber
p10
VSINGULAR
p11
sS'name_type'
p12
(lp13
sS'appositive'
p14
NsVstartIndex
p15
I7
sVsentNum
p16
I1
sVgender
p17
VMALE
p18
sVposition
p19
(lp20
I1
aI3
asS'syntax'
p21
S'np-subj'
p22
sVtype
p23
VPRONOMINAL
p24
sVid
p25
I8
sa(dp26
VendIndex
p27
I22
sVanimacy
p28
VANIMATE
p29
sg6
I00
sVtext
p30
Vhe
p31
sVisRepresentativeMention
p32
I00
sVnumber
p33
VSINGULAR
p34
sg12
(lp35
sg14
NsVstartIndex
p36
I21
sVsentNum
p37
I3
sVgender
p38
VMALE
p39
sVposition
p40
(lp41
I3
aI7
asg21
g22
sVtype
p42
VPRONOMINAL
p43
sVid
p44
I32
sa(dp45
VendIndex
p46
I17
sVanimacy
p47
VANIMATE
p48
sg6
I00
sVtext
p49
Vhis
p50
sVisRepresentativeMention
p51
I00
sVnumber
p52
VSINGULAR
p53
sg12
(lp54
sg14
NsVstartIndex
p55
I16
sVsentNum
p56
I4
sVgender
p57
VMALE
p58
sVposition
p59
(lp60
I4
aI6
asg21
S'subj-det'
p61
sVtype
p62
VPRONOMINAL
p63
sVid
p64
I39
sa(dp65
VendIndex
p66
I23
sVanimacy
p67
VANIMATE
p68
sg6
I00
sVtext
p69
Vhe
p70
sVisRepresentativeMention
p71
I00
sVnumber
p72
VSINGULAR
p73
sg12
(lp74
sg14
NsVstartIndex
p75
I22
sVsentNum
p76
I4
sVgender
p77
VMALE
p78
sVposition
p79
(lp80
I4
aI8
asg21
g22
sVtype
p81
VPRONOMINAL
p82
sVid
p83
I41
sa(dp84
VendIndex
p85
I3
sVanimacy
p86
VANIMATE
p87
sg6
I00
sVtext
p88
Vhe
p89
sVisRepresentativeMention
p90
I00
sVnumber
p91
VSINGULAR
p92
sg12
(lp93
sg14
NsVstartIndex
p94
I2
sVsentNum
p95
I20
sVgender
p96
VMALE
p97
sVposition
p98
(lp99
I20
aI1
asg21
g22
sVtype
p100
VPRONOMINAL
p101
sVid
p102
I140
sa(dp103
VendIndex
p104
I4
sVanimacy
p105
VANIMATE
p106
sg6
I00
sVtext
p107
Vhe
p108
sVisRepresentativeMention
p109
I00
sVnumber
p110
VSINGULAR
p111
sg12
(lp112
sg14
NsVstartIndex
p113
I3
sVsentNum
p114
I23
sVgender
p115
VMALE
p116
sVposition
p117
(lp118
I23
aI1
asg21
g22
sVtype
p119
VPRONOMINAL
p120
sVid
p121
I154
sa(dp122
VendIndex
p123
I6
sVanimacy
p124
VANIMATE
p125
sg6
I00
sVtext
p126
Vhis
p127
sVisRepresentativeMention
p128
I00
sVnumber
p129
VSINGULAR
p130
sg12
(lp131
sg14
NsVstartIndex
p132
I5
sVsentNum
p133
I25
sVgender
p134
VMALE
p135
sVposition
p136
(lp137
I25
aI4
asg21
g61
sVtype
p138
VPRONOMINAL
p139
sVid
p140
I178
sa(dp141
VendIndex
p142
I9
sVanimacy
p143
VANIMATE
p144
sg6
I00
sVtext
p145
Vhis
p146
sVisRepresentativeMention
p147
I00
sVnumber
p148
VSINGULAR
p149
sg12
(lp150
sg14
NsVstartIndex
p151
I8
sVsentNum
p152
I25
sVgender
p153
VMALE
p154
sVposition
p155
(lp156
I25
aI6
asg21
g61
sVtype
p157
VPRONOMINAL
p158
sVid
p159
I180
sa(dp160
VendIndex
p161
I12
sVanimacy
p162
VANIMATE
p163
sg6
I00
sVtext
p164
Vhis
p165
sVisRepresentativeMention
p166
I00
sVnumber
p167
VSINGULAR
p168
sg12
(lp169
sg14
NsVstartIndex
p170
I11
sVsentNum
p171
I25
sVgender
p172
VMALE
p173
sVposition
p174
(lp175
I25
aI8
asg21
g61
sVtype
p176
VPRONOMINAL
p177
sVid
p178
I182
sa(dp179
VendIndex
p180
I4
sVanimacy
p181
VANIMATE
p182
sg6
I00
sVtext
p183
VPhilip Frederick Anschutz
p184
sVisRepresentativeMention
p185
I00
sVnumber
p186
VSINGULAR
p187
sg12
(lp188
S'birthNames'
p189
asg14
NsVstartIndex
p190
I1
sVsentNum
p191
I1
sVgender
p192
VMALE
p193
sVposition
p194
(lp195
I1
aI1
asg21
g22
sVtype
p196
VPROPER
p197
sVid
p198
I1
sa(dp199
VendIndex
p200
I19
sVanimacy
p201
VANIMATE
p202
sg6
I00
sVtext
p203
VAnschutz
p204
sVisRepresentativeMention
p205
I00
sVnumber
p206
VSINGULAR
p207
sg12
(lp208
S'surnames'
p209
asg14
NsVstartIndex
p210
I18
sVsentNum
p211
I1
sVgender
p212
VMALE
p213
sVposition
p214
(lp215
I1
aI7
asg21
g22
sVtype
p216
VPROPER
p217
sVid
p218
I3
sa(dp219
VendIndex
p220
I9
sVanimacy
p221
VANIMATE
p222
sg6
I00
sVtext
p223
Vthe Denver-based telecom company  Anschutz
p224
sVisRepresentativeMention
p225
I01
sVnumber
p226
VSINGULAR
p227
sg12
(lp228
sg14
NsVstartIndex
p229
I4
sVsentNum
p230
I3
sVgender
p231
VNEUTRAL
p232
sVposition
p233
(lp234
I3
aI3
asg21
g22
sVtype
p235
VPROPER
p236
sVid
p237
I29
sa(dp238
VendIndex
p239
I9
sVanimacy
p240
VANIMATE
p241
sg6
I01
sVtext
p242
VMr. Anschutz
p243
sVisRepresentativeMention
p244
I00
sVnumber
p245
VSINGULAR
p246
sg12
(lp247
g209
asg14
NsVstartIndex
p248
I7
sVsentNum
p249
I4
sVgender
p250
VMALE
p251
sVposition
p252
(lp253
I4
aI3
asg21
S'np-obj'
p254
sVtype
p255
VPROPER
p256
sVid
p257
I36
sa(dp258
VendIndex
p259
I4
sVanimacy
p260
VANIMATE
p261
sg6
I00
sVtext
p262
VPhilip Frederick Anschutz
p263
sVisRepresentativeMention
p264
I00
sVnumber
p265
VSINGULAR
p266
sg12
(lp267
g189
asg14
NsVstartIndex
p268
I1
sVsentNum
p269
I5
sVgender
p270
VMALE
p271
sVposition
p272
(lp273
I5
aI1
asg21
g22
sVtype
p274
VPROPER
p275
sVid
p276
I45
sa(dp277
VendIndex
p278
I21
sVanimacy
p279
VANIMATE
p280
sg6
I01
sVtext
p281
VMr. Anschutz
p282
sVisRepresentativeMention
p283
I00
sVnumber
p284
VSINGULAR
p285
sg12
(lp286
g209
asg14
NsVstartIndex
p287
I19
sVsentNum
p288
I6
sVgender
p289
VMALE
p290
sVposition
p291
(lp292
I6
aI5
asg21
g22
sVtype
p293
VPROPER
p294
sVid
p295
I54
sa(dp296
VendIndex
p297
I3
sVanimacy
p298
VANIMATE
p299
sg6
I00
sVtext
p300
VAnschutz's
p301
sVisRepresentativeMention
p302
I00
sVnumber
p303
VSINGULAR
p304
sg12
(lp305
g209
asg14
NsVstartIndex
p306
I1
sVsentNum
p307
I12
sVgender
p308
VMALE
p309
sVposition
p310
(lp311
I12
aI2
asg21
g61
sVtype
p312
VPROPER
p313
sVid
p314
I89
sa(dp315
VendIndex
p316
I3
sVanimacy
p317
VANIMATE
p318
sg6
I01
sVtext
p319
VMr. Anschutz
p320
sVisRepresentativeMention
p321
I00
sVnumber
p322
VSINGULAR
p323
sg12
(lp324
g209
asg14
NsVstartIndex
p325
I1
sVsentNum
p326
I18
sVgender
p327
VMALE
p328
sVposition
p329
(lp330
I18
aI1
asg21
g22
sVtype
p331
VPROPER
p332
sVid
p333
I127
sa(dp334
VendIndex
p335
I3
sVanimacy
p336
VANIMATE
p337
sg6
I01
sVtext
p338
VMr. Anschutz
p339
sVisRepresentativeMention
p340
I00
sVnumber
p341
VSINGULAR
p342
sg12
(lp343
g209
asg14
NsVstartIndex
p344
I1
sVsentNum
p345
I24
sVgender
p346
VMALE
p347
sVposition
p348
(lp349
I24
aI1
asg21
g22
sVtype
p350
VPROPER
p351
sVid
p352
I164
sa.