(lp1
(dp2
VendIndex
p3
I8
sVanimacy
p4
VANIMATE
p5
sS'title'
p6
I00
sVtext
p7
Vhe
p8
sVisRepresentativeMention
p9
I00
sVnumber
p10
VSINGULAR
p11
sS'name_type'
p12
(lp13
sS'appositive'
p14
NsVstartIndex
p15
I7
sVsentNum
p16
I1
sVgender
p17
VMALE
p18
sVposition
p19
(lp20
I1
aI3
asS'syntax'
p21
S'np-subj'
p22
sVtype
p23
VPRONOMINAL
p24
sVid
p25
I7
sa(dp26
VendIndex
p27
I9
sVanimacy
p28
VANIMATE
p29
sg6
I00
sVtext
p30
Vhe
p31
sVisRepresentativeMention
p32
I00
sVnumber
p33
VSINGULAR
p34
sg12
(lp35
sg14
NsVstartIndex
p36
I8
sVsentNum
p37
I3
sVgender
p38
VMALE
p39
sVposition
p40
(lp41
I3
aI6
asg21
g22
sVtype
p42
VPRONOMINAL
p43
sVid
p44
I31
sa(dp45
VendIndex
p46
I17
sVanimacy
p47
VANIMATE
p48
sg6
I00
sVtext
p49
Vhis
p50
sVisRepresentativeMention
p51
I00
sVnumber
p52
VSINGULAR
p53
sg12
(lp54
sg14
NsVstartIndex
p55
I16
sVsentNum
p56
I4
sVgender
p57
VMALE
p58
sVposition
p59
(lp60
I4
aI6
asg21
S'subj-det'
p61
sVtype
p62
VPRONOMINAL
p63
sVid
p64
I40
sa(dp65
VendIndex
p66
I23
sVanimacy
p67
VANIMATE
p68
sg6
I00
sVtext
p69
Vhe
p70
sVisRepresentativeMention
p71
I00
sVnumber
p72
VSINGULAR
p73
sg12
(lp74
sg14
NsVstartIndex
p75
I22
sVsentNum
p76
I4
sVgender
p77
VMALE
p78
sVposition
p79
(lp80
I4
aI8
asg21
g22
sVtype
p81
VPRONOMINAL
p82
sVid
p83
I42
sa(dp84
VendIndex
p85
I35
sVanimacy
p86
VANIMATE
p87
sg6
I00
sVtext
p88
VHis
p89
sVisRepresentativeMention
p90
I00
sVnumber
p91
VSINGULAR
p92
sg12
(lp93
sg14
NsVstartIndex
p94
I34
sVsentNum
p95
I4
sVgender
p96
VMALE
p97
sVposition
p98
(lp99
I4
aI11
asg21
g61
sVtype
p100
VPRONOMINAL
p101
sVid
p102
I45
sa(dp103
VendIndex
p104
I27
sVanimacy
p105
VANIMATE
p106
sg6
I00
sVtext
p107
Vhe
p108
sVisRepresentativeMention
p109
I00
sVnumber
p110
VSINGULAR
p111
sg12
(lp112
sg14
NsVstartIndex
p113
I26
sVsentNum
p114
I18
sVgender
p115
VMALE
p116
sVposition
p117
(lp118
I18
aI9
asg21
g22
sVtype
p119
VPRONOMINAL
p120
sVid
p121
I138
sa(dp122
VendIndex
p123
I2
sVanimacy
p124
VANIMATE
p125
sg6
I00
sVtext
p126
VHe
p127
sVisRepresentativeMention
p128
I00
sVnumber
p129
VSINGULAR
p130
sg12
(lp131
sg14
NsVstartIndex
p132
I1
sVsentNum
p133
I20
sVgender
p134
VMALE
p135
sVposition
p136
(lp137
I20
aI1
asg21
g22
sVtype
p138
VPRONOMINAL
p139
sVid
p140
I145
sa(dp141
VendIndex
p142
I3
sVanimacy
p143
VANIMATE
p144
sg6
I00
sVtext
p145
Vhe
p146
sVisRepresentativeMention
p147
I00
sVnumber
p148
VSINGULAR
p149
sg12
(lp150
sg14
NsVstartIndex
p151
I2
sVsentNum
p152
I23
sVgender
p153
VMALE
p154
sVposition
p155
(lp156
I23
aI1
asg21
g22
sVtype
p157
VPRONOMINAL
p158
sVid
p159
I159
sa(dp160
VendIndex
p161
I6
sVanimacy
p162
VANIMATE
p163
sg6
I00
sVtext
p164
Vhis
p165
sVisRepresentativeMention
p166
I00
sVnumber
p167
VSINGULAR
p168
sg12
(lp169
sg14
NsVstartIndex
p170
I5
sVsentNum
p171
I25
sVgender
p172
VMALE
p173
sVposition
p174
(lp175
I25
aI4
asg21
g61
sVtype
p176
VPRONOMINAL
p177
sVid
p178
I183
sa(dp179
VendIndex
p180
I9
sVanimacy
p181
VANIMATE
p182
sg6
I00
sVtext
p183
Vhis
p184
sVisRepresentativeMention
p185
I00
sVnumber
p186
VSINGULAR
p187
sg12
(lp188
sg14
NsVstartIndex
p189
I8
sVsentNum
p190
I25
sVgender
p191
VMALE
p192
sVposition
p193
(lp194
I25
aI6
asg21
g61
sVtype
p195
VPRONOMINAL
p196
sVid
p197
I185
sa(dp198
VendIndex
p199
I12
sVanimacy
p200
VANIMATE
p201
sg6
I00
sVtext
p202
Vhis
p203
sVisRepresentativeMention
p204
I00
sVnumber
p205
VSINGULAR
p206
sg12
(lp207
sg14
NsVstartIndex
p208
I11
sVsentNum
p209
I25
sVgender
p210
VMALE
p211
sVposition
p212
(lp213
I25
aI8
asg21
g61
sVtype
p214
VPRONOMINAL
p215
sVid
p216
I187
sa(dp217
VendIndex
p218
I4
sVanimacy
p219
VANIMATE
p220
sg6
I00
sVtext
p221
VPhilip Frederick Anschutz
p222
sVisRepresentativeMention
p223
I00
sVnumber
p224
VSINGULAR
p225
sg12
(lp226
S'birthNames'
p227
asg14
NsVstartIndex
p228
I1
sVsentNum
p229
I1
sVgender
p230
VMALE
p231
sVposition
p232
(lp233
I1
aI1
asg21
g22
sVtype
p234
VPROPER
p235
sVid
p236
I1
sa(dp237
VendIndex
p238
I20
sVanimacy
p239
VANIMATE
p240
sg6
I01
sVtext
p241
VMr Anschutz
p242
sVisRepresentativeMention
p243
I00
sVnumber
p244
VSINGULAR
p245
sg12
(lp246
S'surnames'
p247
asg14
NsVstartIndex
p248
I18
sVsentNum
p249
I1
sVgender
p250
VMALE
p251
sVposition
p252
(lp253
I1
aI7
asg21
g22
sVtype
p254
VPROPER
p255
sVid
p256
I10
sa(dp257
VendIndex
p258
I3
sVanimacy
p259
VANIMATE
p260
sg6
I00
sVtext
p261
VPhilip Anschutz
p262
sVisRepresentativeMention
p263
I00
sVnumber
p264
VSINGULAR
p265
sg12
(lp266
S'foaf_names'
p267
aS'dbp_names'
p268
asg14
(dp269
VendIndex
p270
I11
sVanimacy
p271
VANIMATE
p272
sg6
I00
sVtext
p273
Van influential developer in downtown Los Angeles
p274
sVisRepresentativeMention
p275
I00
sVnumber
p276
VSINGULAR
p277
sg12
(lp278
sg14
NsVstartIndex
p279
I4
sVsentNum
p280
I2
sVgender
p281
VUNKNOWN
p282
sVposition
p283
(lp284
I2
aI4
asVtype
p285
VNOMINAL
p286
sVid
p287
I17
ssVstartIndex
p288
I1
sVsentNum
p289
I2
sVgender
p290
VMALE
p291
sVposition
p292
(lp293
I2
aI1
asg21
g22
sVtype
p294
VPROPER
p295
sVid
p296
I13
sa(dp297
VendIndex
p298
I23
sVanimacy
p299
VANIMATE
p300
sg6
I01
sVtext
p301
VMr Anschutz
p302
sVisRepresentativeMention
p303
I00
sVnumber
p304
VSINGULAR
p305
sg12
(lp306
g247
asg14
NsVstartIndex
p307
I21
sVsentNum
p308
I3
sVgender
p309
VMALE
p310
sVposition
p311
(lp312
I3
aI9
asg21
g22
sVtype
p313
VPROPER
p314
sVid
p315
I34
sa(dp316
VendIndex
p317
I9
sVanimacy
p318
VANIMATE
p319
sg6
I01
sVtext
p320
VMr. Anschutz
p321
sVisRepresentativeMention
p322
I00
sVnumber
p323
VSINGULAR
p324
sg12
(lp325
g247
asg14
NsVstartIndex
p326
I7
sVsentNum
p327
I4
sVgender
p328
VMALE
p329
sVposition
p330
(lp331
I4
aI3
asg21
S'np-obj'
p332
sVtype
p333
VPROPER
p334
sVid
p335
I37
sa(dp336
VendIndex
p337
I5
sVanimacy
p338
VANIMATE
p339
sg6
I00
sVtext
p340
VPhilip Frederick Anschutz
p341
sVisRepresentativeMention
p342
I00
sVnumber
p343
VSINGULAR
p344
sg12
(lp345
g227
asg14
NsVstartIndex
p346
I2
sVsentNum
p347
I5
sVgender
p348
VMALE
p349
sVposition
p350
(lp351
I5
aI1
asg21
g22
sVtype
p352
VPROPER
p353
sVid
p354
I47
sa(dp355
VendIndex
p356
I3
sVanimacy
p357
VANIMATE
p358
sg6
I01
sVtext
p359
VMr  Anschutz
p360
sVisRepresentativeMention
p361
I00
sVnumber
p362
VSINGULAR
p363
sg12
(lp364
g247
asg14
NsVstartIndex
p365
I1
sVsentNum
p366
I18
sVgender
p367
VMALE
p368
sVposition
p369
(lp370
I18
aI1
asg21
g22
sVtype
p371
VPROPER
p372
sVid
p373
I131
sa(dp374
VendIndex
p375
I4
sVanimacy
p376
VANIMATE
p377
sg6
I00
sVtext
p378
VPhilip Frederick Anschutz
p379
sVisRepresentativeMention
p380
I00
sVnumber
p381
VSINGULAR
p382
sg12
(lp383
g227
asg14
NsVstartIndex
p384
I1
sVsentNum
p385
I24
sVgender
p386
VMALE
p387
sVposition
p388
(lp389
I24
aI1
asg21
g22
sVtype
p390
VPROPER
p391
sVid
p392
I167
sa.