(lp1
(dp2
VendIndex
p3
I2
sVanimacy
p4
VANIMATE
p5
sS'title'
p6
I00
sVtext
p7
VShe
p8
sVisRepresentativeMention
p9
I00
sVnumber
p10
VSINGULAR
p11
sS'name_type'
p12
(lp13
sS'appositive'
p14
NsVstartIndex
p15
I1
sVsentNum
p16
I2
sVgender
p17
VFEMALE
p18
sVposition
p19
(lp20
I2
aI1
asS'syntax'
p21
S'np-subj'
p22
sVtype
p23
VPRONOMINAL
p24
sVid
p25
I17
sa(dp26
VendIndex
p27
I8
sVanimacy
p28
VANIMATE
p29
sg6
I00
sVtext
p30
Vher
p31
sVisRepresentativeMention
p32
I00
sVnumber
p33
VSINGULAR
p34
sg12
(lp35
sg14
NsVstartIndex
p36
I7
sVsentNum
p37
I7
sVgender
p38
VFEMALE
p39
sVposition
p40
(lp41
I7
aI4
asg21
S'subj-det'
p42
sVtype
p43
VPRONOMINAL
p44
sVid
p45
I51
sa(dp46
VendIndex
p47
I19
sVanimacy
p48
VANIMATE
p49
sg6
I00
sVtext
p50
Vshe
p51
sVisRepresentativeMention
p52
I00
sVnumber
p53
VSINGULAR
p54
sg12
(lp55
sg14
NsVstartIndex
p56
I18
sVsentNum
p57
I7
sVgender
p58
VFEMALE
p59
sVposition
p60
(lp61
I7
aI8
asg21
g22
sVtype
p62
VPRONOMINAL
p63
sVid
p64
I54
sa(dp65
VendIndex
p66
I21
sVanimacy
p67
VANIMATE
p68
sg6
I00
sVtext
p69
Vher
p70
sVisRepresentativeMention
p71
I00
sVnumber
p72
VSINGULAR
p73
sg12
(lp74
sg14
NsVstartIndex
p75
I20
sVsentNum
p76
I7
sVgender
p77
VFEMALE
p78
sVposition
p79
(lp80
I7
aI10
asg21
g42
sVtype
p81
VPRONOMINAL
p82
sVid
p83
I56
sa(dp84
VendIndex
p85
I2
sVanimacy
p86
VANIMATE
p87
sg6
I00
sVtext
p88
Vshe
p89
sVisRepresentativeMention
p90
I00
sVnumber
p91
VSINGULAR
p92
sg12
(lp93
sg14
NsVstartIndex
p94
I1
sVsentNum
p95
I8
sVgender
p96
VFEMALE
p97
sVposition
p98
(lp99
I8
aI1
asg21
g22
sVtype
p100
VPRONOMINAL
p101
sVid
p102
I60
sa(dp103
VendIndex
p104
I9
sVanimacy
p105
VANIMATE
p106
sg6
I00
sVtext
p107
Vshe
p108
sVisRepresentativeMention
p109
I00
sVnumber
p110
VSINGULAR
p111
sg12
(lp112
sg14
NsVstartIndex
p113
I8
sVsentNum
p114
I8
sVgender
p115
VFEMALE
p116
sVposition
p117
(lp118
I8
aI3
asg21
g22
sVtype
p119
VPRONOMINAL
p120
sVid
p121
I61
sa(dp122
VendIndex
p123
I17
sVanimacy
p124
VANIMATE
p125
sg6
I00
sVtext
p126
VChris Grennan
p127
sVisRepresentativeMention
p128
I01
sVnumber
p129
VSINGULAR
p130
sg12
(lp131
sg14
NsVstartIndex
p132
I15
sVsentNum
p133
I21
sVgender
p134
VMALE
p135
sVposition
p136
(lp137
I21
aI9
asg21
g42
sVtype
p138
VPROPER
p139
sVid
p140
I139
sa(dp141
VendIndex
p142
I11
sVanimacy
p143
VANIMATE
p144
sg6
I00
sVtext
p145
VGrace Grennan
p146
sVisRepresentativeMention
p147
I01
sVnumber
p148
VSINGULAR
p149
sg12
(lp150
sg14
NsVstartIndex
p151
I9
sVsentNum
p152
I21
sVgender
p153
VFEMALE
p154
sVposition
p155
(lp156
I21
aI6
asg21
g42
sVtype
p157
VPROPER
p158
sVid
p159
I138
sa(dp160
VendIndex
p161
I9
sVanimacy
p162
VANIMATE
p163
sg6
I00
sVtext
p164
VHuffman
p165
sVisRepresentativeMention
p166
I00
sVnumber
p167
VSINGULAR
p168
sg12
(lp169
S'surnames'
p170
asg14
NsVstartIndex
p171
I8
sVsentNum
p172
I3
sVgender
p173
VMALE
p174
sVposition
p175
(lp176
I3
aI4
asg21
S'np-obj'
p177
sVtype
p178
VPROPER
p179
sVid
p180
I19
sa(dp181
VendIndex
p182
I13
sVanimacy
p183
VANIMATE
p184
sg6
I00
sVtext
p185
VDavid Huffman
p186
sVisRepresentativeMention
p187
I00
sVnumber
p188
VSINGULAR
p189
sg12
(lp190
sg14
NsVstartIndex
p191
I11
sVsentNum
p192
I7
sVgender
p193
VMALE
p194
sVposition
p195
(lp196
I7
aI5
asg21
g42
sVtype
p197
VPROPER
p198
sVid
p199
I46
sa(dp200
VendIndex
p201
I2
sVanimacy
p202
VANIMATE
p203
sg6
I00
sVtext
p204
VHuffman
p205
sVisRepresentativeMention
p206
I00
sVnumber
p207
VSINGULAR
p208
sg12
(lp209
g170
asg14
NsVstartIndex
p210
I1
sVsentNum
p211
I13
sVgender
p212
VMALE
p213
sVposition
p214
(lp215
I13
aI1
asg21
g22
sVtype
p216
VPROPER
p217
sVid
p218
I84
sa(dp219
VendIndex
p220
I2
sVanimacy
p221
VANIMATE
p222
sg6
I00
sVtext
p223
VHuffman
p224
sVisRepresentativeMention
p225
I00
sVnumber
p226
VSINGULAR
p227
sg12
(lp228
g170
asg14
NsVstartIndex
p229
I1
sVsentNum
p230
I18
sVgender
p231
VMALE
p232
sVposition
p233
(lp234
I18
aI1
asg21
g22
sVtype
p235
VPROPER
p236
sVid
p237
I114
sa(dp238
VendIndex
p239
I2
sVanimacy
p240
VANIMATE
p241
sg6
I00
sVtext
p242
VHuffman
p243
sVisRepresentativeMention
p244
I00
sVnumber
p245
VSINGULAR
p246
sg12
(lp247
g170
asg14
NsVstartIndex
p248
I1
sVsentNum
p249
I20
sVgender
p250
VMALE
p251
sVposition
p252
(lp253
I20
aI1
asg21
g22
sVtype
p254
VPROPER
p255
sVid
p256
I132
sa(dp257
VendIndex
p258
I3
sVanimacy
p259
VANIMATE
p260
sg6
I00
sVtext
p261
VPhyllis Huffman
p262
sVisRepresentativeMention
p263
I01
sVnumber
p264
VSINGULAR
p265
sg12
(lp266
S'foaf_names'
p267
aS'dbp_names'
p268
asg14
NsVstartIndex
p269
I1
sVsentNum
p270
I1
sVgender
p271
VFEMALE
p272
sVposition
p273
(lp274
I1
aI1
asg21
g22
sVtype
p275
VPROPER
p276
sVid
p277
I1
sa(dp278
VendIndex
p279
I6
sVanimacy
p280
VANIMATE
p281
sg6
I00
sVtext
p282
VPhyllis
p283
sVisRepresentativeMention
p284
I00
sVnumber
p285
VSINGULAR
p286
sg12
(lp287
S'givenNames'
p288
asg14
NsVstartIndex
p289
I5
sVsentNum
p290
I4
sVgender
p291
VFEMALE
p292
sVposition
p293
(lp294
I4
aI2
asg21
g177
sVtype
p295
VPROPER
p296
sVid
p297
I27
sa.