(lp1
(dp2
VendIndex
p3
I18
sVanimacy
p4
VANIMATE
p5
sS'title'
p6
I00
sVtext
p7
Vshe
p8
sVisRepresentativeMention
p9
I00
sVnumber
p10
VSINGULAR
p11
sS'name_type'
p12
(lp13
sS'appositive'
p14
NsVstartIndex
p15
I17
sVsentNum
p16
I6
sVgender
p17
VFEMALE
p18
sVposition
p19
(lp20
I6
aI6
asS'syntax'
p21
S'np-subj'
p22
sVtype
p23
VPRONOMINAL
p24
sVid
p25
I44
sa(dp26
VendIndex
p27
I8
sVanimacy
p28
VANIMATE
p29
sg6
I00
sVtext
p30
Vher
p31
sVisRepresentativeMention
p32
I00
sVnumber
p33
VSINGULAR
p34
sg12
(lp35
sg14
NsVstartIndex
p36
I7
sVsentNum
p37
I7
sVgender
p38
VFEMALE
p39
sVposition
p40
(lp41
I7
aI4
asg21
S'subj-det'
p42
sVtype
p43
VPRONOMINAL
p44
sVid
p45
I52
sa(dp46
VendIndex
p47
I19
sVanimacy
p48
VANIMATE
p49
sg6
I00
sVtext
p50
Vshe
p51
sVisRepresentativeMention
p52
I00
sVnumber
p53
VSINGULAR
p54
sg12
(lp55
sg14
NsVstartIndex
p56
I18
sVsentNum
p57
I7
sVgender
p58
VFEMALE
p59
sVposition
p60
(lp61
I7
aI8
asg21
g22
sVtype
p62
VPRONOMINAL
p63
sVid
p64
I55
sa(dp65
VendIndex
p66
I21
sVanimacy
p67
VANIMATE
p68
sg6
I00
sVtext
p69
Vher
p70
sVisRepresentativeMention
p71
I00
sVnumber
p72
VSINGULAR
p73
sg12
(lp74
sg14
NsVstartIndex
p75
I20
sVsentNum
p76
I7
sVgender
p77
VFEMALE
p78
sVposition
p79
(lp80
I7
aI10
asg21
g42
sVtype
p81
VPRONOMINAL
p82
sVid
p83
I57
sa(dp84
VendIndex
p85
I2
sVanimacy
p86
VANIMATE
p87
sg6
I00
sVtext
p88
VShe
p89
sVisRepresentativeMention
p90
I00
sVnumber
p91
VSINGULAR
p92
sg12
(lp93
sg14
NsVstartIndex
p94
I1
sVsentNum
p95
I8
sVgender
p96
VFEMALE
p97
sVposition
p98
(lp99
I8
aI1
asg21
g22
sVtype
p100
VPRONOMINAL
p101
sVid
p102
I61
sa(dp103
VendIndex
p104
I9
sVanimacy
p105
VANIMATE
p106
sg6
I00
sVtext
p107
Vshe
p108
sVisRepresentativeMention
p109
I00
sVnumber
p110
VSINGULAR
p111
sg12
(lp112
sg14
NsVstartIndex
p113
I8
sVsentNum
p114
I8
sVgender
p115
VFEMALE
p116
sVposition
p117
(lp118
I8
aI3
asg21
g22
sVtype
p119
VPRONOMINAL
p120
sVid
p121
I62
sa(dp122
VendIndex
p123
I8
sVanimacy
p124
VANIMATE
p125
sg6
I00
sVtext
p126
Vhim
p127
sVisRepresentativeMention
p128
I00
sVnumber
p129
VSINGULAR
p130
sg12
(lp131
sg14
NsVstartIndex
p132
I7
sVsentNum
p133
I11
sVgender
p134
VMALE
p135
sVposition
p136
(lp137
I11
aI3
asg21
g22
sVtype
p138
VPRONOMINAL
p139
sVid
p140
I73
sa(dp141
VendIndex
p142
I28
sVanimacy
p143
VANIMATE
p144
sg6
I00
sVtext
p145
Vhis
p146
sVisRepresentativeMention
p147
I00
sVnumber
p148
VSINGULAR
p149
sg12
(lp150
sg14
NsVstartIndex
p151
I27
sVsentNum
p152
I1
sVgender
p153
VMALE
p154
sVposition
p155
(lp156
I1
aI9
asg21
g42
sVtype
p157
VPRONOMINAL
p158
sVid
p159
I10
sa(dp160
VendIndex
p161
I6
sVanimacy
p162
VANIMATE
p163
sg6
I00
sVtext
p164
VPhyllis
p165
sVisRepresentativeMention
p166
I01
sVnumber
p167
VSINGULAR
p168
sg12
(lp169
S'givenNames'
p170
asg14
NsVstartIndex
p171
I5
sVsentNum
p172
I4
sVgender
p173
VFEMALE
p174
sVposition
p175
(lp176
I4
aI2
asg21
S'np-obj'
p177
sVtype
p178
VPROPER
p179
sVid
p180
I27
sa(dp181
VendIndex
p182
I18
sVanimacy
p183
VANIMATE
p184
sg6
I00
sVtext
p185
VEastwood's
p186
sVisRepresentativeMention
p187
I00
sVnumber
p188
VSINGULAR
p189
sg12
(lp190
sg14
NsVstartIndex
p191
I16
sVsentNum
p192
I5
sVgender
p193
VMALE
p194
sVposition
p195
(lp196
I5
aI5
asg21
g42
sVtype
p197
VPROPER
p198
sVid
p199
I33
sa(dp200
VendIndex
p201
I2
sVanimacy
p202
VANIMATE
p203
sg6
I00
sVtext
p204
VHuffman
p205
sVisRepresentativeMention
p206
I00
sVnumber
p207
VSINGULAR
p208
sg12
(lp209
S'surnames'
p210
asg14
(dp211
VendIndex
p212
I25
sVanimacy
p213
VANIMATE
p214
sg6
I00
sVtext
p215
Va veteran casting director  whose  long collaboration with filmmaker Clint Eastwood included work on ``Unforgiven'' and ``Million Dollar Baby
p216
sVisRepresentativeMention
p217
I00
sVnumber
p218
VSINGULAR
p219
sg12
(lp220
sg14
NsVstartIndex
p221
I3
sVsentNum
p222
I1
sVgender
p223
VMALE
p224
sVposition
p225
(lp226
I1
aI3
asVtype
p227
VNOMINAL
p228
sVid
p229
I5
ssVstartIndex
p230
I1
sVsentNum
p231
I1
sVgender
p232
VMALE
p233
sVposition
p234
(lp235
I1
aI1
asg21
g22
sVtype
p236
VPROPER
p237
sVid
p238
I1
sa(dp239
VendIndex
p240
I2
sVanimacy
p241
VANIMATE
p242
sg6
I00
sVtext
p243
VHuffman
p244
sVisRepresentativeMention
p245
I00
sVnumber
p246
VSINGULAR
p247
sg12
(lp248
g210
asg14
NsVstartIndex
p249
I1
sVsentNum
p250
I2
sVgender
p251
VMALE
p252
sVposition
p253
(lp254
I2
aI1
asg21
g22
sVtype
p255
VPROPER
p256
sVid
p257
I16
sa(dp258
VendIndex
p259
I9
sVanimacy
p260
VANIMATE
p261
sg6
I00
sVtext
p262
VHuffman
p263
sVisRepresentativeMention
p264
I00
sVnumber
p265
VSINGULAR
p266
sg12
(lp267
g210
asg14
NsVstartIndex
p268
I8
sVsentNum
p269
I3
sVgender
p270
VMALE
p271
sVposition
p272
(lp273
I3
aI4
asg21
g177
sVtype
p274
VPROPER
p275
sVid
p276
I19
sa(dp277
VendIndex
p278
I13
sVanimacy
p279
VANIMATE
p280
sg6
I00
sVtext
p281
VDavid Huffman
p282
sVisRepresentativeMention
p283
I00
sVnumber
p284
VSINGULAR
p285
sg12
(lp286
sg14
NsVstartIndex
p287
I11
sVsentNum
p288
I7
sVgender
p289
VMALE
p290
sVposition
p291
(lp292
I7
aI5
asg21
g42
sVtype
p293
VPROPER
p294
sVid
p295
I47
sa(dp296
VendIndex
p297
I2
sVanimacy
p298
VANIMATE
p299
sg6
I00
sVtext
p300
VHuffman
p301
sVisRepresentativeMention
p302
I00
sVnumber
p303
VSINGULAR
p304
sg12
(lp305
g210
asg14
NsVstartIndex
p306
I1
sVsentNum
p307
I13
sVgender
p308
VMALE
p309
sVposition
p310
(lp311
I13
aI1
asg21
g22
sVtype
p312
VPROPER
p313
sVid
p314
I86
sa(dp315
VendIndex
p316
I2
sVanimacy
p317
VANIMATE
p318
sg6
I00
sVtext
p319
VHuffman
p320
sVisRepresentativeMention
p321
I00
sVnumber
p322
VSINGULAR
p323
sg12
(lp324
g210
asg14
NsVstartIndex
p325
I1
sVsentNum
p326
I15
sVgender
p327
VMALE
p328
sVposition
p329
(lp330
I15
aI2
asg21
g42
sVtype
p331
VPROPER
p332
sVid
p333
I96
sa(dp334
VendIndex
p335
I2
sVanimacy
p336
VANIMATE
p337
sg6
I00
sVtext
p338
VHuffman
p339
sVisRepresentativeMention
p340
I00
sVnumber
p341
VSINGULAR
p342
sg12
(lp343
g210
asg14
NsVstartIndex
p344
I1
sVsentNum
p345
I19
sVgender
p346
VMALE
p347
sVposition
p348
(lp349
I19
aI1
asg21
g22
sVtype
p350
VPROPER
p351
sVid
p352
I122
sa(dp353
VendIndex
p354
I2
sVanimacy
p355
VANIMATE
p356
sg6
I00
sVtext
p357
VHuffman
p358
sVisRepresentativeMention
p359
I00
sVnumber
p360
VSINGULAR
p361
sg12
(lp362
g210
asg14
NsVstartIndex
p363
I1
sVsentNum
p364
I20
sVgender
p365
VMALE
p366
sVposition
p367
(lp368
I20
aI1
asg21
g22
sVtype
p369
VPROPER
p370
sVid
p371
I134
sa(dp372
VendIndex
p373
I17
sVanimacy
p374
VANIMATE
p375
sg6
I00
sVtext
p376
VChris Grennan
p377
sVisRepresentativeMention
p378
I01
sVnumber
p379
VSINGULAR
p380
sg12
(lp381
sg14
NsVstartIndex
p382
I15
sVsentNum
p383
I21
sVgender
p384
VMALE
p385
sVposition
p386
(lp387
I21
aI9
asg21
g42
sVtype
p388
VPROPER
p389
sVid
p390
I142
sa(dp391
VendIndex
p392
I11
sVanimacy
p393
VANIMATE
p394
sg6
I00
sVtext
p395
VGrace Grennan
p396
sVisRepresentativeMention
p397
I01
sVnumber
p398
VSINGULAR
p399
sg12
(lp400
sg14
NsVstartIndex
p401
I9
sVsentNum
p402
I21
sVgender
p403
VFEMALE
p404
sVposition
p405
(lp406
I21
aI6
asg21
g42
sVtype
p407
VPROPER
p408
sVid
p409
I141
sa(dp410
VendIndex
p411
I5
sVanimacy
p412
VANIMATE
p413
sg6
I00
sVtext
p414
VThe first film  Huffman
p415
sVisRepresentativeMention
p416
I01
sVnumber
p417
VSINGULAR
p418
sg12
(lp419
sg14
NsVstartIndex
p420
I1
sVsentNum
p421
I11
sVgender
p422
VNEUTRAL
p423
sVposition
p424
(lp425
I11
aI1
asg21
g22
sVtype
p426
VPROPER
p427
sVid
p428
I72
sa.