(lp1
(dp2
VendIndex
p3
I2
sVanimacy
p4
VANIMATE
p5
sS'title'
p6
I00
sVtext
p7
VShe
p8
sVisRepresentativeMention
p9
I00
sVnumber
p10
VSINGULAR
p11
sS'name_type'
p12
(lp13
sS'appositive'
p14
NsVstartIndex
p15
I1
sVsentNum
p16
I2
sVgender
p17
VFEMALE
p18
sVposition
p19
(lp20
I2
aI1
asS'syntax'
p21
S'np-subj'
p22
sVtype
p23
VPRONOMINAL
p24
sVid
p25
I18
sa(dp26
VendIndex
p27
I9
sVanimacy
p28
VANIMATE
p29
sg6
I00
sVtext
p30
Vshe
p31
sVisRepresentativeMention
p32
I00
sVnumber
p33
VSINGULAR
p34
sg12
(lp35
sg14
NsVstartIndex
p36
I8
sVsentNum
p37
I6
sVgender
p38
VFEMALE
p39
sVposition
p40
(lp41
I6
aI5
asg21
g22
sVtype
p42
VPRONOMINAL
p43
sVid
p44
I46
sa(dp45
VendIndex
p46
I18
sVanimacy
p47
VANIMATE
p48
sg6
I00
sVtext
p49
Vshe
p50
sVisRepresentativeMention
p51
I00
sVnumber
p52
VSINGULAR
p53
sg12
(lp54
sg14
NsVstartIndex
p55
I17
sVsentNum
p56
I6
sVgender
p57
VFEMALE
p58
sVposition
p59
(lp60
I6
aI8
asg21
g22
sVtype
p61
VPRONOMINAL
p62
sVid
p63
I47
sa(dp64
VendIndex
p65
I8
sVanimacy
p66
VANIMATE
p67
sg6
I00
sVtext
p68
Vher
p69
sVisRepresentativeMention
p70
I00
sVnumber
p71
VSINGULAR
p72
sg12
(lp73
sg14
NsVstartIndex
p74
I7
sVsentNum
p75
I7
sVgender
p76
VFEMALE
p77
sVposition
p78
(lp79
I7
aI4
asg21
S'subj-det'
p80
sVtype
p81
VPRONOMINAL
p82
sVid
p83
I56
sa(dp84
VendIndex
p85
I22
sVanimacy
p86
VANIMATE
p87
sg6
I00
sVtext
p88
Vher
p89
sVisRepresentativeMention
p90
I00
sVnumber
p91
VSINGULAR
p92
sg12
(lp93
sg14
NsVstartIndex
p94
I21
sVsentNum
p95
I7
sVgender
p96
VFEMALE
p97
sVposition
p98
(lp99
I7
aI10
asg21
g80
sVtype
p100
VPRONOMINAL
p101
sVid
p102
I60
sa(dp103
VendIndex
p104
I2
sVanimacy
p105
VANIMATE
p106
sg6
I00
sVtext
p107
VShe
p108
sVisRepresentativeMention
p109
I00
sVnumber
p110
VSINGULAR
p111
sg12
(lp112
sg14
NsVstartIndex
p113
I1
sVsentNum
p114
I8
sVgender
p115
VFEMALE
p116
sVposition
p117
(lp118
I8
aI1
asg21
g22
sVtype
p119
VPRONOMINAL
p120
sVid
p121
I64
sa(dp122
VendIndex
p123
I9
sVanimacy
p124
VANIMATE
p125
sg6
I00
sVtext
p126
Vshe
p127
sVisRepresentativeMention
p128
I00
sVnumber
p129
VSINGULAR
p130
sg12
(lp131
sg14
NsVstartIndex
p132
I8
sVsentNum
p133
I8
sVgender
p134
VFEMALE
p135
sVposition
p136
(lp137
I8
aI3
asg21
g22
sVtype
p138
VPRONOMINAL
p139
sVid
p140
I65
sa(dp141
VendIndex
p142
I6
sVanimacy
p143
VANIMATE
p144
sg6
I00
sVtext
p145
Vher
p146
sVisRepresentativeMention
p147
I00
sVnumber
p148
VSINGULAR
p149
sg12
(lp150
sg14
NsVstartIndex
p151
I5
sVsentNum
p152
I16
sVgender
p153
VFEMALE
p154
sVposition
p155
(lp156
I16
aI4
asg21
g80
sVtype
p157
VPRONOMINAL
p158
sVid
p159
I108
sa(dp160
VendIndex
p161
I22
sVanimacy
p162
VANIMATE
p163
sg6
I00
sVtext
p164
Vher
p165
sVisRepresentativeMention
p166
I00
sVnumber
p167
VSINGULAR
p168
sg12
(lp169
sg14
NsVstartIndex
p170
I21
sVsentNum
p171
I18
sVgender
p172
VFEMALE
p173
sVposition
p174
(lp175
I18
aI6
asg21
g80
sVtype
p176
VPRONOMINAL
p177
sVid
p178
I125
sa(dp179
VendIndex
p180
I2
sVanimacy
p181
VANIMATE
p182
sg6
I00
sVtext
p183
VShe
p184
sVisRepresentativeMention
p185
I00
sVnumber
p186
VSINGULAR
p187
sg12
(lp188
sg14
NsVstartIndex
p189
I1
sVsentNum
p190
I19
sVgender
p191
VFEMALE
p192
sVposition
p193
(lp194
I19
aI1
asg21
g22
sVtype
p195
VPRONOMINAL
p196
sVid
p197
I130
sa(dp198
VendIndex
p199
I4
sVanimacy
p200
VANIMATE
p201
sg6
I00
sVtext
p202
Vher
p203
sVisRepresentativeMention
p204
I00
sVnumber
p205
VSINGULAR
p206
sg12
(lp207
sg14
NsVstartIndex
p208
I3
sVsentNum
p209
I19
sVgender
p210
VFEMALE
p211
sVposition
p212
(lp213
I19
aI3
asg21
g80
sVtype
p214
VPRONOMINAL
p215
sVid
p216
I132
sa(dp217
VendIndex
p218
I10
sVanimacy
p219
VANIMATE
p220
sg6
I00
sVtext
p221
Vshe
p222
sVisRepresentativeMention
p223
I00
sVnumber
p224
VSINGULAR
p225
sg12
(lp226
sg14
NsVstartIndex
p227
I9
sVsentNum
p228
I19
sVgender
p229
VFEMALE
p230
sVposition
p231
(lp232
I19
aI5
asg21
g22
sVtype
p233
VPRONOMINAL
p234
sVid
p235
I133
sa(dp236
VendIndex
p237
I6
sVanimacy
p238
VANIMATE
p239
sg6
I00
sVtext
p240
Vshe
p241
sVisRepresentativeMention
p242
I00
sVnumber
p243
VSINGULAR
p244
sg12
(lp245
sg14
NsVstartIndex
p246
I5
sVsentNum
p247
I20
sVgender
p248
VFEMALE
p249
sVposition
p250
(lp251
I20
aI2
asg21
g22
sVtype
p252
VPRONOMINAL
p253
sVid
p254
I140
sa(dp255
VendIndex
p256
I10
sVanimacy
p257
VANIMATE
p258
sg6
I00
sVtext
p259
Vher
p260
sVisRepresentativeMention
p261
I00
sVnumber
p262
VSINGULAR
p263
sg12
(lp264
sg14
NsVstartIndex
p265
I9
sVsentNum
p266
I20
sVgender
p267
VFEMALE
p268
sVposition
p269
(lp270
I20
aI4
asg21
g80
sVtype
p271
VPRONOMINAL
p272
sVid
p273
I142
sa(dp274
VendIndex
p275
I2
sVanimacy
p276
VANIMATE
p277
sg6
I00
sVtext
p278
VShe
p279
sVisRepresentativeMention
p280
I00
sVnumber
p281
VSINGULAR
p282
sg12
(lp283
sg14
NsVstartIndex
p284
I1
sVsentNum
p285
I21
sVgender
p286
VFEMALE
p287
sVposition
p288
(lp289
I21
aI1
asg21
g22
sVtype
p290
VPRONOMINAL
p291
sVid
p292
I148
sa(dp293
VendIndex
p294
I7
sVanimacy
p295
VANIMATE
p296
sg6
I00
sVtext
p297
Vher
p298
sVisRepresentativeMention
p299
I00
sVnumber
p300
VSINGULAR
p301
sg12
(lp302
sg14
NsVstartIndex
p303
I6
sVsentNum
p304
I21
sVgender
p305
VFEMALE
p306
sVposition
p307
(lp308
I21
aI5
asg21
g80
sVtype
p309
VPRONOMINAL
p310
sVid
p311
I152
sa(dp312
VendIndex
p313
I9
sVanimacy
p314
VANIMATE
p315
sg6
I00
sVtext
p316
VHuffman
p317
sVisRepresentativeMention
p318
I00
sVnumber
p319
VSINGULAR
p320
sg12
(lp321
S'surnames'
p322
asg14
NsVstartIndex
p323
I8
sVsentNum
p324
I3
sVgender
p325
VMALE
p326
sVposition
p327
(lp328
I3
aI4
asg21
S'np-obj'
p329
sVtype
p330
VPROPER
p331
sVid
p332
I20
sa(dp333
VendIndex
p334
I13
sVanimacy
p335
VANIMATE
p336
sg6
I00
sVtext
p337
VDavid Huffman
p338
sVisRepresentativeMention
p339
I00
sVnumber
p340
VSINGULAR
p341
sg12
(lp342
sg14
NsVstartIndex
p343
I11
sVsentNum
p344
I7
sVgender
p345
VMALE
p346
sVposition
p347
(lp348
I7
aI5
asg21
g80
sVtype
p349
VPROPER
p350
sVid
p351
I50
sa(dp352
VendIndex
p353
I9
sVanimacy
p354
VANIMATE
p355
sg6
I00
sVtext
p356
VHuffman
p357
sVisRepresentativeMention
p358
I00
sVnumber
p359
VSINGULAR
p360
sg12
(lp361
g322
asg14
NsVstartIndex
p362
I8
sVsentNum
p363
I9
sVgender
p364
VMALE
p365
sVposition
p366
(lp367
I9
aI3
asg21
g22
sVtype
p368
VPROPER
p369
sVid
p370
I69
sa(dp371
VendIndex
p372
I5
sVanimacy
p373
VANIMATE
p374
sg6
I00
sVtext
p375
VHuffman
p376
sVisRepresentativeMention
p377
I00
sVnumber
p378
VSINGULAR
p379
sg12
(lp380
g322
asg14
NsVstartIndex
p381
I4
sVsentNum
p382
I14
sVgender
p383
VMALE
p384
sVposition
p385
(lp386
I14
aI1
asg21
g22
sVtype
p387
VPROPER
p388
sVid
p389
I94
sa(dp390
VendIndex
p391
I4
sVanimacy
p392
VANIMATE
p393
sg6
I00
sVtext
p394
VHuffman
p395
sVisRepresentativeMention
p396
I00
sVnumber
p397
VSINGULAR
p398
sg12
(lp399
g322
asg14
NsVstartIndex
p400
I3
sVsentNum
p401
I18
sVgender
p402
VMALE
p403
sVposition
p404
(lp405
I18
aI1
asg21
g22
sVtype
p406
VPROPER
p407
sVid
p408
I120
sa(dp409
VendIndex
p410
I2
sVanimacy
p411
VANIMATE
p412
sg6
I00
sVtext
p413
VHuffman
p414
sVisRepresentativeMention
p415
I00
sVnumber
p416
VSINGULAR
p417
sg12
(lp418
g322
asg14
NsVstartIndex
p419
I1
sVsentNum
p420
I20
sVgender
p421
VMALE
p422
sVposition
p423
(lp424
I20
aI1
asg21
g22
sVtype
p425
VPROPER
p426
sVid
p427
I138
sa(dp428
VendIndex
p429
I3
sVanimacy
p430
VANIMATE
p431
sg6
I00
sVtext
p432
VPhyllis Huffman
p433
sVisRepresentativeMention
p434
I01
sVnumber
p435
VSINGULAR
p436
sg12
(lp437
S'foaf_names'
p438
aS'dbp_names'
p439
asg14
NsVstartIndex
p440
I1
sVsentNum
p441
I1
sVgender
p442
VFEMALE
p443
sVposition
p444
(lp445
I1
aI1
asg21
g22
sVtype
p446
VPROPER
p447
sVid
p448
I1
sa(dp449
VendIndex
p450
I6
sVanimacy
p451
VANIMATE
p452
sg6
I00
sVtext
p453
VPhyllis
p454
sVisRepresentativeMention
p455
I00
sVnumber
p456
VSINGULAR
p457
sg12
(lp458
S'givenNames'
p459
asg14
NsVstartIndex
p460
I5
sVsentNum
p461
I4
sVgender
p462
VFEMALE
p463
sVposition
p464
(lp465
I4
aI2
asg21
g329
sVtype
p466
VPROPER
p467
sVid
p468
I28
sa(dp469
VendIndex
p470
I20
sVanimacy
p471
VANIMATE
p472
sg6
I00
sVtext
p473
VPhyllis Huffman
p474
sVisRepresentativeMention
p475
I00
sVnumber
p476
VSINGULAR
p477
sg12
(lp478
g438
ag439
asg14
NsVstartIndex
p479
I18
sVsentNum
p480
I7
sVgender
p481
VFEMALE
p482
sVposition
p483
(lp484
I7
aI8
asg21
g22
sVtype
p485
VPROPER
p486
sVid
p487
I51
sa(dp488
VendIndex
p489
I3
sVanimacy
p490
VANIMATE
p491
sg6
I00
sVtext
p492
VPhyllis Huffman
p493
sVisRepresentativeMention
p494
I00
sVnumber
p495
VSINGULAR
p496
sg12
(lp497
g438
ag439
asg14
NsVstartIndex
p498
I1
sVsentNum
p499
I15
sVgender
p500
VFEMALE
p501
sVposition
p502
(lp503
I15
aI2
asg21
g80
sVtype
p504
VPROPER
p505
sVid
p506
I100
sa(dp507
VendIndex
p508
I17
sVanimacy
p509
VANIMATE
p510
sg6
I00
sVtext
p511
VChris Grennan
p512
sVisRepresentativeMention
p513
I01
sVnumber
p514
VSINGULAR
p515
sg12
(lp516
sg14
NsVstartIndex
p517
I15
sVsentNum
p518
I21
sVgender
p519
VMALE
p520
sVposition
p521
(lp522
I21
aI9
asg21
g80
sVtype
p523
VPROPER
p524
sVid
p525
I146
sa(dp526
VendIndex
p527
I11
sVanimacy
p528
VANIMATE
p529
sg6
I00
sVtext
p530
VGrace Grennan
p531
sVisRepresentativeMention
p532
I01
sVnumber
p533
VSINGULAR
p534
sg12
(lp535
sg14
NsVstartIndex
p536
I9
sVsentNum
p537
I21
sVgender
p538
VFEMALE
p539
sVposition
p540
(lp541
I21
aI6
asg21
g80
sVtype
p542
VPROPER
p543
sVid
p544
I145
sa.