(lp1
(dp2
VendIndex
p3
I9
sVanimacy
p4
VANIMATE
p5
sS'title'
p6
I00
sVtext
p7
Vshe
p8
sVisRepresentativeMention
p9
I00
sVnumber
p10
VSINGULAR
p11
sS'name_type'
p12
(lp13
sS'appositive'
p14
NsVstartIndex
p15
I8
sVsentNum
p16
I6
sVgender
p17
VFEMALE
p18
sVposition
p19
(lp20
I6
aI5
asS'syntax'
p21
S'np-subj'
p22
sVtype
p23
VPRONOMINAL
p24
sVid
p25
I45
sa(dp26
VendIndex
p27
I18
sVanimacy
p28
VANIMATE
p29
sg6
I00
sVtext
p30
Vshe
p31
sVisRepresentativeMention
p32
I00
sVnumber
p33
VSINGULAR
p34
sg12
(lp35
sg14
NsVstartIndex
p36
I17
sVsentNum
p37
I6
sVgender
p38
VFEMALE
p39
sVposition
p40
(lp41
I6
aI8
asg21
g22
sVtype
p42
VPRONOMINAL
p43
sVid
p44
I46
sa(dp45
VendIndex
p46
I8
sVanimacy
p47
VANIMATE
p48
sg6
I00
sVtext
p49
Vher
p50
sVisRepresentativeMention
p51
I00
sVnumber
p52
VSINGULAR
p53
sg12
(lp54
sg14
NsVstartIndex
p55
I7
sVsentNum
p56
I7
sVgender
p57
VFEMALE
p58
sVposition
p59
(lp60
I7
aI4
asg21
S'subj-det'
p61
sVtype
p62
VPRONOMINAL
p63
sVid
p64
I55
sa(dp65
VendIndex
p66
I21
sVanimacy
p67
VANIMATE
p68
sg6
I00
sVtext
p69
Vher
p70
sVisRepresentativeMention
p71
I00
sVnumber
p72
VSINGULAR
p73
sg12
(lp74
sg14
NsVstartIndex
p75
I20
sVsentNum
p76
I7
sVgender
p77
VFEMALE
p78
sVposition
p79
(lp80
I7
aI10
asg21
g61
sVtype
p81
VPRONOMINAL
p82
sVid
p83
I59
sa(dp84
VendIndex
p85
I2
sVanimacy
p86
VANIMATE
p87
sg6
I00
sVtext
p88
VShe
p89
sVisRepresentativeMention
p90
I00
sVnumber
p91
VSINGULAR
p92
sg12
(lp93
sg14
NsVstartIndex
p94
I1
sVsentNum
p95
I8
sVgender
p96
VFEMALE
p97
sVposition
p98
(lp99
I8
aI1
asg21
g22
sVtype
p100
VPRONOMINAL
p101
sVid
p102
I63
sa(dp103
VendIndex
p104
I9
sVanimacy
p105
VANIMATE
p106
sg6
I00
sVtext
p107
Vshe
p108
sVisRepresentativeMention
p109
I00
sVnumber
p110
VSINGULAR
p111
sg12
(lp112
sg14
NsVstartIndex
p113
I8
sVsentNum
p114
I8
sVgender
p115
VFEMALE
p116
sVposition
p117
(lp118
I8
aI3
asg21
g22
sVtype
p119
VPRONOMINAL
p120
sVid
p121
I64
sa(dp122
VendIndex
p123
I4
sVanimacy
p124
VANIMATE
p125
sg6
I00
sVtext
p126
Vshe
p127
sVisRepresentativeMention
p128
I00
sVnumber
p129
VSINGULAR
p130
sg12
(lp131
sg14
NsVstartIndex
p132
I3
sVsentNum
p133
I12
sVgender
p134
VFEMALE
p135
sVposition
p136
(lp137
I12
aI2
asg21
g22
sVtype
p138
VPRONOMINAL
p139
sVid
p140
I81
sa(dp141
VendIndex
p142
I6
sVanimacy
p143
VANIMATE
p144
sg6
I00
sVtext
p145
Vshe
p146
sVisRepresentativeMention
p147
I00
sVnumber
p148
VSINGULAR
p149
sg12
(lp150
sg14
NsVstartIndex
p151
I5
sVsentNum
p152
I20
sVgender
p153
VFEMALE
p154
sVposition
p155
(lp156
I20
aI2
asg21
g22
sVtype
p157
VPRONOMINAL
p158
sVid
p159
I138
sa(dp160
VendIndex
p161
I10
sVanimacy
p162
VANIMATE
p163
sg6
I00
sVtext
p164
Vher
p165
sVisRepresentativeMention
p166
I00
sVnumber
p167
VSINGULAR
p168
sg12
(lp169
sg14
NsVstartIndex
p170
I9
sVsentNum
p171
I20
sVgender
p172
VFEMALE
p173
sVposition
p174
(lp175
I20
aI4
asg21
g61
sVtype
p176
VPRONOMINAL
p177
sVid
p178
I140
sa(dp179
VendIndex
p180
I2
sVanimacy
p181
VANIMATE
p182
sg6
I00
sVtext
p183
VShe
p184
sVisRepresentativeMention
p185
I00
sVnumber
p186
VSINGULAR
p187
sg12
(lp188
sg14
NsVstartIndex
p189
I1
sVsentNum
p190
I21
sVgender
p191
VFEMALE
p192
sVposition
p193
(lp194
I21
aI1
asg21
g22
sVtype
p195
VPRONOMINAL
p196
sVid
p197
I146
sa(dp198
VendIndex
p199
I7
sVanimacy
p200
VANIMATE
p201
sg6
I00
sVtext
p202
Vher
p203
sVisRepresentativeMention
p204
I00
sVnumber
p205
VSINGULAR
p206
sg12
(lp207
sg14
NsVstartIndex
p208
I6
sVsentNum
p209
I21
sVgender
p210
VFEMALE
p211
sVposition
p212
(lp213
I21
aI5
asg21
g61
sVtype
p214
VPRONOMINAL
p215
sVid
p216
I150
sa(dp217
VendIndex
p218
I9
sVanimacy
p219
VANIMATE
p220
sg6
I00
sVtext
p221
VHuffman
p222
sVisRepresentativeMention
p223
I00
sVnumber
p224
VSINGULAR
p225
sg12
(lp226
S'surnames'
p227
asg14
NsVstartIndex
p228
I8
sVsentNum
p229
I3
sVgender
p230
VMALE
p231
sVposition
p232
(lp233
I3
aI4
asg21
S'np-obj'
p234
sVtype
p235
VPROPER
p236
sVid
p237
I19
sa(dp238
VendIndex
p239
I13
sVanimacy
p240
VANIMATE
p241
sg6
I00
sVtext
p242
VDavid Huffman
p243
sVisRepresentativeMention
p244
I00
sVnumber
p245
VSINGULAR
p246
sg12
(lp247
sg14
NsVstartIndex
p248
I11
sVsentNum
p249
I7
sVgender
p250
VMALE
p251
sVposition
p252
(lp253
I7
aI5
asg21
g61
sVtype
p254
VPROPER
p255
sVid
p256
I49
sa(dp257
VendIndex
p258
I9
sVanimacy
p259
VANIMATE
p260
sg6
I00
sVtext
p261
VHuffman
p262
sVisRepresentativeMention
p263
I00
sVnumber
p264
VSINGULAR
p265
sg12
(lp266
g227
asg14
NsVstartIndex
p267
I8
sVsentNum
p268
I9
sVgender
p269
VMALE
p270
sVposition
p271
(lp272
I9
aI3
asg21
g22
sVtype
p273
VPROPER
p274
sVid
p275
I68
sa(dp276
VendIndex
p277
I5
sVanimacy
p278
VANIMATE
p279
sg6
I00
sVtext
p280
VHuffman
p281
sVisRepresentativeMention
p282
I00
sVnumber
p283
VSINGULAR
p284
sg12
(lp285
g227
asg14
NsVstartIndex
p286
I4
sVsentNum
p287
I14
sVgender
p288
VMALE
p289
sVposition
p290
(lp291
I14
aI1
asg21
g22
sVtype
p292
VPROPER
p293
sVid
p294
I92
sa(dp295
VendIndex
p296
I3
sVanimacy
p297
VANIMATE
p298
sg6
I00
sVtext
p299
VHuffman's
p300
sVisRepresentativeMention
p301
I00
sVnumber
p302
VSINGULAR
p303
sg12
(lp304
g227
asg14
NsVstartIndex
p305
I1
sVsentNum
p306
I15
sVgender
p307
VMALE
p308
sVposition
p309
(lp310
I15
aI2
asg21
g61
sVtype
p311
VPROPER
p312
sVid
p313
I98
sa(dp314
VendIndex
p315
I2
sVanimacy
p316
VANIMATE
p317
sg6
I00
sVtext
p318
VHuffman
p319
sVisRepresentativeMention
p320
I00
sVnumber
p321
VSINGULAR
p322
sg12
(lp323
g227
asg14
NsVstartIndex
p324
I1
sVsentNum
p325
I19
sVgender
p326
VMALE
p327
sVposition
p328
(lp329
I19
aI1
asg21
g22
sVtype
p330
VPROPER
p331
sVid
p332
I124
sa(dp333
VendIndex
p334
I3
sVanimacy
p335
VANIMATE
p336
sg6
I00
sVtext
p337
VPhyllis Huffman
p338
sVisRepresentativeMention
p339
I00
sVnumber
p340
VSINGULAR
p341
sg12
(lp342
S'foaf_names'
p343
aS'dbp_names'
p344
asg14
NsVstartIndex
p345
I1
sVsentNum
p346
I1
sVgender
p347
VFEMALE
p348
sVposition
p349
(lp350
I1
aI1
asg21
g22
sVtype
p351
VPROPER
p352
sVid
p353
I1
sa(dp354
VendIndex
p355
I2
sVanimacy
p356
VANIMATE
p357
sg6
I00
sVtext
p358
VPhyllis
p359
sVisRepresentativeMention
p360
I00
sVnumber
p361
VSINGULAR
p362
sg12
(lp363
S'givenNames'
p364
asg14
NsVstartIndex
p365
I1
sVsentNum
p366
I2
sVgender
p367
VFEMALE
p368
sVposition
p369
(lp370
I2
aI1
asg21
g22
sVtype
p371
VPROPER
p372
sVid
p373
I16
sa(dp374
VendIndex
p375
I6
sVanimacy
p376
VANIMATE
p377
sg6
I00
sVtext
p378
VPhyllis
p379
sVisRepresentativeMention
p380
I00
sVnumber
p381
VSINGULAR
p382
sg12
(lp383
g364
asg14
NsVstartIndex
p384
I5
sVsentNum
p385
I4
sVgender
p386
VFEMALE
p387
sVposition
p388
(lp389
I4
aI2
asg21
g234
sVtype
p390
VPROPER
p391
sVid
p392
I27
sa(dp393
VendIndex
p394
I19
sVanimacy
p395
VANIMATE
p396
sg6
I00
sVtext
p397
VPhyllis
p398
sVisRepresentativeMention
p399
I00
sVnumber
p400
VSINGULAR
p401
sg12
(lp402
g364
asg14
NsVstartIndex
p403
I18
sVsentNum
p404
I7
sVgender
p405
VFEMALE
p406
sVposition
p407
(lp408
I7
aI8
asg21
g22
sVtype
p409
VPROPER
p410
sVid
p411
I50
sa(dp412
VendIndex
p413
I6
sVanimacy
p414
VANIMATE
p415
sg6
I00
sVtext
p416
VThe first film  Phyllis Huffman
p417
sVisRepresentativeMention
p418
I01
sVnumber
p419
VSINGULAR
p420
sg12
(lp421
sg14
NsVstartIndex
p422
I1
sVsentNum
p423
I11
sVgender
p424
VFEMALE
p425
sVposition
p426
(lp427
I11
aI1
asg21
g22
sVtype
p428
VPROPER
p429
sVid
p430
I74
sa(dp431
VendIndex
p432
I2
sVanimacy
p433
VANIMATE
p434
sg6
I00
sVtext
p435
VPhyllis
p436
sVisRepresentativeMention
p437
I00
sVnumber
p438
VSINGULAR
p439
sg12
(lp440
g364
asg14
NsVstartIndex
p441
I1
sVsentNum
p442
I13
sVgender
p443
VFEMALE
p444
sVposition
p445
(lp446
I13
aI1
asg21
g22
sVtype
p447
VPROPER
p448
sVid
p449
I88
sa(dp450
VendIndex
p451
I2
sVanimacy
p452
VANIMATE
p453
sg6
I00
sVtext
p454
VPhyllis
p455
sVisRepresentativeMention
p456
I00
sVnumber
p457
VSINGULAR
p458
sg12
(lp459
g364
asg14
NsVstartIndex
p460
I1
sVsentNum
p461
I20
sVgender
p462
VFEMALE
p463
sVposition
p464
(lp465
I20
aI1
asg21
g22
sVtype
p466
VPROPER
p467
sVid
p468
I136
sa(dp469
VendIndex
p470
I17
sVanimacy
p471
VANIMATE
p472
sg6
I00
sVtext
p473
VChris Grennan
p474
sVisRepresentativeMention
p475
I01
sVnumber
p476
VSINGULAR
p477
sg12
(lp478
sg14
NsVstartIndex
p479
I15
sVsentNum
p480
I21
sVgender
p481
VMALE
p482
sVposition
p483
(lp484
I21
aI9
asg21
g61
sVtype
p485
VPROPER
p486
sVid
p487
I144
sa(dp488
VendIndex
p489
I11
sVanimacy
p490
VANIMATE
p491
sg6
I00
sVtext
p492
VGrace Grennan
p493
sVisRepresentativeMention
p494
I01
sVnumber
p495
VSINGULAR
p496
sg12
(lp497
sg14
NsVstartIndex
p498
I9
sVsentNum
p499
I21
sVgender
p500
VFEMALE
p501
sVposition
p502
(lp503
I21
aI6
asg21
g61
sVtype
p504
VPROPER
p505
sVid
p506
I143
sa.