(lp1
(dp2
VendIndex
p3
I9
sVanimacy
p4
VANIMATE
p5
sS'title'
p6
I00
sVtext
p7
Vher
p8
sVisRepresentativeMention
p9
I00
sVnumber
p10
VSINGULAR
p11
sS'name_type'
p12
(lp13
sS'appositive'
p14
NsVstartIndex
p15
I8
sVsentNum
p16
I1
sVgender
p17
VFEMALE
p18
sVposition
p19
(lp20
I1
aI5
asS'syntax'
p21
S'subj-det'
p22
sVtype
p23
VPRONOMINAL
p24
sVid
p25
I6
sa(dp26
VendIndex
p27
I9
sVanimacy
p28
VANIMATE
p29
sg6
I00
sVtext
p30
Vshe
p31
sVisRepresentativeMention
p32
I00
sVnumber
p33
VSINGULAR
p34
sg12
(lp35
sg14
NsVstartIndex
p36
I8
sVsentNum
p37
I6
sVgender
p38
VFEMALE
p39
sVposition
p40
(lp41
I6
aI5
asg21
S'np-subj'
p42
sVtype
p43
VPRONOMINAL
p44
sVid
p45
I46
sa(dp46
VendIndex
p47
I18
sVanimacy
p48
VANIMATE
p49
sg6
I00
sVtext
p50
Vshe
p51
sVisRepresentativeMention
p52
I00
sVnumber
p53
VSINGULAR
p54
sg12
(lp55
sg14
NsVstartIndex
p56
I17
sVsentNum
p57
I6
sVgender
p58
VFEMALE
p59
sVposition
p60
(lp61
I6
aI8
asg21
g42
sVtype
p62
VPRONOMINAL
p63
sVid
p64
I47
sa(dp65
VendIndex
p66
I8
sVanimacy
p67
VANIMATE
p68
sg6
I00
sVtext
p69
Vher
p70
sVisRepresentativeMention
p71
I00
sVnumber
p72
VSINGULAR
p73
sg12
(lp74
sg14
NsVstartIndex
p75
I7
sVsentNum
p76
I7
sVgender
p77
VFEMALE
p78
sVposition
p79
(lp80
I7
aI4
asg21
g22
sVtype
p81
VPRONOMINAL
p82
sVid
p83
I56
sa(dp84
VendIndex
p85
I22
sVanimacy
p86
VANIMATE
p87
sg6
I00
sVtext
p88
Vher
p89
sVisRepresentativeMention
p90
I00
sVnumber
p91
VSINGULAR
p92
sg12
(lp93
sg14
NsVstartIndex
p94
I21
sVsentNum
p95
I7
sVgender
p96
VFEMALE
p97
sVposition
p98
(lp99
I7
aI10
asg21
g22
sVtype
p100
VPRONOMINAL
p101
sVid
p102
I60
sa(dp103
VendIndex
p104
I9
sVanimacy
p105
VANIMATE
p106
sg6
I00
sVtext
p107
Vshe
p108
sVisRepresentativeMention
p109
I00
sVnumber
p110
VSINGULAR
p111
sg12
(lp112
sg14
NsVstartIndex
p113
I8
sVsentNum
p114
I8
sVgender
p115
VFEMALE
p116
sVposition
p117
(lp118
I8
aI3
asg21
g42
sVtype
p119
VPRONOMINAL
p120
sVid
p121
I65
sa(dp122
VendIndex
p123
I4
sVanimacy
p124
VANIMATE
p125
sg6
I00
sVtext
p126
Vshe
p127
sVisRepresentativeMention
p128
I00
sVnumber
p129
VSINGULAR
p130
sg12
(lp131
sg14
NsVstartIndex
p132
I3
sVsentNum
p133
I12
sVgender
p134
VFEMALE
p135
sVposition
p136
(lp137
I12
aI2
asg21
g42
sVtype
p138
VPRONOMINAL
p139
sVid
p140
I82
sa(dp141
VendIndex
p142
I5
sVanimacy
p143
VANIMATE
p144
sg6
I00
sVtext
p145
Vshe
p146
sVisRepresentativeMention
p147
I00
sVnumber
p148
VSINGULAR
p149
sg12
(lp150
sg14
NsVstartIndex
p151
I4
sVsentNum
p152
I14
sVgender
p153
VFEMALE
p154
sVposition
p155
(lp156
I14
aI1
asg21
g42
sVtype
p157
VPRONOMINAL
p158
sVid
p159
I94
sa(dp160
VendIndex
p161
I2
sVanimacy
p162
VANIMATE
p163
sg6
I00
sVtext
p164
VHer
p165
sVisRepresentativeMention
p166
I00
sVnumber
p167
VSINGULAR
p168
sg12
(lp169
sg14
NsVstartIndex
p170
I1
sVsentNum
p171
I15
sVgender
p172
VFEMALE
p173
sVposition
p174
(lp175
I15
aI2
asg21
g22
sVtype
p176
VPRONOMINAL
p177
sVid
p178
I101
sa(dp179
VendIndex
p180
I22
sVanimacy
p181
VANIMATE
p182
sg6
I00
sVtext
p183
Vher
p184
sVisRepresentativeMention
p185
I00
sVnumber
p186
VSINGULAR
p187
sg12
(lp188
sg14
NsVstartIndex
p189
I21
sVsentNum
p190
I18
sVgender
p191
VFEMALE
p192
sVposition
p193
(lp194
I18
aI6
asg21
g22
sVtype
p195
VPRONOMINAL
p196
sVid
p197
I124
sa(dp198
VendIndex
p199
I2
sVanimacy
p200
VANIMATE
p201
sg6
I00
sVtext
p202
Vshe
p203
sVisRepresentativeMention
p204
I00
sVnumber
p205
VSINGULAR
p206
sg12
(lp207
sg14
NsVstartIndex
p208
I1
sVsentNum
p209
I19
sVgender
p210
VFEMALE
p211
sVposition
p212
(lp213
I19
aI1
asg21
g42
sVtype
p214
VPRONOMINAL
p215
sVid
p216
I129
sa(dp217
VendIndex
p218
I4
sVanimacy
p219
VANIMATE
p220
sg6
I00
sVtext
p221
Vher
p222
sVisRepresentativeMention
p223
I00
sVnumber
p224
VSINGULAR
p225
sg12
(lp226
sg14
NsVstartIndex
p227
I3
sVsentNum
p228
I19
sVgender
p229
VFEMALE
p230
sVposition
p231
(lp232
I19
aI3
asg21
g22
sVtype
p233
VPRONOMINAL
p234
sVid
p235
I131
sa(dp236
VendIndex
p237
I10
sVanimacy
p238
VANIMATE
p239
sg6
I00
sVtext
p240
Vshe
p241
sVisRepresentativeMention
p242
I00
sVnumber
p243
VSINGULAR
p244
sg12
(lp245
sg14
NsVstartIndex
p246
I9
sVsentNum
p247
I19
sVgender
p248
VFEMALE
p249
sVposition
p250
(lp251
I19
aI5
asg21
g42
sVtype
p252
VPRONOMINAL
p253
sVid
p254
I132
sa(dp255
VendIndex
p256
I6
sVanimacy
p257
VANIMATE
p258
sg6
I00
sVtext
p259
Vshe
p260
sVisRepresentativeMention
p261
I00
sVnumber
p262
VSINGULAR
p263
sg12
(lp264
sg14
NsVstartIndex
p265
I5
sVsentNum
p266
I20
sVgender
p267
VFEMALE
p268
sVposition
p269
(lp270
I20
aI2
asg21
g42
sVtype
p271
VPRONOMINAL
p272
sVid
p273
I139
sa(dp274
VendIndex
p275
I10
sVanimacy
p276
VANIMATE
p277
sg6
I00
sVtext
p278
Vher
p279
sVisRepresentativeMention
p280
I00
sVnumber
p281
VSINGULAR
p282
sg12
(lp283
sg14
NsVstartIndex
p284
I9
sVsentNum
p285
I20
sVgender
p286
VFEMALE
p287
sVposition
p288
(lp289
I20
aI4
asg21
g22
sVtype
p290
VPRONOMINAL
p291
sVid
p292
I141
sa(dp293
VendIndex
p294
I8
sVanimacy
p295
VANIMATE
p296
sg6
I00
sVtext
p297
Vher
p298
sVisRepresentativeMention
p299
I00
sVnumber
p300
VSINGULAR
p301
sg12
(lp302
sg14
NsVstartIndex
p303
I7
sVsentNum
p304
I21
sVgender
p305
VFEMALE
p306
sVposition
p307
(lp308
I21
aI5
asg21
g22
sVtype
p309
VPRONOMINAL
p310
sVid
p311
I151
sa(dp312
VendIndex
p313
I3
sVanimacy
p314
VANIMATE
p315
sg6
I00
sVtext
p316
VPhyllis Huffman
p317
sVisRepresentativeMention
p318
I00
sVnumber
p319
VSINGULAR
p320
sg12
(lp321
S'foaf_names'
p322
aS'dbp_names'
p323
asg14
NsVstartIndex
p324
I1
sVsentNum
p325
I1
sVgender
p326
VFEMALE
p327
sVposition
p328
(lp329
I1
aI1
asg21
g42
sVtype
p330
VPROPER
p331
sVid
p332
I1
sa(dp333
VendIndex
p334
I2
sVanimacy
p335
VANIMATE
p336
sg6
I00
sVtext
p337
VHuffman
p338
sVisRepresentativeMention
p339
I00
sVnumber
p340
VSINGULAR
p341
sg12
(lp342
S'surnames'
p343
asg14
NsVstartIndex
p344
I1
sVsentNum
p345
I2
sVgender
p346
VMALE
p347
sVposition
p348
(lp349
I2
aI1
asg21
g42
sVtype
p350
VPROPER
p351
sVid
p352
I17
sa(dp353
VendIndex
p354
I10
sVanimacy
p355
VANIMATE
p356
sg6
I00
sVtext
p357
VPhyllis Huffman
p358
sVisRepresentativeMention
p359
I00
sVnumber
p360
VSINGULAR
p361
sg12
(lp362
g322
ag323
asg14
NsVstartIndex
p363
I8
sVsentNum
p364
I3
sVgender
p365
VFEMALE
p366
sVposition
p367
(lp368
I3
aI4
asg21
S'np-obj'
p369
sVtype
p370
VPROPER
p371
sVid
p372
I20
sa(dp373
VendIndex
p374
I6
sVanimacy
p375
VANIMATE
p376
sg6
I00
sVtext
p377
VPhyllis
p378
sVisRepresentativeMention
p379
I00
sVnumber
p380
VSINGULAR
p381
sg12
(lp382
S'givenNames'
p383
asg14
NsVstartIndex
p384
I5
sVsentNum
p385
I4
sVgender
p386
VFEMALE
p387
sVposition
p388
(lp389
I4
aI2
asg21
g369
sVtype
p390
VPROPER
p391
sVid
p392
I28
sa(dp393
VendIndex
p394
I13
sVanimacy
p395
VANIMATE
p396
sg6
I00
sVtext
p397
VDavid Huffman
p398
sVisRepresentativeMention
p399
I00
sVnumber
p400
VSINGULAR
p401
sg12
(lp402
sg14
NsVstartIndex
p403
I11
sVsentNum
p404
I7
sVgender
p405
VMALE
p406
sVposition
p407
(lp408
I7
aI5
asg21
g22
sVtype
p409
VPROPER
p410
sVid
p411
I50
sa(dp412
VendIndex
p413
I20
sVanimacy
p414
VANIMATE
p415
sg6
I00
sVtext
p416
VPhyllis Huffman
p417
sVisRepresentativeMention
p418
I00
sVnumber
p419
VSINGULAR
p420
sg12
(lp421
g322
ag323
asg14
NsVstartIndex
p422
I18
sVsentNum
p423
I7
sVgender
p424
VFEMALE
p425
sVposition
p426
(lp427
I7
aI8
asg21
g42
sVtype
p428
VPROPER
p429
sVid
p430
I51
sa(dp431
VendIndex
p432
I2
sVanimacy
p433
VANIMATE
p434
sg6
I00
sVtext
p435
VHuffman
p436
sVisRepresentativeMention
p437
I00
sVnumber
p438
VSINGULAR
p439
sg12
(lp440
g343
asg14
NsVstartIndex
p441
I1
sVsentNum
p442
I8
sVgender
p443
VMALE
p444
sVposition
p445
(lp446
I8
aI1
asg21
g42
sVtype
p447
VPROPER
p448
sVid
p449
I62
sa(dp450
VendIndex
p451
I6
sVanimacy
p452
VANIMATE
p453
sg6
I00
sVtext
p454
VThe first film  Phyllis Huffman
p455
sVisRepresentativeMention
p456
I01
sVnumber
p457
VSINGULAR
p458
sg12
(lp459
sg14
NsVstartIndex
p460
I1
sVsentNum
p461
I11
sVgender
p462
VFEMALE
p463
sVposition
p464
(lp465
I11
aI1
asg21
g42
sVtype
p466
VPROPER
p467
sVid
p468
I75
sa(dp469
VendIndex
p470
I3
sVanimacy
p471
VANIMATE
p472
sg6
I00
sVtext
p473
VPhyllis Huffman
p474
sVisRepresentativeMention
p475
I00
sVnumber
p476
VSINGULAR
p477
sg12
(lp478
g322
ag323
asg14
NsVstartIndex
p479
I1
sVsentNum
p480
I13
sVgender
p481
VFEMALE
p482
sVposition
p483
(lp484
I13
aI1
asg21
g42
sVtype
p485
VPROPER
p486
sVid
p487
I89
sa(dp488
VendIndex
p489
I6
sVanimacy
p490
VANIMATE
p491
sg6
I00
sVtext
p492
VHuffman
p493
sVisRepresentativeMention
p494
I00
sVnumber
p495
VSINGULAR
p496
sg12
(lp497
g343
asg14
NsVstartIndex
p498
I5
sVsentNum
p499
I16
sVgender
p500
VMALE
p501
sVposition
p502
(lp503
I16
aI4
asg21
g22
sVtype
p504
VPROPER
p505
sVid
p506
I102
sa(dp507
VendIndex
p508
I4
sVanimacy
p509
VANIMATE
p510
sg6
I00
sVtext
p511
VHuffman
p512
sVisRepresentativeMention
p513
I00
sVnumber
p514
VSINGULAR
p515
sg12
(lp516
g343
asg14
NsVstartIndex
p517
I3
sVsentNum
p518
I18
sVgender
p519
VMALE
p520
sVposition
p521
(lp522
I18
aI1
asg21
g42
sVtype
p523
VPROPER
p524
sVid
p525
I119
sa(dp526
VendIndex
p527
I2
sVanimacy
p528
VANIMATE
p529
sg6
I00
sVtext
p530
VHuffman
p531
sVisRepresentativeMention
p532
I00
sVnumber
p533
VSINGULAR
p534
sg12
(lp535
g343
asg14
NsVstartIndex
p536
I1
sVsentNum
p537
I20
sVgender
p538
VMALE
p539
sVposition
p540
(lp541
I20
aI1
asg21
g42
sVtype
p542
VPROPER
p543
sVid
p544
I137
sa(dp545
VendIndex
p546
I3
sVanimacy
p547
VANIMATE
p548
sg6
I00
sVtext
p549
VPhyllis Huffman
p550
sVisRepresentativeMention
p551
I00
sVnumber
p552
VSINGULAR
p553
sg12
(lp554
g322
ag323
asg14
NsVstartIndex
p555
I1
sVsentNum
p556
I21
sVgender
p557
VFEMALE
p558
sVposition
p559
(lp560
I21
aI1
asg21
g42
sVtype
p561
VPROPER
p562
sVid
p563
I144
sa(dp564
VendIndex
p565
I18
sVanimacy
p566
VANIMATE
p567
sg6
I00
sVtext
p568
VChris Grennan
p569
sVisRepresentativeMention
p570
I01
sVnumber
p571
VSINGULAR
p572
sg12
(lp573
sg14
NsVstartIndex
p574
I16
sVsentNum
p575
I21
sVgender
p576
VMALE
p577
sVposition
p578
(lp579
I21
aI9
asg21
g22
sVtype
p580
VPROPER
p581
sVid
p582
I146
sa(dp583
VendIndex
p584
I12
sVanimacy
p585
VANIMATE
p586
sg6
I00
sVtext
p587
VGrace Grennan
p588
sVisRepresentativeMention
p589
I01
sVnumber
p590
VSINGULAR
p591
sg12
(lp592
sg14
NsVstartIndex
p593
I10
sVsentNum
p594
I21
sVgender
p595
VFEMALE
p596
sVposition
p597
(lp598
I21
aI6
asg21
g22
sVtype
p599
VPROPER
p600
sVid
p601
I145
sa.