(lp1
(dp2
VendIndex
p3
I2
sVanimacy
p4
VANIMATE
p5
sS'title'
p6
I00
sVtext
p7
VShe
p8
sVisRepresentativeMention
p9
I00
sVnumber
p10
VSINGULAR
p11
sS'name_type'
p12
(lp13
sS'appositive'
p14
NsVstartIndex
p15
I1
sVsentNum
p16
I2
sVgender
p17
VFEMALE
p18
sVposition
p19
(lp20
I2
aI1
asS'syntax'
p21
S'np-subj'
p22
sVtype
p23
VPRONOMINAL
p24
sVid
p25
I16
sa(dp26
VendIndex
p27
I9
sVanimacy
p28
VANIMATE
p29
sg6
I00
sVtext
p30
Vher
p31
sVisRepresentativeMention
p32
I00
sVnumber
p33
VSINGULAR
p34
sg12
(lp35
sg14
NsVstartIndex
p36
I8
sVsentNum
p37
I3
sVgender
p38
VFEMALE
p39
sVposition
p40
(lp41
I3
aI4
asg21
S'np-obj'
p42
sVtype
p43
VPRONOMINAL
p44
sVid
p45
I20
sa(dp46
VendIndex
p47
I9
sVanimacy
p48
VANIMATE
p49
sg6
I00
sVtext
p50
Vshe
p51
sVisRepresentativeMention
p52
I00
sVnumber
p53
VSINGULAR
p54
sg12
(lp55
sg14
NsVstartIndex
p56
I8
sVsentNum
p57
I6
sVgender
p58
VFEMALE
p59
sVposition
p60
(lp61
I6
aI5
asg21
g22
sVtype
p62
VPRONOMINAL
p63
sVid
p64
I44
sa(dp65
VendIndex
p66
I18
sVanimacy
p67
VANIMATE
p68
sg6
I00
sVtext
p69
Vshe
p70
sVisRepresentativeMention
p71
I00
sVnumber
p72
VSINGULAR
p73
sg12
(lp74
sg14
NsVstartIndex
p75
I17
sVsentNum
p76
I6
sVgender
p77
VFEMALE
p78
sVposition
p79
(lp80
I6
aI8
asg21
g22
sVtype
p81
VPRONOMINAL
p82
sVid
p83
I45
sa(dp84
VendIndex
p85
I8
sVanimacy
p86
VANIMATE
p87
sg6
I00
sVtext
p88
Vher
p89
sVisRepresentativeMention
p90
I00
sVnumber
p91
VSINGULAR
p92
sg12
(lp93
sg14
NsVstartIndex
p94
I7
sVsentNum
p95
I7
sVgender
p96
VFEMALE
p97
sVposition
p98
(lp99
I7
aI4
asg21
S'subj-det'
p100
sVtype
p101
VPRONOMINAL
p102
sVid
p103
I54
sa(dp104
VendIndex
p105
I21
sVanimacy
p106
VANIMATE
p107
sg6
I00
sVtext
p108
Vher
p109
sVisRepresentativeMention
p110
I00
sVnumber
p111
VSINGULAR
p112
sg12
(lp113
sg14
NsVstartIndex
p114
I20
sVsentNum
p115
I7
sVgender
p116
VFEMALE
p117
sVposition
p118
(lp119
I7
aI10
asg21
g100
sVtype
p120
VPRONOMINAL
p121
sVid
p122
I58
sa(dp123
VendIndex
p124
I2
sVanimacy
p125
VANIMATE
p126
sg6
I00
sVtext
p127
VShe
p128
sVisRepresentativeMention
p129
I00
sVnumber
p130
VSINGULAR
p131
sg12
(lp132
sg14
NsVstartIndex
p133
I1
sVsentNum
p134
I8
sVgender
p135
VFEMALE
p136
sVposition
p137
(lp138
I8
aI1
asg21
g22
sVtype
p139
VPRONOMINAL
p140
sVid
p141
I62
sa(dp142
VendIndex
p143
I9
sVanimacy
p144
VANIMATE
p145
sg6
I00
sVtext
p146
Vshe
p147
sVisRepresentativeMention
p148
I00
sVnumber
p149
VSINGULAR
p150
sg12
(lp151
sg14
NsVstartIndex
p152
I8
sVsentNum
p153
I8
sVgender
p154
VFEMALE
p155
sVposition
p156
(lp157
I8
aI3
asg21
g22
sVtype
p158
VPRONOMINAL
p159
sVid
p160
I63
sa(dp161
VendIndex
p162
I5
sVanimacy
p163
VANIMATE
p164
sg6
I00
sVtext
p165
Vshe
p166
sVisRepresentativeMention
p167
I00
sVnumber
p168
VSINGULAR
p169
sg12
(lp170
sg14
NsVstartIndex
p171
I4
sVsentNum
p172
I14
sVgender
p173
VFEMALE
p174
sVposition
p175
(lp176
I14
aI1
asg21
g22
sVtype
p177
VPRONOMINAL
p178
sVid
p179
I93
sa(dp180
VendIndex
p181
I2
sVanimacy
p182
VANIMATE
p183
sg6
I00
sVtext
p184
VHer
p185
sVisRepresentativeMention
p186
I00
sVnumber
p187
VSINGULAR
p188
sg12
(lp189
sg14
NsVstartIndex
p190
I1
sVsentNum
p191
I15
sVgender
p192
VFEMALE
p193
sVposition
p194
(lp195
I15
aI2
asg21
g100
sVtype
p196
VPRONOMINAL
p197
sVid
p198
I100
sa(dp199
VendIndex
p200
I6
sVanimacy
p201
VANIMATE
p202
sg6
I00
sVtext
p203
Vher
p204
sVisRepresentativeMention
p205
I00
sVnumber
p206
VSINGULAR
p207
sg12
(lp208
sg14
NsVstartIndex
p209
I5
sVsentNum
p210
I16
sVgender
p211
VFEMALE
p212
sVposition
p213
(lp214
I16
aI4
asg21
g100
sVtype
p215
VPRONOMINAL
p216
sVid
p217
I106
sa(dp218
VendIndex
p219
I23
sVanimacy
p220
VANIMATE
p221
sg6
I00
sVtext
p222
Vher
p223
sVisRepresentativeMention
p224
I00
sVnumber
p225
VSINGULAR
p226
sg12
(lp227
sg14
NsVstartIndex
p228
I22
sVsentNum
p229
I18
sVgender
p230
VFEMALE
p231
sVposition
p232
(lp233
I18
aI7
asg21
g100
sVtype
p234
VPRONOMINAL
p235
sVid
p236
I124
sa(dp237
VendIndex
p238
I2
sVanimacy
p239
VANIMATE
p240
sg6
I00
sVtext
p241
VShe
p242
sVisRepresentativeMention
p243
I00
sVnumber
p244
VSINGULAR
p245
sg12
(lp246
sg14
NsVstartIndex
p247
I1
sVsentNum
p248
I19
sVgender
p249
VFEMALE
p250
sVposition
p251
(lp252
I19
aI1
asg21
g22
sVtype
p253
VPRONOMINAL
p254
sVid
p255
I129
sa(dp256
VendIndex
p257
I4
sVanimacy
p258
VANIMATE
p259
sg6
I00
sVtext
p260
Vher
p261
sVisRepresentativeMention
p262
I00
sVnumber
p263
VSINGULAR
p264
sg12
(lp265
sg14
NsVstartIndex
p266
I3
sVsentNum
p267
I19
sVgender
p268
VFEMALE
p269
sVposition
p270
(lp271
I19
aI3
asg21
g100
sVtype
p272
VPRONOMINAL
p273
sVid
p274
I131
sa(dp275
VendIndex
p276
I10
sVanimacy
p277
VANIMATE
p278
sg6
I00
sVtext
p279
Vshe
p280
sVisRepresentativeMention
p281
I00
sVnumber
p282
VSINGULAR
p283
sg12
(lp284
sg14
NsVstartIndex
p285
I9
sVsentNum
p286
I19
sVgender
p287
VFEMALE
p288
sVposition
p289
(lp290
I19
aI5
asg21
g22
sVtype
p291
VPRONOMINAL
p292
sVid
p293
I132
sa(dp294
VendIndex
p295
I6
sVanimacy
p296
VANIMATE
p297
sg6
I00
sVtext
p298
Vshe
p299
sVisRepresentativeMention
p300
I00
sVnumber
p301
VSINGULAR
p302
sg12
(lp303
sg14
NsVstartIndex
p304
I5
sVsentNum
p305
I20
sVgender
p306
VFEMALE
p307
sVposition
p308
(lp309
I20
aI2
asg21
g22
sVtype
p310
VPRONOMINAL
p311
sVid
p312
I139
sa(dp313
VendIndex
p314
I10
sVanimacy
p315
VANIMATE
p316
sg6
I00
sVtext
p317
Vher
p318
sVisRepresentativeMention
p319
I00
sVnumber
p320
VSINGULAR
p321
sg12
(lp322
sg14
NsVstartIndex
p323
I9
sVsentNum
p324
I20
sVgender
p325
VFEMALE
p326
sVposition
p327
(lp328
I20
aI4
asg21
g100
sVtype
p329
VPRONOMINAL
p330
sVid
p331
I141
sa(dp332
VendIndex
p333
I2
sVanimacy
p334
VANIMATE
p335
sg6
I00
sVtext
p336
VShe
p337
sVisRepresentativeMention
p338
I00
sVnumber
p339
VSINGULAR
p340
sg12
(lp341
sg14
NsVstartIndex
p342
I1
sVsentNum
p343
I21
sVgender
p344
VFEMALE
p345
sVposition
p346
(lp347
I21
aI1
asg21
g22
sVtype
p348
VPRONOMINAL
p349
sVid
p350
I147
sa(dp351
VendIndex
p352
I7
sVanimacy
p353
VANIMATE
p354
sg6
I00
sVtext
p355
Vher
p356
sVisRepresentativeMention
p357
I00
sVnumber
p358
VSINGULAR
p359
sg12
(lp360
sg14
NsVstartIndex
p361
I6
sVsentNum
p362
I21
sVgender
p363
VFEMALE
p364
sVposition
p365
(lp366
I21
aI5
asg21
g100
sVtype
p367
VPRONOMINAL
p368
sVid
p369
I151
sa(dp370
VendIndex
p371
I13
sVanimacy
p372
VANIMATE
p373
sg6
I00
sVtext
p374
VDavid Huffman
p375
sVisRepresentativeMention
p376
I00
sVnumber
p377
VSINGULAR
p378
sg12
(lp379
sg14
NsVstartIndex
p380
I11
sVsentNum
p381
I7
sVgender
p382
VMALE
p383
sVposition
p384
(lp385
I7
aI5
asg21
g100
sVtype
p386
VPROPER
p387
sVid
p388
I48
sa(dp389
VendIndex
p390
I3
sVanimacy
p391
VANIMATE
p392
sg6
I00
sVtext
p393
VPhyllis Huffman
p394
sVisRepresentativeMention
p395
I01
sVnumber
p396
VSINGULAR
p397
sg12
(lp398
S'foaf_names'
p399
aS'dbp_names'
p400
asg14
NsVstartIndex
p401
I1
sVsentNum
p402
I1
sVgender
p403
VFEMALE
p404
sVposition
p405
(lp406
I1
aI1
asg21
g22
sVtype
p407
VPROPER
p408
sVid
p409
I1
sa(dp410
VendIndex
p411
I6
sVanimacy
p412
VANIMATE
p413
sg6
I00
sVtext
p414
VPhyllis
p415
sVisRepresentativeMention
p416
I00
sVnumber
p417
VSINGULAR
p418
sg12
(lp419
S'givenNames'
p420
asg14
NsVstartIndex
p421
I5
sVsentNum
p422
I4
sVgender
p423
VFEMALE
p424
sVposition
p425
(lp426
I4
aI2
asg21
g42
sVtype
p427
VPROPER
p428
sVid
p429
I26
sa(dp430
VendIndex
p431
I19
sVanimacy
p432
VANIMATE
p433
sg6
I00
sVtext
p434
VPhyllis
p435
sVisRepresentativeMention
p436
I00
sVnumber
p437
VSINGULAR
p438
sg12
(lp439
g420
asg14
NsVstartIndex
p440
I18
sVsentNum
p441
I7
sVgender
p442
VFEMALE
p443
sVposition
p444
(lp445
I7
aI8
asg21
g22
sVtype
p446
VPROPER
p447
sVid
p448
I49
sa(dp449
VendIndex
p450
I9
sVanimacy
p451
VANIMATE
p452
sg6
I00
sVtext
p453
VPhyllis
p454
sVisRepresentativeMention
p455
I00
sVnumber
p456
VSINGULAR
p457
sg12
(lp458
g420
asg14
NsVstartIndex
p459
I8
sVsentNum
p460
I9
sVgender
p461
VFEMALE
p462
sVposition
p463
(lp464
I9
aI3
asg21
g22
sVtype
p465
VPROPER
p466
sVid
p467
I67
sa(dp468
VendIndex
p469
I2
sVanimacy
p470
VANIMATE
p471
sg6
I00
sVtext
p472
VPhyllis
p473
sVisRepresentativeMention
p474
I00
sVnumber
p475
VSINGULAR
p476
sg12
(lp477
g420
asg14
NsVstartIndex
p478
I1
sVsentNum
p479
I13
sVgender
p480
VFEMALE
p481
sVposition
p482
(lp483
I13
aI1
asg21
g22
sVtype
p484
VPROPER
p485
sVid
p486
I88
sa(dp487
VendIndex
p488
I2
sVanimacy
p489
VANIMATE
p490
sg6
I00
sVtext
p491
VPhyllis
p492
sVisRepresentativeMention
p493
I00
sVnumber
p494
VSINGULAR
p495
sg12
(lp496
g420
asg14
NsVstartIndex
p497
I1
sVsentNum
p498
I20
sVgender
p499
VFEMALE
p500
sVposition
p501
(lp502
I20
aI1
asg21
g22
sVtype
p503
VPROPER
p504
sVid
p505
I137
sa(dp506
VendIndex
p507
I11
sVanimacy
p508
VANIMATE
p509
sg6
I00
sVtext
p510
VGrace Grennan
p511
sVisRepresentativeMention
p512
I01
sVnumber
p513
VSINGULAR
p514
sg12
(lp515
sg14
NsVstartIndex
p516
I9
sVsentNum
p517
I21
sVgender
p518
VFEMALE
p519
sVposition
p520
(lp521
I21
aI6
asg21
g100
sVtype
p522
VPROPER
p523
sVid
p524
I144
sa(dp525
VendIndex
p526
I17
sVanimacy
p527
VANIMATE
p528
sg6
I00
sVtext
p529
VChris Grennan
p530
sVisRepresentativeMention
p531
I01
sVnumber
p532
VSINGULAR
p533
sg12
(lp534
sg14
NsVstartIndex
p535
I15
sVsentNum
p536
I21
sVgender
p537
VMALE
p538
sVposition
p539
(lp540
I21
aI9
asg21
g100
sVtype
p541
VPROPER
p542
sVid
p543
I145
sa.