(lp1
(dp2
VendIndex
p3
I8
sVanimacy
p4
VANIMATE
p5
sS'title'
p6
I00
sVtext
p7
Vher
p8
sVisRepresentativeMention
p9
I00
sVnumber
p10
VSINGULAR
p11
sS'name_type'
p12
(lp13
sS'appositive'
p14
NsVstartIndex
p15
I7
sVsentNum
p16
I7
sVgender
p17
VFEMALE
p18
sVposition
p19
(lp20
I7
aI4
asS'syntax'
p21
S'subj-det'
p22
sVtype
p23
VPRONOMINAL
p24
sVid
p25
I52
sa(dp26
VendIndex
p27
I21
sVanimacy
p28
VANIMATE
p29
sg6
I00
sVtext
p30
Vher
p31
sVisRepresentativeMention
p32
I00
sVnumber
p33
VSINGULAR
p34
sg12
(lp35
sg14
NsVstartIndex
p36
I20
sVsentNum
p37
I7
sVgender
p38
VFEMALE
p39
sVposition
p40
(lp41
I7
aI10
asg21
g22
sVtype
p42
VPRONOMINAL
p43
sVid
p44
I56
sa(dp45
VendIndex
p46
I2
sVanimacy
p47
VANIMATE
p48
sg6
I00
sVtext
p49
VShe
p50
sVisRepresentativeMention
p51
I00
sVnumber
p52
VSINGULAR
p53
sg12
(lp54
sg14
NsVstartIndex
p55
I1
sVsentNum
p56
I8
sVgender
p57
VFEMALE
p58
sVposition
p59
(lp60
I8
aI1
asg21
S'np-subj'
p61
sVtype
p62
VPRONOMINAL
p63
sVid
p64
I60
sa(dp65
VendIndex
p66
I10
sVanimacy
p67
VANIMATE
p68
sg6
I00
sVtext
p69
Vshe
p70
sVisRepresentativeMention
p71
I00
sVnumber
p72
VSINGULAR
p73
sg12
(lp74
sg14
NsVstartIndex
p75
I9
sVsentNum
p76
I8
sVgender
p77
VFEMALE
p78
sVposition
p79
(lp80
I8
aI3
asg21
g61
sVtype
p81
VPRONOMINAL
p82
sVid
p83
I61
sa(dp84
VendIndex
p85
I2
sVanimacy
p86
VANIMATE
p87
sg6
I00
sVtext
p88
VHuffman
p89
sVisRepresentativeMention
p90
I00
sVnumber
p91
VSINGULAR
p92
sg12
(lp93
S'surnames'
p94
asg14
NsVstartIndex
p95
I1
sVsentNum
p96
I2
sVgender
p97
VMALE
p98
sVposition
p99
(lp100
I2
aI1
asg21
g61
sVtype
p101
VPROPER
p102
sVid
p103
I16
sa(dp104
VendIndex
p105
I9
sVanimacy
p106
VANIMATE
p107
sg6
I00
sVtext
p108
VHuffman
p109
sVisRepresentativeMention
p110
I00
sVnumber
p111
VSINGULAR
p112
sg12
(lp113
g94
asg14
NsVstartIndex
p114
I8
sVsentNum
p115
I3
sVgender
p116
VMALE
p117
sVposition
p118
(lp119
I3
aI4
asg21
S'np-obj'
p120
sVtype
p121
VPROPER
p122
sVid
p123
I19
sa(dp124
VendIndex
p125
I13
sVanimacy
p126
VANIMATE
p127
sg6
I00
sVtext
p128
VDavid Huffman
p129
sVisRepresentativeMention
p130
I00
sVnumber
p131
VSINGULAR
p132
sg12
(lp133
sg14
NsVstartIndex
p134
I11
sVsentNum
p135
I7
sVgender
p136
VMALE
p137
sVposition
p138
(lp139
I7
aI5
asg21
g22
sVtype
p140
VPROPER
p141
sVid
p142
I46
sa(dp143
VendIndex
p144
I19
sVanimacy
p145
VANIMATE
p146
sg6
I00
sVtext
p147
VHuffman
p148
sVisRepresentativeMention
p149
I00
sVnumber
p150
VSINGULAR
p151
sg12
(lp152
g94
asg14
NsVstartIndex
p153
I18
sVsentNum
p154
I7
sVgender
p155
VMALE
p156
sVposition
p157
(lp158
I7
aI8
asg21
g61
sVtype
p159
VPROPER
p160
sVid
p161
I47
sa(dp162
VendIndex
p163
I9
sVanimacy
p164
VANIMATE
p165
sg6
I00
sVtext
p166
VHuffman
p167
sVisRepresentativeMention
p168
I00
sVnumber
p169
VSINGULAR
p170
sg12
(lp171
g94
asg14
NsVstartIndex
p172
I8
sVsentNum
p173
I9
sVgender
p174
VMALE
p175
sVposition
p176
(lp177
I9
aI3
asg21
g61
sVtype
p178
VPROPER
p179
sVid
p180
I65
sa(dp181
VendIndex
p182
I2
sVanimacy
p183
VANIMATE
p184
sg6
I00
sVtext
p185
VHuffman
p186
sVisRepresentativeMention
p187
I00
sVnumber
p188
VSINGULAR
p189
sg12
(lp190
g94
asg14
NsVstartIndex
p191
I1
sVsentNum
p192
I13
sVgender
p193
VMALE
p194
sVposition
p195
(lp196
I13
aI1
asg21
g61
sVtype
p197
VPROPER
p198
sVid
p199
I86
sa(dp200
VendIndex
p201
I2
sVanimacy
p202
VANIMATE
p203
sg6
I00
sVtext
p204
VHuffman
p205
sVisRepresentativeMention
p206
I00
sVnumber
p207
VSINGULAR
p208
sg12
(lp209
g94
asg14
NsVstartIndex
p210
I1
sVsentNum
p211
I19
sVgender
p212
VMALE
p213
sVposition
p214
(lp215
I19
aI1
asg21
g61
sVtype
p216
VPROPER
p217
sVid
p218
I125
sa(dp219
VendIndex
p220
I2
sVanimacy
p221
VANIMATE
p222
sg6
I00
sVtext
p223
VHuffman
p224
sVisRepresentativeMention
p225
I00
sVnumber
p226
VSINGULAR
p227
sg12
(lp228
g94
asg14
NsVstartIndex
p229
I1
sVsentNum
p230
I20
sVgender
p231
VMALE
p232
sVposition
p233
(lp234
I20
aI1
asg21
g61
sVtype
p235
VPROPER
p236
sVid
p237
I136
sa(dp238
VendIndex
p239
I2
sVanimacy
p240
VANIMATE
p241
sg6
I00
sVtext
p242
VHuffman
p243
sVisRepresentativeMention
p244
I00
sVnumber
p245
VSINGULAR
p246
sg12
(lp247
g94
asg14
NsVstartIndex
p248
I1
sVsentNum
p249
I21
sVgender
p250
VMALE
p251
sVposition
p252
(lp253
I21
aI1
asg21
g61
sVtype
p254
VPROPER
p255
sVid
p256
I143
sa(dp257
VendIndex
p258
I3
sVanimacy
p259
VANIMATE
p260
sg6
I00
sVtext
p261
VPhyllis Huffman
p262
sVisRepresentativeMention
p263
I01
sVnumber
p264
VSINGULAR
p265
sg12
(lp266
S'foaf_names'
p267
aS'dbp_names'
p268
asg14
NsVstartIndex
p269
I1
sVsentNum
p270
I1
sVgender
p271
VFEMALE
p272
sVposition
p273
(lp274
I1
aI1
asg21
g61
sVtype
p275
VPROPER
p276
sVid
p277
I1
sa(dp278
VendIndex
p279
I6
sVanimacy
p280
VANIMATE
p281
sg6
I00
sVtext
p282
VPhyllis
p283
sVisRepresentativeMention
p284
I00
sVnumber
p285
VSINGULAR
p286
sg12
(lp287
S'givenNames'
p288
asg14
NsVstartIndex
p289
I5
sVsentNum
p290
I4
sVgender
p291
VFEMALE
p292
sVposition
p293
(lp294
I4
aI2
asg21
g120
sVtype
p295
VPROPER
p296
sVid
p297
I27
sa(dp298
VendIndex
p299
I11
sVanimacy
p300
VANIMATE
p301
sg6
I00
sVtext
p302
VGrace Grennan
p303
sVisRepresentativeMention
p304
I01
sVnumber
p305
VSINGULAR
p306
sg12
(lp307
sg14
NsVstartIndex
p308
I9
sVsentNum
p309
I21
sVgender
p310
VFEMALE
p311
sVposition
p312
(lp313
I21
aI6
asg21
g22
sVtype
p314
VPROPER
p315
sVid
p316
I144
sa(dp317
VendIndex
p318
I17
sVanimacy
p319
VANIMATE
p320
sg6
I00
sVtext
p321
VChris Grennan
p322
sVisRepresentativeMention
p323
I01
sVnumber
p324
VSINGULAR
p325
sg12
(lp326
sg14
NsVstartIndex
p327
I15
sVsentNum
p328
I21
sVgender
p329
VMALE
p330
sVposition
p331
(lp332
I21
aI9
asg21
g22
sVtype
p333
VPROPER
p334
sVid
p335
I145
sa.