(lp1
(dp2
VendIndex
p3
I2
sVanimacy
p4
VINANIMATE
p5
sS'title'
p6
I00
sVtext
p7
VIt
p8
sVisRepresentativeMention
p9
I00
sVnumber
p10
VSINGULAR
p11
sS'name_type'
p12
(lp13
sS'appositive'
p14
NsVstartIndex
p15
I1
sVsentNum
p16
I10
sVgender
p17
VNEUTRAL
p18
sVposition
p19
(lp20
I10
aI1
asS'syntax'
p21
S'np-subj'
p22
sVtype
p23
VPRONOMINAL
p24
sVid
p25
I70
sa(dp26
VendIndex
p27
I19
sVanimacy
p28
VANIMATE
p29
sg6
I00
sVtext
p30
Vshe
p31
sVisRepresentativeMention
p32
I00
sVnumber
p33
VSINGULAR
p34
sg12
(lp35
sg14
NsVstartIndex
p36
I18
sVsentNum
p37
I6
sVgender
p38
VFEMALE
p39
sVposition
p40
(lp41
I6
aI6
asg21
g22
sVtype
p42
VPRONOMINAL
p43
sVid
p44
I45
sa(dp45
VendIndex
p46
I8
sVanimacy
p47
VANIMATE
p48
sg6
I00
sVtext
p49
Vher
p50
sVisRepresentativeMention
p51
I00
sVnumber
p52
VSINGULAR
p53
sg12
(lp54
sg14
NsVstartIndex
p55
I7
sVsentNum
p56
I7
sVgender
p57
VFEMALE
p58
sVposition
p59
(lp60
I7
aI4
asg21
S'subj-det'
p61
sVtype
p62
VPRONOMINAL
p63
sVid
p64
I54
sa(dp65
VendIndex
p66
I22
sVanimacy
p67
VANIMATE
p68
sg6
I00
sVtext
p69
Vher
p70
sVisRepresentativeMention
p71
I00
sVnumber
p72
VSINGULAR
p73
sg12
(lp74
sg14
NsVstartIndex
p75
I21
sVsentNum
p76
I7
sVgender
p77
VFEMALE
p78
sVposition
p79
(lp80
I7
aI10
asg21
g61
sVtype
p81
VPRONOMINAL
p82
sVid
p83
I58
sa(dp84
VendIndex
p85
I9
sVanimacy
p86
VANIMATE
p87
sg6
I00
sVtext
p88
Vshe
p89
sVisRepresentativeMention
p90
I00
sVnumber
p91
VSINGULAR
p92
sg12
(lp93
sg14
NsVstartIndex
p94
I8
sVsentNum
p95
I8
sVgender
p96
VFEMALE
p97
sVposition
p98
(lp99
I8
aI3
asg21
g22
sVtype
p100
VPRONOMINAL
p101
sVid
p102
I63
sa(dp103
VendIndex
p104
I4
sVanimacy
p105
VANIMATE
p106
sg6
I00
sVtext
p107
Vshe
p108
sVisRepresentativeMention
p109
I00
sVnumber
p110
VSINGULAR
p111
sg12
(lp112
sg14
NsVstartIndex
p113
I3
sVsentNum
p114
I12
sVgender
p115
VFEMALE
p116
sVposition
p117
(lp118
I12
aI2
asg21
g22
sVtype
p119
VPRONOMINAL
p120
sVid
p121
I80
sa(dp122
VendIndex
p123
I6
sVanimacy
p124
VANIMATE
p125
sg6
I00
sVtext
p126
Vher
p127
sVisRepresentativeMention
p128
I00
sVnumber
p129
VSINGULAR
p130
sg12
(lp131
sg14
NsVstartIndex
p132
I5
sVsentNum
p133
I16
sVgender
p134
VFEMALE
p135
sVposition
p136
(lp137
I16
aI4
asg21
g61
sVtype
p138
VPRONOMINAL
p139
sVid
p140
I105
sa(dp141
VendIndex
p142
I26
sVanimacy
p143
VANIMATE
p144
sg6
I00
sVtext
p145
Vher
p146
sVisRepresentativeMention
p147
I00
sVnumber
p148
VSINGULAR
p149
sg12
(lp150
sg14
NsVstartIndex
p151
I25
sVsentNum
p152
I18
sVgender
p153
VFEMALE
p154
sVposition
p155
(lp156
I18
aI8
asg21
g61
sVtype
p157
VPRONOMINAL
p158
sVid
p159
I124
sa(dp160
VendIndex
p161
I5
sVanimacy
p162
VANIMATE
p163
sg6
I00
sVtext
p164
Vher
p165
sVisRepresentativeMention
p166
I00
sVnumber
p167
VSINGULAR
p168
sg12
(lp169
sg14
NsVstartIndex
p170
I4
sVsentNum
p171
I19
sVgender
p172
VFEMALE
p173
sVposition
p174
(lp175
I19
aI3
asg21
g61
sVtype
p176
VPRONOMINAL
p177
sVid
p178
I131
sa(dp179
VendIndex
p180
I11
sVanimacy
p181
VANIMATE
p182
sg6
I00
sVtext
p183
Vshe
p184
sVisRepresentativeMention
p185
I00
sVnumber
p186
VSINGULAR
p187
sg12
(lp188
sg14
NsVstartIndex
p189
I10
sVsentNum
p190
I19
sVgender
p191
VFEMALE
p192
sVposition
p193
(lp194
I19
aI5
asg21
g22
sVtype
p195
VPRONOMINAL
p196
sVid
p197
I132
sa(dp198
VendIndex
p199
I7
sVanimacy
p200
VANIMATE
p201
sg6
I00
sVtext
p202
Vshe
p203
sVisRepresentativeMention
p204
I00
sVnumber
p205
VSINGULAR
p206
sg12
(lp207
sg14
NsVstartIndex
p208
I6
sVsentNum
p209
I20
sVgender
p210
VFEMALE
p211
sVposition
p212
(lp213
I20
aI2
asg21
g22
sVtype
p214
VPRONOMINAL
p215
sVid
p216
I139
sa(dp217
VendIndex
p218
I11
sVanimacy
p219
VANIMATE
p220
sg6
I00
sVtext
p221
Vher
p222
sVisRepresentativeMention
p223
I00
sVnumber
p224
VSINGULAR
p225
sg12
(lp226
sg14
NsVstartIndex
p227
I10
sVsentNum
p228
I20
sVgender
p229
VFEMALE
p230
sVposition
p231
(lp232
I20
aI4
asg21
g61
sVtype
p233
VPRONOMINAL
p234
sVid
p235
I141
sa(dp236
VendIndex
p237
I2
sVanimacy
p238
VANIMATE
p239
sg6
I00
sVtext
p240
VShe
p241
sVisRepresentativeMention
p242
I00
sVnumber
p243
VSINGULAR
p244
sg12
(lp245
sg14
NsVstartIndex
p246
I1
sVsentNum
p247
I21
sVgender
p248
VFEMALE
p249
sVposition
p250
(lp251
I21
aI1
asg21
g22
sVtype
p252
VPRONOMINAL
p253
sVid
p254
I147
sa(dp255
VendIndex
p256
I7
sVanimacy
p257
VANIMATE
p258
sg6
I00
sVtext
p259
Vher
p260
sVisRepresentativeMention
p261
I00
sVnumber
p262
VSINGULAR
p263
sg12
(lp264
sg14
NsVstartIndex
p265
I6
sVsentNum
p266
I21
sVgender
p267
VFEMALE
p268
sVposition
p269
(lp270
I21
aI5
asg21
g61
sVtype
p271
VPRONOMINAL
p272
sVid
p273
I151
sa(dp274
VendIndex
p275
I13
sVanimacy
p276
VANIMATE
p277
sg6
I00
sVtext
p278
VDavid Huffman
p279
sVisRepresentativeMention
p280
I00
sVnumber
p281
VSINGULAR
p282
sg12
(lp283
sg14
NsVstartIndex
p284
I11
sVsentNum
p285
I7
sVgender
p286
VMALE
p287
sVposition
p288
(lp289
I7
aI5
asg21
g61
sVtype
p290
VPROPER
p291
sVid
p292
I48
sa(dp293
VendIndex
p294
I2
sVanimacy
p295
VANIMATE
p296
sg6
I00
sVtext
p297
VHuffman
p298
sVisRepresentativeMention
p299
I00
sVnumber
p300
VSINGULAR
p301
sg12
(lp302
S'surnames'
p303
asg14
NsVstartIndex
p304
I1
sVsentNum
p305
I8
sVgender
p306
VMALE
p307
sVposition
p308
(lp309
I8
aI1
asg21
g22
sVtype
p310
VPROPER
p311
sVid
p312
I60
sa(dp313
VendIndex
p314
I5
sVanimacy
p315
VANIMATE
p316
sg6
I00
sVtext
p317
VHuffman
p318
sVisRepresentativeMention
p319
I00
sVnumber
p320
VSINGULAR
p321
sg12
(lp322
g303
asg14
NsVstartIndex
p323
I4
sVsentNum
p324
I14
sVgender
p325
VMALE
p326
sVposition
p327
(lp328
I14
aI1
asg21
g22
sVtype
p329
VPROPER
p330
sVid
p331
I91
sa(dp332
VendIndex
p333
I10
sVanimacy
p334
VANIMATE
p335
sg6
I00
sVtext
p336
Vthe Bronx, N.Y.,  Phyllis Huffman
p337
sVisRepresentativeMention
p338
I01
sVnumber
p339
VSINGULAR
p340
sg12
(lp341
sg14
NsVstartIndex
p342
I3
sVsentNum
p343
I6
sVgender
p344
VFEMALE
p345
sVposition
p346
(lp347
I6
aI1
asg21
g61
sVtype
p348
VPROPER
p349
sVid
p350
I44
sa(dp351
VendIndex
p352
I3
sVanimacy
p353
VANIMATE
p354
sg6
I00
sVtext
p355
VPhyllis Huffman
p356
sVisRepresentativeMention
p357
I00
sVnumber
p358
VSINGULAR
p359
sg12
(lp360
S'foaf_names'
p361
aS'dbp_names'
p362
asg14
NsVstartIndex
p363
I1
sVsentNum
p364
I1
sVgender
p365
VFEMALE
p366
sVposition
p367
(lp368
I1
aI1
asg21
g22
sVtype
p369
VPROPER
p370
sVid
p371
I1
sa(dp372
VendIndex
p373
I3
sVanimacy
p374
VANIMATE
p375
sg6
I00
sVtext
p376
VPhyllis Huffman
p377
sVisRepresentativeMention
p378
I00
sVnumber
p379
VSINGULAR
p380
sg12
(lp381
g361
ag362
asg14
NsVstartIndex
p382
I1
sVsentNum
p383
I2
sVgender
p384
VFEMALE
p385
sVposition
p386
(lp387
I2
aI1
asg21
g22
sVtype
p388
VPROPER
p389
sVid
p390
I17
sa(dp391
VendIndex
p392
I10
sVanimacy
p393
VANIMATE
p394
sg6
I00
sVtext
p395
VPhyllis Huffman
p396
sVisRepresentativeMention
p397
I00
sVnumber
p398
VSINGULAR
p399
sg12
(lp400
g361
ag362
asg14
NsVstartIndex
p401
I8
sVsentNum
p402
I3
sVgender
p403
VFEMALE
p404
sVposition
p405
(lp406
I3
aI4
asg21
S'np-obj'
p407
sVtype
p408
VPROPER
p409
sVid
p410
I20
sa(dp411
VendIndex
p412
I6
sVanimacy
p413
VANIMATE
p414
sg6
I00
sVtext
p415
VPhyllis
p416
sVisRepresentativeMention
p417
I00
sVnumber
p418
VSINGULAR
p419
sg12
(lp420
S'givenNames'
p421
asg14
NsVstartIndex
p422
I5
sVsentNum
p423
I4
sVgender
p424
VFEMALE
p425
sVposition
p426
(lp427
I4
aI2
asg21
g407
sVtype
p428
VPROPER
p429
sVid
p430
I28
sa(dp431
VendIndex
p432
I20
sVanimacy
p433
VANIMATE
p434
sg6
I00
sVtext
p435
VPhyllis Huffman
p436
sVisRepresentativeMention
p437
I00
sVnumber
p438
VSINGULAR
p439
sg12
(lp440
g361
ag362
asg14
NsVstartIndex
p441
I18
sVsentNum
p442
I7
sVgender
p443
VFEMALE
p444
sVposition
p445
(lp446
I7
aI8
asg21
g22
sVtype
p447
VPROPER
p448
sVid
p449
I49
sa(dp450
VendIndex
p451
I6
sVanimacy
p452
VANIMATE
p453
sg6
I00
sVtext
p454
VThe first film  Phyllis Huffman
p455
sVisRepresentativeMention
p456
I01
sVnumber
p457
VSINGULAR
p458
sg12
(lp459
sg14
NsVstartIndex
p460
I1
sVsentNum
p461
I11
sVgender
p462
VFEMALE
p463
sVposition
p464
(lp465
I11
aI1
asg21
g22
sVtype
p466
VPROPER
p467
sVid
p468
I73
sa(dp469
VendIndex
p470
I3
sVanimacy
p471
VANIMATE
p472
sg6
I00
sVtext
p473
VPhyllis Huffman
p474
sVisRepresentativeMention
p475
I00
sVnumber
p476
VSINGULAR
p477
sg12
(lp478
g361
ag362
asg14
NsVstartIndex
p479
I1
sVsentNum
p480
I13
sVgender
p481
VFEMALE
p482
sVposition
p483
(lp484
I13
aI1
asg21
g22
sVtype
p485
VPROPER
p486
sVid
p487
I87
sa(dp488
VendIndex
p489
I3
sVanimacy
p490
VANIMATE
p491
sg6
I00
sVtext
p492
VPhyllis Huffman
p493
sVisRepresentativeMention
p494
I00
sVnumber
p495
VSINGULAR
p496
sg12
(lp497
g361
ag362
asg14
NsVstartIndex
p498
I1
sVsentNum
p499
I15
sVgender
p500
VFEMALE
p501
sVposition
p502
(lp503
I15
aI2
asg21
g61
sVtype
p504
VPROPER
p505
sVid
p506
I97
sa(dp507
VendIndex
p508
I3
sVanimacy
p509
VANIMATE
p510
sg6
I00
sVtext
p511
VPhyllis Huffman
p512
sVisRepresentativeMention
p513
I00
sVnumber
p514
VSINGULAR
p515
sg12
(lp516
g361
ag362
asg14
NsVstartIndex
p517
I1
sVsentNum
p518
I18
sVgender
p519
VFEMALE
p520
sVposition
p521
(lp522
I18
aI1
asg21
g22
sVtype
p523
VPROPER
p524
sVid
p525
I117
sa(dp526
VendIndex
p527
I3
sVanimacy
p528
VANIMATE
p529
sg6
I00
sVtext
p530
VPhyllis Huffman
p531
sVisRepresentativeMention
p532
I00
sVnumber
p533
VSINGULAR
p534
sg12
(lp535
g361
ag362
asg14
NsVstartIndex
p536
I1
sVsentNum
p537
I19
sVgender
p538
VFEMALE
p539
sVposition
p540
(lp541
I19
aI1
asg21
g22
sVtype
p542
VPROPER
p543
sVid
p544
I125
sa(dp545
VendIndex
p546
I3
sVanimacy
p547
VANIMATE
p548
sg6
I00
sVtext
p549
VPhyllis Huffman
p550
sVisRepresentativeMention
p551
I00
sVnumber
p552
VSINGULAR
p553
sg12
(lp554
g361
ag362
asg14
NsVstartIndex
p555
I1
sVsentNum
p556
I20
sVgender
p557
VFEMALE
p558
sVposition
p559
(lp560
I20
aI1
asg21
g22
sVtype
p561
VPROPER
p562
sVid
p563
I137
sa(dp564
VendIndex
p565
I11
sVanimacy
p566
VANIMATE
p567
sg6
I00
sVtext
p568
VGrace Grennan
p569
sVisRepresentativeMention
p570
I01
sVnumber
p571
VSINGULAR
p572
sg12
(lp573
sg14
NsVstartIndex
p574
I9
sVsentNum
p575
I21
sVgender
p576
VFEMALE
p577
sVposition
p578
(lp579
I21
aI6
asg21
g61
sVtype
p580
VPROPER
p581
sVid
p582
I144
sa(dp583
VendIndex
p584
I17
sVanimacy
p585
VANIMATE
p586
sg6
I00
sVtext
p587
VChris Grennan
p588
sVisRepresentativeMention
p589
I01
sVnumber
p590
VSINGULAR
p591
sg12
(lp592
sg14
NsVstartIndex
p593
I15
sVsentNum
p594
I21
sVgender
p595
VMALE
p596
sVposition
p597
(lp598
I21
aI9
asg21
g61
sVtype
p599
VPROPER
p600
sVid
p601
I145
sa.