(lp1
(dp2
VendIndex
p3
I2
sVanimacy
p4
VANIMATE
p5
sS'title'
p6
I00
sVtext
p7
Vshe
p8
sVisRepresentativeMention
p9
I00
sVnumber
p10
VSINGULAR
p11
sS'name_type'
p12
(lp13
sS'appositive'
p14
NsVstartIndex
p15
I1
sVsentNum
p16
I2
sVgender
p17
VFEMALE
p18
sVposition
p19
(lp20
I2
aI1
asS'syntax'
p21
S'np-subj'
p22
sVtype
p23
VPRONOMINAL
p24
sVid
p25
I17
sa(dp26
VendIndex
p27
I9
sVanimacy
p28
VANIMATE
p29
sg6
I00
sVtext
p30
Vshe
p31
sVisRepresentativeMention
p32
I00
sVnumber
p33
VSINGULAR
p34
sg12
(lp35
sg14
NsVstartIndex
p36
I8
sVsentNum
p37
I6
sVgender
p38
VFEMALE
p39
sVposition
p40
(lp41
I6
aI4
asg21
g22
sVtype
p42
VPRONOMINAL
p43
sVid
p44
I43
sa(dp45
VendIndex
p46
I8
sVanimacy
p47
VANIMATE
p48
sg6
I00
sVtext
p49
Vher
p50
sVisRepresentativeMention
p51
I00
sVnumber
p52
VSINGULAR
p53
sg12
(lp54
sg14
NsVstartIndex
p55
I7
sVsentNum
p56
I7
sVgender
p57
VFEMALE
p58
sVposition
p59
(lp60
I7
aI4
asg21
S'subj-det'
p61
sVtype
p62
VPRONOMINAL
p63
sVid
p64
I52
sa(dp65
VendIndex
p66
I19
sVanimacy
p67
VANIMATE
p68
sg6
I00
sVtext
p69
Vshe
p70
sVisRepresentativeMention
p71
I00
sVnumber
p72
VSINGULAR
p73
sg12
(lp74
sg14
NsVstartIndex
p75
I18
sVsentNum
p76
I7
sVgender
p77
VFEMALE
p78
sVposition
p79
(lp80
I7
aI8
asg21
g22
sVtype
p81
VPRONOMINAL
p82
sVid
p83
I55
sa(dp84
VendIndex
p85
I21
sVanimacy
p86
VANIMATE
p87
sg6
I00
sVtext
p88
Vher
p89
sVisRepresentativeMention
p90
I00
sVnumber
p91
VSINGULAR
p92
sg12
(lp93
sg14
NsVstartIndex
p94
I20
sVsentNum
p95
I7
sVgender
p96
VFEMALE
p97
sVposition
p98
(lp99
I7
aI10
asg21
g61
sVtype
p100
VPRONOMINAL
p101
sVid
p102
I57
sa(dp103
VendIndex
p104
I10
sVanimacy
p105
VANIMATE
p106
sg6
I00
sVtext
p107
Vshe
p108
sVisRepresentativeMention
p109
I00
sVnumber
p110
VSINGULAR
p111
sg12
(lp112
sg14
NsVstartIndex
p113
I9
sVsentNum
p114
I8
sVgender
p115
VFEMALE
p116
sVposition
p117
(lp118
I8
aI3
asg21
g22
sVtype
p119
VPRONOMINAL
p120
sVid
p121
I62
sa(dp122
VendIndex
p123
I5
sVanimacy
p124
VANIMATE
p125
sg6
I00
sVtext
p126
Vshe
p127
sVisRepresentativeMention
p128
I00
sVnumber
p129
VSINGULAR
p130
sg12
(lp131
sg14
NsVstartIndex
p132
I4
sVsentNum
p133
I14
sVgender
p134
VFEMALE
p135
sVposition
p136
(lp137
I14
aI1
asg21
g22
sVtype
p138
VPRONOMINAL
p139
sVid
p140
I92
sa(dp141
VendIndex
p142
I2
sVanimacy
p143
VANIMATE
p144
sg6
I00
sVtext
p145
Vher
p146
sVisRepresentativeMention
p147
I00
sVnumber
p148
VSINGULAR
p149
sg12
(lp150
sg14
NsVstartIndex
p151
I1
sVsentNum
p152
I15
sVgender
p153
VFEMALE
p154
sVposition
p155
(lp156
I15
aI2
asg21
g61
sVtype
p157
VPRONOMINAL
p158
sVid
p159
I99
sa(dp160
VendIndex
p161
I6
sVanimacy
p162
VANIMATE
p163
sg6
I00
sVtext
p164
Vher
p165
sVisRepresentativeMention
p166
I00
sVnumber
p167
VSINGULAR
p168
sg12
(lp169
sg14
NsVstartIndex
p170
I5
sVsentNum
p171
I16
sVgender
p172
VFEMALE
p173
sVposition
p174
(lp175
I16
aI4
asg21
g61
sVtype
p176
VPRONOMINAL
p177
sVid
p178
I105
sa(dp179
VendIndex
p180
I4
sVanimacy
p181
VANIMATE
p182
sg6
I00
sVtext
p183
Vshe
p184
sVisRepresentativeMention
p185
I00
sVnumber
p186
VSINGULAR
p187
sg12
(lp188
sg14
NsVstartIndex
p189
I3
sVsentNum
p190
I18
sVgender
p191
VFEMALE
p192
sVposition
p193
(lp194
I18
aI1
asg21
g22
sVtype
p195
VPRONOMINAL
p196
sVid
p197
I118
sa(dp198
VendIndex
p199
I22
sVanimacy
p200
VANIMATE
p201
sg6
I00
sVtext
p202
Vher
p203
sVisRepresentativeMention
p204
I00
sVnumber
p205
VSINGULAR
p206
sg12
(lp207
sg14
NsVstartIndex
p208
I21
sVsentNum
p209
I18
sVgender
p210
VFEMALE
p211
sVposition
p212
(lp213
I18
aI6
asg21
g61
sVtype
p214
VPRONOMINAL
p215
sVid
p216
I122
sa(dp217
VendIndex
p218
I2
sVanimacy
p219
VANIMATE
p220
sg6
I00
sVtext
p221
Vshe
p222
sVisRepresentativeMention
p223
I00
sVnumber
p224
VSINGULAR
p225
sg12
(lp226
sg14
NsVstartIndex
p227
I1
sVsentNum
p228
I19
sVgender
p229
VFEMALE
p230
sVposition
p231
(lp232
I19
aI1
asg21
g22
sVtype
p233
VPRONOMINAL
p234
sVid
p235
I127
sa(dp236
VendIndex
p237
I4
sVanimacy
p238
VANIMATE
p239
sg6
I00
sVtext
p240
Vher
p241
sVisRepresentativeMention
p242
I00
sVnumber
p243
VSINGULAR
p244
sg12
(lp245
sg14
NsVstartIndex
p246
I3
sVsentNum
p247
I19
sVgender
p248
VFEMALE
p249
sVposition
p250
(lp251
I19
aI3
asg21
g61
sVtype
p252
VPRONOMINAL
p253
sVid
p254
I129
sa(dp255
VendIndex
p256
I6
sVanimacy
p257
VANIMATE
p258
sg6
I00
sVtext
p259
Vshe
p260
sVisRepresentativeMention
p261
I00
sVnumber
p262
VSINGULAR
p263
sg12
(lp264
sg14
NsVstartIndex
p265
I5
sVsentNum
p266
I20
sVgender
p267
VFEMALE
p268
sVposition
p269
(lp270
I20
aI1
asg21
g22
sVtype
p271
VPRONOMINAL
p272
sVid
p273
I135
sa(dp274
VendIndex
p275
I10
sVanimacy
p276
VANIMATE
p277
sg6
I00
sVtext
p278
Vher
p279
sVisRepresentativeMention
p280
I00
sVnumber
p281
VSINGULAR
p282
sg12
(lp283
sg14
NsVstartIndex
p284
I9
sVsentNum
p285
I20
sVgender
p286
VFEMALE
p287
sVposition
p288
(lp289
I20
aI3
asg21
g61
sVtype
p290
VPRONOMINAL
p291
sVid
p292
I137
sa(dp293
VendIndex
p294
I2
sVanimacy
p295
VANIMATE
p296
sg6
I00
sVtext
p297
Vshe
p298
sVisRepresentativeMention
p299
I00
sVnumber
p300
VSINGULAR
p301
sg12
(lp302
sg14
NsVstartIndex
p303
I1
sVsentNum
p304
I21
sVgender
p305
VFEMALE
p306
sVposition
p307
(lp308
I21
aI1
asg21
g22
sVtype
p309
VPRONOMINAL
p310
sVid
p311
I143
sa(dp312
VendIndex
p313
I7
sVanimacy
p314
VANIMATE
p315
sg6
I00
sVtext
p316
Vher
p317
sVisRepresentativeMention
p318
I00
sVnumber
p319
VSINGULAR
p320
sg12
(lp321
sg14
NsVstartIndex
p322
I6
sVsentNum
p323
I21
sVgender
p324
VFEMALE
p325
sVposition
p326
(lp327
I21
aI5
asg21
g61
sVtype
p328
VPRONOMINAL
p329
sVid
p330
I147
sa(dp331
VendIndex
p332
I13
sVanimacy
p333
VANIMATE
p334
sg6
I00
sVtext
p335
VDavid Huffman
p336
sVisRepresentativeMention
p337
I00
sVnumber
p338
VSINGULAR
p339
sg12
(lp340
sg14
NsVstartIndex
p341
I11
sVsentNum
p342
I7
sVgender
p343
VMALE
p344
sVposition
p345
(lp346
I7
aI5
asg21
g61
sVtype
p347
VPROPER
p348
sVid
p349
I47
sa(dp350
VendIndex
p351
I3
sVanimacy
p352
VANIMATE
p353
sg6
I00
sVtext
p354
VPhyllis Huffman
p355
sVisRepresentativeMention
p356
I01
sVnumber
p357
VSINGULAR
p358
sg12
(lp359
S'foaf_names'
p360
aS'dbp_names'
p361
asg14
NsVstartIndex
p362
I1
sVsentNum
p363
I1
sVgender
p364
VFEMALE
p365
sVposition
p366
(lp367
I1
aI1
asg21
g22
sVtype
p368
VPROPER
p369
sVid
p370
I1
sa(dp371
VendIndex
p372
I6
sVanimacy
p373
VANIMATE
p374
sg6
I00
sVtext
p375
VPhyllis
p376
sVisRepresentativeMention
p377
I00
sVnumber
p378
VSINGULAR
p379
sg12
(lp380
S'givenNames'
p381
asg14
NsVstartIndex
p382
I5
sVsentNum
p383
I4
sVgender
p384
VFEMALE
p385
sVposition
p386
(lp387
I4
aI2
asg21
S'np-obj'
p388
sVtype
p389
VPROPER
p390
sVid
p391
I27
sa(dp392
VendIndex
p393
I3
sVanimacy
p394
VANIMATE
p395
sg6
I00
sVtext
p396
VPhyllis Huffman
p397
sVisRepresentativeMention
p398
I00
sVnumber
p399
VSINGULAR
p400
sg12
(lp401
g360
ag361
asg14
NsVstartIndex
p402
I1
sVsentNum
p403
I8
sVgender
p404
VFEMALE
p405
sVposition
p406
(lp407
I8
aI1
asg21
g22
sVtype
p408
VPROPER
p409
sVid
p410
I59
sa(dp411
VendIndex
p412
I3
sVanimacy
p413
VANIMATE
p414
sg6
I00
sVtext
p415
VPhyllis Huffman
p416
sVisRepresentativeMention
p417
I00
sVnumber
p418
VSINGULAR
p419
sg12
(lp420
g360
ag361
asg14
NsVstartIndex
p421
I1
sVsentNum
p422
I13
sVgender
p423
VFEMALE
p424
sVposition
p425
(lp426
I13
aI1
asg21
g22
sVtype
p427
VPROPER
p428
sVid
p429
I87
sa(dp430
VendIndex
p431
I11
sVanimacy
p432
VANIMATE
p433
sg6
I00
sVtext
p434
VGrace Grennan
p435
sVisRepresentativeMention
p436
I01
sVnumber
p437
VSINGULAR
p438
sg12
(lp439
sg14
NsVstartIndex
p440
I9
sVsentNum
p441
I21
sVgender
p442
VFEMALE
p443
sVposition
p444
(lp445
I21
aI6
asg21
g61
sVtype
p446
VPROPER
p447
sVid
p448
I140
sa(dp449
VendIndex
p450
I17
sVanimacy
p451
VANIMATE
p452
sg6
I00
sVtext
p453
VChris Grennan
p454
sVisRepresentativeMention
p455
I01
sVnumber
p456
VSINGULAR
p457
sg12
(lp458
sg14
NsVstartIndex
p459
I15
sVsentNum
p460
I21
sVgender
p461
VMALE
p462
sVposition
p463
(lp464
I21
aI9
asg21
g61
sVtype
p465
VPROPER
p466
sVid
p467
I141
sa.