(lp1
(dp2
VendIndex
p3
I9
sVanimacy
p4
VANIMATE
p5
sS'title'
p6
I00
sVtext
p7
Vshe
p8
sVisRepresentativeMention
p9
I00
sVnumber
p10
VSINGULAR
p11
sS'name_type'
p12
(lp13
sS'appositive'
p14
NsVstartIndex
p15
I8
sVsentNum
p16
I6
sVgender
p17
VFEMALE
p18
sVposition
p19
(lp20
I6
aI4
asS'syntax'
p21
S'np-subj'
p22
sVtype
p23
VPRONOMINAL
p24
sVid
p25
I43
sa(dp26
VendIndex
p27
I8
sVanimacy
p28
VANIMATE
p29
sg6
I00
sVtext
p30
Vher
p31
sVisRepresentativeMention
p32
I00
sVnumber
p33
VSINGULAR
p34
sg12
(lp35
sg14
NsVstartIndex
p36
I7
sVsentNum
p37
I7
sVgender
p38
VFEMALE
p39
sVposition
p40
(lp41
I7
aI4
asg21
S'subj-det'
p42
sVtype
p43
VPRONOMINAL
p44
sVid
p45
I52
sa(dp46
VendIndex
p47
I19
sVanimacy
p48
VANIMATE
p49
sg6
I00
sVtext
p50
Vshe
p51
sVisRepresentativeMention
p52
I00
sVnumber
p53
VSINGULAR
p54
sg12
(lp55
sg14
NsVstartIndex
p56
I18
sVsentNum
p57
I7
sVgender
p58
VFEMALE
p59
sVposition
p60
(lp61
I7
aI8
asg21
g22
sVtype
p62
VPRONOMINAL
p63
sVid
p64
I55
sa(dp65
VendIndex
p66
I21
sVanimacy
p67
VANIMATE
p68
sg6
I00
sVtext
p69
Vher
p70
sVisRepresentativeMention
p71
I00
sVnumber
p72
VSINGULAR
p73
sg12
(lp74
sg14
NsVstartIndex
p75
I20
sVsentNum
p76
I7
sVgender
p77
VFEMALE
p78
sVposition
p79
(lp80
I7
aI10
asg21
g42
sVtype
p81
VPRONOMINAL
p82
sVid
p83
I57
sa(dp84
VendIndex
p85
I10
sVanimacy
p86
VANIMATE
p87
sg6
I00
sVtext
p88
Vshe
p89
sVisRepresentativeMention
p90
I00
sVnumber
p91
VSINGULAR
p92
sg12
(lp93
sg14
NsVstartIndex
p94
I9
sVsentNum
p95
I8
sVgender
p96
VFEMALE
p97
sVposition
p98
(lp99
I8
aI3
asg21
g22
sVtype
p100
VPRONOMINAL
p101
sVid
p102
I62
sa(dp103
VendIndex
p104
I7
sVanimacy
p105
VANIMATE
p106
sg6
I00
sVtext
p107
Vshe
p108
sVisRepresentativeMention
p109
I00
sVnumber
p110
VSINGULAR
p111
sg12
(lp112
sg14
NsVstartIndex
p113
I6
sVsentNum
p114
I20
sVgender
p115
VFEMALE
p116
sVposition
p117
(lp118
I20
aI2
asg21
g22
sVtype
p119
VPRONOMINAL
p120
sVid
p121
I138
sa(dp122
VendIndex
p123
I11
sVanimacy
p124
VANIMATE
p125
sg6
I00
sVtext
p126
Vher
p127
sVisRepresentativeMention
p128
I00
sVnumber
p129
VSINGULAR
p130
sg12
(lp131
sg14
NsVstartIndex
p132
I10
sVsentNum
p133
I20
sVgender
p134
VFEMALE
p135
sVposition
p136
(lp137
I20
aI4
asg21
g42
sVtype
p138
VPRONOMINAL
p139
sVid
p140
I140
sa(dp141
VendIndex
p142
I2
sVanimacy
p143
VANIMATE
p144
sg6
I00
sVtext
p145
VShe
p146
sVisRepresentativeMention
p147
I00
sVnumber
p148
VSINGULAR
p149
sg12
(lp150
sg14
NsVstartIndex
p151
I1
sVsentNum
p152
I21
sVgender
p153
VFEMALE
p154
sVposition
p155
(lp156
I21
aI1
asg21
g22
sVtype
p157
VPRONOMINAL
p158
sVid
p159
I146
sa(dp160
VendIndex
p161
I7
sVanimacy
p162
VANIMATE
p163
sg6
I00
sVtext
p164
Vher
p165
sVisRepresentativeMention
p166
I00
sVnumber
p167
VSINGULAR
p168
sg12
(lp169
sg14
NsVstartIndex
p170
I6
sVsentNum
p171
I21
sVgender
p172
VFEMALE
p173
sVposition
p174
(lp175
I21
aI5
asg21
g42
sVtype
p176
VPRONOMINAL
p177
sVid
p178
I150
sa(dp179
VendIndex
p180
I6
sVanimacy
p181
VANIMATE
p182
sg6
I00
sVtext
p183
VPhyllis
p184
sVisRepresentativeMention
p185
I00
sVnumber
p186
VSINGULAR
p187
sg12
(lp188
S'givenNames'
p189
asg14
NsVstartIndex
p190
I5
sVsentNum
p191
I4
sVgender
p192
VFEMALE
p193
sVposition
p194
(lp195
I4
aI2
asg21
S'np-obj'
p196
sVtype
p197
VPROPER
p198
sVid
p199
I27
sa(dp200
VendIndex
p201
I5
sVanimacy
p202
VANIMATE
p203
sg6
I00
sVtext
p204
VPhyllis
p205
sVisRepresentativeMention
p206
I00
sVnumber
p207
VSINGULAR
p208
sg12
(lp209
g189
asg14
NsVstartIndex
p210
I4
sVsentNum
p211
I18
sVgender
p212
VFEMALE
p213
sVposition
p214
(lp215
I18
aI3
asg21
g22
sVtype
p216
VPROPER
p217
sVid
p218
I117
sa(dp219
VendIndex
p220
I3
sVanimacy
p221
VANIMATE
p222
sg6
I00
sVtext
p223
VPhyllis Huffman
p224
sVisRepresentativeMention
p225
I01
sVnumber
p226
VSINGULAR
p227
sg12
(lp228
S'foaf_names'
p229
aS'dbp_names'
p230
asg14
NsVstartIndex
p231
I1
sVsentNum
p232
I20
sVgender
p233
VFEMALE
p234
sVposition
p235
(lp236
I20
aI1
asg21
g22
sVtype
p237
VPROPER
p238
sVid
p239
I136
sa(dp240
VendIndex
p241
I2
sVanimacy
p242
VANIMATE
p243
sg6
I00
sVtext
p244
VHuffman
p245
sVisRepresentativeMention
p246
I00
sVnumber
p247
VSINGULAR
p248
sg12
(lp249
S'surnames'
p250
asg14
NsVstartIndex
p251
I1
sVsentNum
p252
I1
sVgender
p253
VMALE
p254
sVposition
p255
(lp256
I1
aI1
asg21
g22
sVtype
p257
VPROPER
p258
sVid
p259
I1
sa(dp260
VendIndex
p261
I13
sVanimacy
p262
VANIMATE
p263
sg6
I00
sVtext
p264
VDavid Huffman
p265
sVisRepresentativeMention
p266
I00
sVnumber
p267
VSINGULAR
p268
sg12
(lp269
sg14
NsVstartIndex
p270
I11
sVsentNum
p271
I7
sVgender
p272
VMALE
p273
sVposition
p274
(lp275
I7
aI5
asg21
g42
sVtype
p276
VPROPER
p277
sVid
p278
I47
sa(dp279
VendIndex
p280
I2
sVanimacy
p281
VANIMATE
p282
sg6
I00
sVtext
p283
VHuffman
p284
sVisRepresentativeMention
p285
I00
sVnumber
p286
VSINGULAR
p287
sg12
(lp288
g250
asg14
NsVstartIndex
p289
I1
sVsentNum
p290
I8
sVgender
p291
VMALE
p292
sVposition
p293
(lp294
I8
aI1
asg21
g22
sVtype
p295
VPROPER
p296
sVid
p297
I59
sa(dp298
VendIndex
p299
I6
sVanimacy
p300
VANIMATE
p301
sg6
I00
sVtext
p302
VHuffman
p303
sVisRepresentativeMention
p304
I00
sVnumber
p305
VSINGULAR
p306
sg12
(lp307
g250
asg14
NsVstartIndex
p308
I5
sVsentNum
p309
I10
sVgender
p310
VMALE
p311
sVposition
p312
(lp313
I10
aI2
asg21
g22
sVtype
p314
VPROPER
p315
sVid
p316
I68
sa(dp317
VendIndex
p318
I17
sVanimacy
p319
VANIMATE
p320
sg6
I00
sVtext
p321
VChris Grennan
p322
sVisRepresentativeMention
p323
I01
sVnumber
p324
VSINGULAR
p325
sg12
(lp326
sg14
NsVstartIndex
p327
I15
sVsentNum
p328
I21
sVgender
p329
VMALE
p330
sVposition
p331
(lp332
I21
aI9
asg21
g42
sVtype
p333
VPROPER
p334
sVid
p335
I144
sa(dp336
VendIndex
p337
I11
sVanimacy
p338
VANIMATE
p339
sg6
I00
sVtext
p340
VGrace Grennan
p341
sVisRepresentativeMention
p342
I01
sVnumber
p343
VSINGULAR
p344
sg12
(lp345
sg14
NsVstartIndex
p346
I9
sVsentNum
p347
I21
sVgender
p348
VFEMALE
p349
sVposition
p350
(lp351
I21
aI6
asg21
g42
sVtype
p352
VPROPER
p353
sVid
p354
I143
sa.