(lp1
(dp2
VendIndex
p3
I8
sVanimacy
p4
VANIMATE
p5
sS'title'
p6
I00
sVtext
p7
Vher
p8
sVisRepresentativeMention
p9
I00
sVnumber
p10
VSINGULAR
p11
sS'name_type'
p12
(lp13
sS'appositive'
p14
NsVstartIndex
p15
I7
sVsentNum
p16
I7
sVgender
p17
VFEMALE
p18
sVposition
p19
(lp20
I7
aI4
asS'syntax'
p21
S'subj-det'
p22
sVtype
p23
VPRONOMINAL
p24
sVid
p25
I52
sa(dp26
VendIndex
p27
I21
sVanimacy
p28
VANIMATE
p29
sg6
I00
sVtext
p30
Vher
p31
sVisRepresentativeMention
p32
I00
sVnumber
p33
VSINGULAR
p34
sg12
(lp35
sg14
NsVstartIndex
p36
I20
sVsentNum
p37
I7
sVgender
p38
VFEMALE
p39
sVposition
p40
(lp41
I7
aI10
asg21
g22
sVtype
p42
VPRONOMINAL
p43
sVid
p44
I56
sa(dp45
VendIndex
p46
I2
sVanimacy
p47
VANIMATE
p48
sg6
I00
sVtext
p49
VShe
p50
sVisRepresentativeMention
p51
I00
sVnumber
p52
VSINGULAR
p53
sg12
(lp54
sg14
NsVstartIndex
p55
I1
sVsentNum
p56
I8
sVgender
p57
VFEMALE
p58
sVposition
p59
(lp60
I8
aI1
asg21
S'np-subj'
p61
sVtype
p62
VPRONOMINAL
p63
sVid
p64
I60
sa(dp65
VendIndex
p66
I10
sVanimacy
p67
VANIMATE
p68
sg6
I00
sVtext
p69
Vshe
p70
sVisRepresentativeMention
p71
I00
sVnumber
p72
VSINGULAR
p73
sg12
(lp74
sg14
NsVstartIndex
p75
I9
sVsentNum
p76
I8
sVgender
p77
VFEMALE
p78
sVposition
p79
(lp80
I8
aI3
asg21
g61
sVtype
p81
VPRONOMINAL
p82
sVid
p83
I61
sa(dp84
VendIndex
p85
I5
sVanimacy
p86
VANIMATE
p87
sg6
I00
sVtext
p88
Vshe
p89
sVisRepresentativeMention
p90
I00
sVnumber
p91
VSINGULAR
p92
sg12
(lp93
sg14
NsVstartIndex
p94
I4
sVsentNum
p95
I14
sVgender
p96
VFEMALE
p97
sVposition
p98
(lp99
I14
aI1
asg21
g61
sVtype
p100
VPRONOMINAL
p101
sVid
p102
I91
sa(dp103
VendIndex
p104
I6
sVanimacy
p105
VANIMATE
p106
sg6
I00
sVtext
p107
Vher
p108
sVisRepresentativeMention
p109
I00
sVnumber
p110
VSINGULAR
p111
sg12
(lp112
sg14
NsVstartIndex
p113
I5
sVsentNum
p114
I16
sVgender
p115
VFEMALE
p116
sVposition
p117
(lp118
I16
aI4
asg21
g22
sVtype
p119
VPRONOMINAL
p120
sVid
p121
I104
sa(dp122
VendIndex
p123
I23
sVanimacy
p124
VANIMATE
p125
sg6
I00
sVtext
p126
Vher
p127
sVisRepresentativeMention
p128
I00
sVnumber
p129
VSINGULAR
p130
sg12
(lp131
sg14
NsVstartIndex
p132
I22
sVsentNum
p133
I18
sVgender
p134
VFEMALE
p135
sVposition
p136
(lp137
I18
aI7
asg21
g22
sVtype
p138
VPRONOMINAL
p139
sVid
p140
I122
sa(dp141
VendIndex
p142
I2
sVanimacy
p143
VANIMATE
p144
sg6
I00
sVtext
p145
VShe
p146
sVisRepresentativeMention
p147
I00
sVnumber
p148
VSINGULAR
p149
sg12
(lp150
sg14
NsVstartIndex
p151
I1
sVsentNum
p152
I19
sVgender
p153
VFEMALE
p154
sVposition
p155
(lp156
I19
aI1
asg21
g61
sVtype
p157
VPRONOMINAL
p158
sVid
p159
I127
sa(dp160
VendIndex
p161
I4
sVanimacy
p162
VANIMATE
p163
sg6
I00
sVtext
p164
Vher
p165
sVisRepresentativeMention
p166
I00
sVnumber
p167
VSINGULAR
p168
sg12
(lp169
sg14
NsVstartIndex
p170
I3
sVsentNum
p171
I19
sVgender
p172
VFEMALE
p173
sVposition
p174
(lp175
I19
aI3
asg21
g22
sVtype
p176
VPRONOMINAL
p177
sVid
p178
I129
sa(dp179
VendIndex
p180
I10
sVanimacy
p181
VANIMATE
p182
sg6
I00
sVtext
p183
Vher
p184
sVisRepresentativeMention
p185
I00
sVnumber
p186
VSINGULAR
p187
sg12
(lp188
sg14
NsVstartIndex
p189
I9
sVsentNum
p190
I20
sVgender
p191
VFEMALE
p192
sVposition
p193
(lp194
I20
aI3
asg21
g22
sVtype
p195
VPRONOMINAL
p196
sVid
p197
I137
sa(dp198
VendIndex
p199
I2
sVanimacy
p200
VANIMATE
p201
sg6
I00
sVtext
p202
VShe
p203
sVisRepresentativeMention
p204
I00
sVnumber
p205
VSINGULAR
p206
sg12
(lp207
sg14
NsVstartIndex
p208
I1
sVsentNum
p209
I21
sVgender
p210
VFEMALE
p211
sVposition
p212
(lp213
I21
aI1
asg21
g61
sVtype
p214
VPRONOMINAL
p215
sVid
p216
I143
sa(dp217
VendIndex
p218
I7
sVanimacy
p219
VANIMATE
p220
sg6
I00
sVtext
p221
Vher
p222
sVisRepresentativeMention
p223
I00
sVnumber
p224
VSINGULAR
p225
sg12
(lp226
sg14
NsVstartIndex
p227
I6
sVsentNum
p228
I21
sVgender
p229
VFEMALE
p230
sVposition
p231
(lp232
I21
aI5
asg21
g22
sVtype
p233
VPRONOMINAL
p234
sVid
p235
I147
sa(dp236
VendIndex
p237
I2
sVanimacy
p238
VANIMATE
p239
sg6
I00
sVtext
p240
VHuffman
p241
sVisRepresentativeMention
p242
I00
sVnumber
p243
VSINGULAR
p244
sg12
(lp245
S'surnames'
p246
asg14
NsVstartIndex
p247
I1
sVsentNum
p248
I2
sVgender
p249
VMALE
p250
sVposition
p251
(lp252
I2
aI1
asg21
g61
sVtype
p253
VPROPER
p254
sVid
p255
I16
sa(dp256
VendIndex
p257
I9
sVanimacy
p258
VANIMATE
p259
sg6
I00
sVtext
p260
VHuffman
p261
sVisRepresentativeMention
p262
I00
sVnumber
p263
VSINGULAR
p264
sg12
(lp265
g246
asg14
NsVstartIndex
p266
I8
sVsentNum
p267
I3
sVgender
p268
VMALE
p269
sVposition
p270
(lp271
I3
aI4
asg21
S'np-obj'
p272
sVtype
p273
VPROPER
p274
sVid
p275
I19
sa(dp276
VendIndex
p277
I13
sVanimacy
p278
VANIMATE
p279
sg6
I00
sVtext
p280
VDavid Huffman
p281
sVisRepresentativeMention
p282
I00
sVnumber
p283
VSINGULAR
p284
sg12
(lp285
sg14
NsVstartIndex
p286
I11
sVsentNum
p287
I7
sVgender
p288
VMALE
p289
sVposition
p290
(lp291
I7
aI5
asg21
g22
sVtype
p292
VPROPER
p293
sVid
p294
I46
sa(dp295
VendIndex
p296
I19
sVanimacy
p297
VANIMATE
p298
sg6
I00
sVtext
p299
VHuffman
p300
sVisRepresentativeMention
p301
I00
sVnumber
p302
VSINGULAR
p303
sg12
(lp304
g246
asg14
NsVstartIndex
p305
I18
sVsentNum
p306
I7
sVgender
p307
VMALE
p308
sVposition
p309
(lp310
I7
aI8
asg21
g61
sVtype
p311
VPROPER
p312
sVid
p313
I47
sa(dp314
VendIndex
p315
I9
sVanimacy
p316
VANIMATE
p317
sg6
I00
sVtext
p318
VHuffman
p319
sVisRepresentativeMention
p320
I00
sVnumber
p321
VSINGULAR
p322
sg12
(lp323
g246
asg14
NsVstartIndex
p324
I8
sVsentNum
p325
I9
sVgender
p326
VMALE
p327
sVposition
p328
(lp329
I9
aI3
asg21
g61
sVtype
p330
VPROPER
p331
sVid
p332
I65
sa(dp333
VendIndex
p334
I5
sVanimacy
p335
VANIMATE
p336
sg6
I00
sVtext
p337
VHuffman
p338
sVisRepresentativeMention
p339
I00
sVnumber
p340
VSINGULAR
p341
sg12
(lp342
g246
asg14
NsVstartIndex
p343
I4
sVsentNum
p344
I18
sVgender
p345
VMALE
p346
sVposition
p347
(lp348
I18
aI2
asg21
g61
sVtype
p349
VPROPER
p350
sVid
p351
I116
sa(dp352
VendIndex
p353
I3
sVanimacy
p354
VANIMATE
p355
sg6
I00
sVtext
p356
VPhyllis Huffman
p357
sVisRepresentativeMention
p358
I01
sVnumber
p359
VSINGULAR
p360
sg12
(lp361
S'foaf_names'
p362
aS'dbp_names'
p363
asg14
NsVstartIndex
p364
I1
sVsentNum
p365
I1
sVgender
p366
VFEMALE
p367
sVposition
p368
(lp369
I1
aI1
asg21
g61
sVtype
p370
VPROPER
p371
sVid
p372
I1
sa(dp373
VendIndex
p374
I6
sVanimacy
p375
VANIMATE
p376
sg6
I00
sVtext
p377
VPhyllis
p378
sVisRepresentativeMention
p379
I00
sVnumber
p380
VSINGULAR
p381
sg12
(lp382
S'givenNames'
p383
asg14
NsVstartIndex
p384
I5
sVsentNum
p385
I4
sVgender
p386
VFEMALE
p387
sVposition
p388
(lp389
I4
aI2
asg21
g272
sVtype
p390
VPROPER
p391
sVid
p392
I27
sa(dp393
VendIndex
p394
I3
sVanimacy
p395
VANIMATE
p396
sg6
I00
sVtext
p397
VPhyllis Huffman
p398
sVisRepresentativeMention
p399
I00
sVnumber
p400
VSINGULAR
p401
sg12
(lp402
g362
ag363
asg14
NsVstartIndex
p403
I1
sVsentNum
p404
I13
sVgender
p405
VFEMALE
p406
sVposition
p407
(lp408
I13
aI1
asg21
g61
sVtype
p409
VPROPER
p410
sVid
p411
I86
sa(dp412
VendIndex
p413
I4
sVanimacy
p414
VANIMATE
p415
sg6
I00
sVtext
p416
VPhyllis Huffman's
p417
sVisRepresentativeMention
p418
I00
sVnumber
p419
VSINGULAR
p420
sg12
(lp421
g362
ag363
asg14
NsVstartIndex
p422
I1
sVsentNum
p423
I15
sVgender
p424
VFEMALE
p425
sVposition
p426
(lp427
I15
aI2
asg21
g22
sVtype
p428
VPROPER
p429
sVid
p430
I96
sa(dp431
VendIndex
p432
I11
sVanimacy
p433
VANIMATE
p434
sg6
I00
sVtext
p435
VGrace Grennan
p436
sVisRepresentativeMention
p437
I01
sVnumber
p438
VSINGULAR
p439
sg12
(lp440
sg14
NsVstartIndex
p441
I9
sVsentNum
p442
I21
sVgender
p443
VFEMALE
p444
sVposition
p445
(lp446
I21
aI6
asg21
g22
sVtype
p447
VPROPER
p448
sVid
p449
I140
sa(dp450
VendIndex
p451
I17
sVanimacy
p452
VANIMATE
p453
sg6
I00
sVtext
p454
VChris Grennan
p455
sVisRepresentativeMention
p456
I01
sVnumber
p457
VSINGULAR
p458
sg12
(lp459
sg14
NsVstartIndex
p460
I15
sVsentNum
p461
I21
sVgender
p462
VMALE
p463
sVposition
p464
(lp465
I21
aI9
asg21
g22
sVtype
p466
VPROPER
p467
sVid
p468
I141
sa.