(lp1
(dp2
VendIndex
p3
I2
sVanimacy
p4
VANIMATE
p5
sS'title'
p6
I00
sVtext
p7
VShe
p8
sVisRepresentativeMention
p9
I00
sVnumber
p10
VSINGULAR
p11
sS'name_type'
p12
(lp13
sS'appositive'
p14
NsVstartIndex
p15
I1
sVsentNum
p16
I2
sVgender
p17
VFEMALE
p18
sVposition
p19
(lp20
I2
aI1
asS'syntax'
p21
S'np-subj'
p22
sVtype
p23
VPRONOMINAL
p24
sVid
p25
I18
sa(dp26
VendIndex
p27
I8
sVanimacy
p28
VANIMATE
p29
sg6
I00
sVtext
p30
Vher
p31
sVisRepresentativeMention
p32
I00
sVnumber
p33
VSINGULAR
p34
sg12
(lp35
sg14
NsVstartIndex
p36
I7
sVsentNum
p37
I7
sVgender
p38
VFEMALE
p39
sVposition
p40
(lp41
I7
aI4
asg21
S'subj-det'
p42
sVtype
p43
VPRONOMINAL
p44
sVid
p45
I53
sa(dp46
VendIndex
p47
I21
sVanimacy
p48
VANIMATE
p49
sg6
I00
sVtext
p50
Vher
p51
sVisRepresentativeMention
p52
I00
sVnumber
p53
VSINGULAR
p54
sg12
(lp55
sg14
NsVstartIndex
p56
I20
sVsentNum
p57
I7
sVgender
p58
VFEMALE
p59
sVposition
p60
(lp61
I7
aI10
asg21
g42
sVtype
p62
VPRONOMINAL
p63
sVid
p64
I57
sa(dp65
VendIndex
p66
I2
sVanimacy
p67
VANIMATE
p68
sg6
I00
sVtext
p69
VShe
p70
sVisRepresentativeMention
p71
I00
sVnumber
p72
VSINGULAR
p73
sg12
(lp74
sg14
NsVstartIndex
p75
I1
sVsentNum
p76
I8
sVgender
p77
VFEMALE
p78
sVposition
p79
(lp80
I8
aI1
asg21
g22
sVtype
p81
VPRONOMINAL
p82
sVid
p83
I61
sa(dp84
VendIndex
p85
I10
sVanimacy
p86
VANIMATE
p87
sg6
I00
sVtext
p88
Vshe
p89
sVisRepresentativeMention
p90
I00
sVnumber
p91
VSINGULAR
p92
sg12
(lp93
sg14
NsVstartIndex
p94
I9
sVsentNum
p95
I8
sVgender
p96
VFEMALE
p97
sVposition
p98
(lp99
I8
aI3
asg21
g22
sVtype
p100
VPRONOMINAL
p101
sVid
p102
I62
sa(dp103
VendIndex
p104
I6
sVanimacy
p105
VANIMATE
p106
sg6
I00
sVtext
p107
Vshe
p108
sVisRepresentativeMention
p109
I00
sVnumber
p110
VSINGULAR
p111
sg12
(lp112
sg14
NsVstartIndex
p113
I5
sVsentNum
p114
I11
sVgender
p115
VFEMALE
p116
sVposition
p117
(lp118
I11
aI3
asg21
g22
sVtype
p119
VPRONOMINAL
p120
sVid
p121
I73
sa(dp122
VendIndex
p123
I23
sVanimacy
p124
VANIMATE
p125
sg6
I00
sVtext
p126
Vher
p127
sVisRepresentativeMention
p128
I00
sVnumber
p129
VSINGULAR
p130
sg12
(lp131
sg14
NsVstartIndex
p132
I22
sVsentNum
p133
I18
sVgender
p134
VFEMALE
p135
sVposition
p136
(lp137
I18
aI7
asg21
g42
sVtype
p138
VPRONOMINAL
p139
sVid
p140
I122
sa(dp141
VendIndex
p142
I4
sVanimacy
p143
VANIMATE
p144
sg6
I00
sVtext
p145
Vher
p146
sVisRepresentativeMention
p147
I00
sVnumber
p148
VSINGULAR
p149
sg12
(lp150
sg14
NsVstartIndex
p151
I3
sVsentNum
p152
I19
sVgender
p153
VFEMALE
p154
sVposition
p155
(lp156
I19
aI3
asg21
g42
sVtype
p157
VPRONOMINAL
p158
sVid
p159
I129
sa(dp160
VendIndex
p161
I10
sVanimacy
p162
VANIMATE
p163
sg6
I00
sVtext
p164
Vshe
p165
sVisRepresentativeMention
p166
I00
sVnumber
p167
VSINGULAR
p168
sg12
(lp169
sg14
NsVstartIndex
p170
I9
sVsentNum
p171
I19
sVgender
p172
VFEMALE
p173
sVposition
p174
(lp175
I19
aI5
asg21
g22
sVtype
p176
VPRONOMINAL
p177
sVid
p178
I130
sa(dp179
VendIndex
p180
I7
sVanimacy
p181
VANIMATE
p182
sg6
I00
sVtext
p183
Vshe
p184
sVisRepresentativeMention
p185
I00
sVnumber
p186
VSINGULAR
p187
sg12
(lp188
sg14
NsVstartIndex
p189
I6
sVsentNum
p190
I20
sVgender
p191
VFEMALE
p192
sVposition
p193
(lp194
I20
aI2
asg21
g22
sVtype
p195
VPRONOMINAL
p196
sVid
p197
I137
sa(dp198
VendIndex
p199
I11
sVanimacy
p200
VANIMATE
p201
sg6
I00
sVtext
p202
Vher
p203
sVisRepresentativeMention
p204
I00
sVnumber
p205
VSINGULAR
p206
sg12
(lp207
sg14
NsVstartIndex
p208
I10
sVsentNum
p209
I20
sVgender
p210
VFEMALE
p211
sVposition
p212
(lp213
I20
aI4
asg21
g42
sVtype
p214
VPRONOMINAL
p215
sVid
p216
I139
sa(dp217
VendIndex
p218
I2
sVanimacy
p219
VANIMATE
p220
sg6
I00
sVtext
p221
VShe
p222
sVisRepresentativeMention
p223
I00
sVnumber
p224
VSINGULAR
p225
sg12
(lp226
sg14
NsVstartIndex
p227
I1
sVsentNum
p228
I21
sVgender
p229
VFEMALE
p230
sVposition
p231
(lp232
I21
aI1
asg21
g22
sVtype
p233
VPRONOMINAL
p234
sVid
p235
I145
sa(dp236
VendIndex
p237
I7
sVanimacy
p238
VANIMATE
p239
sg6
I00
sVtext
p240
Vher
p241
sVisRepresentativeMention
p242
I00
sVnumber
p243
VSINGULAR
p244
sg12
(lp245
sg14
NsVstartIndex
p246
I6
sVsentNum
p247
I21
sVgender
p248
VFEMALE
p249
sVposition
p250
(lp251
I21
aI5
asg21
g42
sVtype
p252
VPRONOMINAL
p253
sVid
p254
I149
sa(dp255
VendIndex
p256
I9
sVanimacy
p257
VANIMATE
p258
sg6
I00
sVtext
p259
VHuffman
p260
sVisRepresentativeMention
p261
I00
sVnumber
p262
VSINGULAR
p263
sg12
(lp264
S'surnames'
p265
asg14
NsVstartIndex
p266
I8
sVsentNum
p267
I3
sVgender
p268
VMALE
p269
sVposition
p270
(lp271
I3
aI4
asg21
S'np-obj'
p272
sVtype
p273
VPROPER
p274
sVid
p275
I20
sa(dp276
VendIndex
p277
I13
sVanimacy
p278
VANIMATE
p279
sg6
I00
sVtext
p280
VDavid Huffman
p281
sVisRepresentativeMention
p282
I00
sVnumber
p283
VSINGULAR
p284
sg12
(lp285
sg14
NsVstartIndex
p286
I11
sVsentNum
p287
I7
sVgender
p288
VMALE
p289
sVposition
p290
(lp291
I7
aI5
asg21
g42
sVtype
p292
VPROPER
p293
sVid
p294
I47
sa(dp295
VendIndex
p296
I19
sVanimacy
p297
VANIMATE
p298
sg6
I00
sVtext
p299
VHuffman
p300
sVisRepresentativeMention
p301
I00
sVnumber
p302
VSINGULAR
p303
sg12
(lp304
g265
asg14
NsVstartIndex
p305
I18
sVsentNum
p306
I7
sVgender
p307
VMALE
p308
sVposition
p309
(lp310
I7
aI8
asg21
g22
sVtype
p311
VPROPER
p312
sVid
p313
I48
sa(dp314
VendIndex
p315
I6
sVanimacy
p316
VANIMATE
p317
sg6
I00
sVtext
p318
VHuffman
p319
sVisRepresentativeMention
p320
I00
sVnumber
p321
VSINGULAR
p322
sg12
(lp323
g265
asg14
NsVstartIndex
p324
I5
sVsentNum
p325
I10
sVgender
p326
VMALE
p327
sVposition
p328
(lp329
I10
aI2
asg21
g22
sVtype
p330
VPROPER
p331
sVid
p332
I68
sa(dp333
VendIndex
p334
I5
sVanimacy
p335
VANIMATE
p336
sg6
I00
sVtext
p337
VHuffman
p338
sVisRepresentativeMention
p339
I00
sVnumber
p340
VSINGULAR
p341
sg12
(lp342
g265
asg14
NsVstartIndex
p343
I4
sVsentNum
p344
I14
sVgender
p345
VMALE
p346
sVposition
p347
(lp348
I14
aI1
asg21
g22
sVtype
p349
VPROPER
p350
sVid
p351
I90
sa(dp352
VendIndex
p353
I2
sVanimacy
p354
VANIMATE
p355
sg6
I00
sVtext
p356
VHuffman
p357
sVisRepresentativeMention
p358
I00
sVnumber
p359
VSINGULAR
p360
sg12
(lp361
g265
asg14
NsVstartIndex
p362
I1
sVsentNum
p363
I19
sVgender
p364
VMALE
p365
sVposition
p366
(lp367
I19
aI1
asg21
g22
sVtype
p368
VPROPER
p369
sVid
p370
I123
sa(dp371
VendIndex
p372
I3
sVanimacy
p373
VANIMATE
p374
sg6
I00
sVtext
p375
VPhyllis Huffman
p376
sVisRepresentativeMention
p377
I01
sVnumber
p378
VSINGULAR
p379
sg12
(lp380
S'foaf_names'
p381
aS'dbp_names'
p382
asg14
NsVstartIndex
p383
I1
sVsentNum
p384
I1
sVgender
p385
VFEMALE
p386
sVposition
p387
(lp388
I1
aI1
asg21
g22
sVtype
p389
VPROPER
p390
sVid
p391
I1
sa(dp392
VendIndex
p393
I6
sVanimacy
p394
VANIMATE
p395
sg6
I00
sVtext
p396
VPhyllis
p397
sVisRepresentativeMention
p398
I00
sVnumber
p399
VSINGULAR
p400
sg12
(lp401
S'givenNames'
p402
asg14
NsVstartIndex
p403
I5
sVsentNum
p404
I4
sVgender
p405
VFEMALE
p406
sVposition
p407
(lp408
I4
aI2
asg21
g272
sVtype
p409
VPROPER
p410
sVid
p411
I28
sa(dp412
VendIndex
p413
I3
sVanimacy
p414
VANIMATE
p415
sg6
I00
sVtext
p416
VPhyllis Huffman
p417
sVisRepresentativeMention
p418
I00
sVnumber
p419
VSINGULAR
p420
sg12
(lp421
g381
ag382
asg14
NsVstartIndex
p422
I1
sVsentNum
p423
I13
sVgender
p424
VFEMALE
p425
sVposition
p426
(lp427
I13
aI1
asg21
g22
sVtype
p428
VPROPER
p429
sVid
p430
I86
sa(dp431
VendIndex
p432
I3
sVanimacy
p433
VANIMATE
p434
sg6
I00
sVtext
p435
VPhyllis Huffman
p436
sVisRepresentativeMention
p437
I00
sVnumber
p438
VSINGULAR
p439
sg12
(lp440
g381
ag382
asg14
NsVstartIndex
p441
I1
sVsentNum
p442
I18
sVgender
p443
VFEMALE
p444
sVposition
p445
(lp446
I18
aI1
asg21
g22
sVtype
p447
VPROPER
p448
sVid
p449
I116
sa(dp450
VendIndex
p451
I3
sVanimacy
p452
VANIMATE
p453
sg6
I00
sVtext
p454
VPhyllis Huffman
p455
sVisRepresentativeMention
p456
I00
sVnumber
p457
VSINGULAR
p458
sg12
(lp459
g381
ag382
asg14
NsVstartIndex
p460
I1
sVsentNum
p461
I20
sVgender
p462
VFEMALE
p463
sVposition
p464
(lp465
I20
aI1
asg21
g22
sVtype
p466
VPROPER
p467
sVid
p468
I135
sa(dp469
VendIndex
p470
I11
sVanimacy
p471
VANIMATE
p472
sg6
I00
sVtext
p473
VGrace Grennan
p474
sVisRepresentativeMention
p475
I01
sVnumber
p476
VSINGULAR
p477
sg12
(lp478
sg14
NsVstartIndex
p479
I9
sVsentNum
p480
I21
sVgender
p481
VFEMALE
p482
sVposition
p483
(lp484
I21
aI6
asg21
g42
sVtype
p485
VPROPER
p486
sVid
p487
I142
sa(dp488
VendIndex
p489
I17
sVanimacy
p490
VANIMATE
p491
sg6
I00
sVtext
p492
VChris Grennan
p493
sVisRepresentativeMention
p494
I01
sVnumber
p495
VSINGULAR
p496
sg12
(lp497
sg14
NsVstartIndex
p498
I15
sVsentNum
p499
I21
sVgender
p500
VMALE
p501
sVposition
p502
(lp503
I21
aI9
asg21
g42
sVtype
p504
VPROPER
p505
sVid
p506
I143
sa.