(lp1
(dp2
VendIndex
p3
I2
sVanimacy
p4
VANIMATE
p5
sS'title'
p6
I00
sVtext
p7
VShe
p8
sVisRepresentativeMention
p9
I00
sVnumber
p10
VSINGULAR
p11
sS'name_type'
p12
(lp13
sS'appositive'
p14
NsVstartIndex
p15
I1
sVsentNum
p16
I2
sVgender
p17
VFEMALE
p18
sVposition
p19
(lp20
I2
aI1
asS'syntax'
p21
S'np-subj'
p22
sVtype
p23
VPRONOMINAL
p24
sVid
p25
I17
sa(dp26
VendIndex
p27
I9
sVanimacy
p28
VANIMATE
p29
sg6
I00
sVtext
p30
Vshe
p31
sVisRepresentativeMention
p32
I00
sVnumber
p33
VSINGULAR
p34
sg12
(lp35
sg14
NsVstartIndex
p36
I8
sVsentNum
p37
I6
sVgender
p38
VFEMALE
p39
sVposition
p40
(lp41
I6
aI4
asg21
g22
sVtype
p42
VPRONOMINAL
p43
sVid
p44
I44
sa(dp45
VendIndex
p46
I8
sVanimacy
p47
VANIMATE
p48
sg6
I00
sVtext
p49
Vher
p50
sVisRepresentativeMention
p51
I00
sVnumber
p52
VSINGULAR
p53
sg12
(lp54
sg14
NsVstartIndex
p55
I7
sVsentNum
p56
I7
sVgender
p57
VFEMALE
p58
sVposition
p59
(lp60
I7
aI4
asg21
S'subj-det'
p61
sVtype
p62
VPRONOMINAL
p63
sVid
p64
I52
sa(dp65
VendIndex
p66
I19
sVanimacy
p67
VANIMATE
p68
sg6
I00
sVtext
p69
Vshe
p70
sVisRepresentativeMention
p71
I00
sVnumber
p72
VSINGULAR
p73
sg12
(lp74
sg14
NsVstartIndex
p75
I18
sVsentNum
p76
I7
sVgender
p77
VFEMALE
p78
sVposition
p79
(lp80
I7
aI8
asg21
g22
sVtype
p81
VPRONOMINAL
p82
sVid
p83
I55
sa(dp84
VendIndex
p85
I21
sVanimacy
p86
VANIMATE
p87
sg6
I00
sVtext
p88
Vher
p89
sVisRepresentativeMention
p90
I00
sVnumber
p91
VSINGULAR
p92
sg12
(lp93
sg14
NsVstartIndex
p94
I20
sVsentNum
p95
I7
sVgender
p96
VFEMALE
p97
sVposition
p98
(lp99
I7
aI10
asg21
g61
sVtype
p100
VPRONOMINAL
p101
sVid
p102
I57
sa(dp103
VendIndex
p104
I9
sVanimacy
p105
VANIMATE
p106
sg6
I00
sVtext
p107
Vshe
p108
sVisRepresentativeMention
p109
I00
sVnumber
p110
VSINGULAR
p111
sg12
(lp112
sg14
NsVstartIndex
p113
I8
sVsentNum
p114
I8
sVgender
p115
VFEMALE
p116
sVposition
p117
(lp118
I8
aI3
asg21
g22
sVtype
p119
VPRONOMINAL
p120
sVid
p121
I62
sa(dp122
VendIndex
p123
I9
sVanimacy
p124
VANIMATE
p125
sg6
I00
sVtext
p126
VHuffman
p127
sVisRepresentativeMention
p128
I00
sVnumber
p129
VSINGULAR
p130
sg12
(lp131
S'surnames'
p132
asg14
NsVstartIndex
p133
I8
sVsentNum
p134
I3
sVgender
p135
VMALE
p136
sVposition
p137
(lp138
I3
aI4
asg21
S'np-obj'
p139
sVtype
p140
VPROPER
p141
sVid
p142
I19
sa(dp143
VendIndex
p144
I13
sVanimacy
p145
VANIMATE
p146
sg6
I00
sVtext
p147
VDavid Huffman
p148
sVisRepresentativeMention
p149
I00
sVnumber
p150
VSINGULAR
p151
sg12
(lp152
sg14
NsVstartIndex
p153
I11
sVsentNum
p154
I7
sVgender
p155
VMALE
p156
sVposition
p157
(lp158
I7
aI5
asg21
g61
sVtype
p159
VPROPER
p160
sVid
p161
I47
sa(dp162
VendIndex
p163
I2
sVanimacy
p164
VANIMATE
p165
sg6
I00
sVtext
p166
VHuffman
p167
sVisRepresentativeMention
p168
I00
sVnumber
p169
VSINGULAR
p170
sg12
(lp171
g132
asg14
NsVstartIndex
p172
I1
sVsentNum
p173
I8
sVgender
p174
VMALE
p175
sVposition
p176
(lp177
I8
aI1
asg21
g22
sVtype
p178
VPROPER
p179
sVid
p180
I59
sa(dp181
VendIndex
p182
I2
sVanimacy
p183
VANIMATE
p184
sg6
I00
sVtext
p185
VHuffman
p186
sVisRepresentativeMention
p187
I00
sVnumber
p188
VSINGULAR
p189
sg12
(lp190
g132
asg14
NsVstartIndex
p191
I1
sVsentNum
p192
I13
sVgender
p193
VMALE
p194
sVposition
p195
(lp196
I13
aI1
asg21
g22
sVtype
p197
VPROPER
p198
sVid
p199
I87
sa(dp200
VendIndex
p201
I2
sVanimacy
p202
VANIMATE
p203
sg6
I00
sVtext
p204
VHuffman
p205
sVisRepresentativeMention
p206
I00
sVnumber
p207
VSINGULAR
p208
sg12
(lp209
g132
asg14
NsVstartIndex
p210
I1
sVsentNum
p211
I19
sVgender
p212
VMALE
p213
sVposition
p214
(lp215
I19
aI1
asg21
g22
sVtype
p216
VPROPER
p217
sVid
p218
I123
sa(dp219
VendIndex
p220
I3
sVanimacy
p221
VANIMATE
p222
sg6
I00
sVtext
p223
VPhyllis Huffman
p224
sVisRepresentativeMention
p225
I01
sVnumber
p226
VSINGULAR
p227
sg12
(lp228
S'foaf_names'
p229
aS'dbp_names'
p230
asg14
NsVstartIndex
p231
I1
sVsentNum
p232
I1
sVgender
p233
VFEMALE
p234
sVposition
p235
(lp236
I1
aI1
asg21
g22
sVtype
p237
VPROPER
p238
sVid
p239
I1
sa(dp240
VendIndex
p241
I6
sVanimacy
p242
VANIMATE
p243
sg6
I00
sVtext
p244
VPhyllis
p245
sVisRepresentativeMention
p246
I00
sVnumber
p247
VSINGULAR
p248
sg12
(lp249
S'givenNames'
p250
asg14
NsVstartIndex
p251
I5
sVsentNum
p252
I4
sVgender
p253
VFEMALE
p254
sVposition
p255
(lp256
I4
aI2
asg21
g139
sVtype
p257
VPROPER
p258
sVid
p259
I27
sa(dp260
VendIndex
p261
I11
sVanimacy
p262
VANIMATE
p263
sg6
I00
sVtext
p264
VGrace Grennan
p265
sVisRepresentativeMention
p266
I01
sVnumber
p267
VSINGULAR
p268
sg12
(lp269
sg14
NsVstartIndex
p270
I9
sVsentNum
p271
I21
sVgender
p272
VFEMALE
p273
sVposition
p274
(lp275
I21
aI6
asg21
g61
sVtype
p276
VPROPER
p277
sVid
p278
I140
sa(dp279
VendIndex
p280
I17
sVanimacy
p281
VANIMATE
p282
sg6
I00
sVtext
p283
VChris Grennan
p284
sVisRepresentativeMention
p285
I01
sVnumber
p286
VSINGULAR
p287
sg12
(lp288
sg14
NsVstartIndex
p289
I15
sVsentNum
p290
I21
sVgender
p291
VMALE
p292
sVposition
p293
(lp294
I21
aI9
asg21
g61
sVtype
p295
VPROPER
p296
sVid
p297
I141
sa.