(lp1
(dp2
VendIndex
p3
I30
sVanimacy
p4
VANIMATE
p5
sS'title'
p6
I00
sVtext
p7
Vhis
p8
sVisRepresentativeMention
p9
I00
sVnumber
p10
VSINGULAR
p11
sS'name_type'
p12
(lp13
sS'appositive'
p14
NsVstartIndex
p15
I29
sVsentNum
p16
I7
sVgender
p17
VMALE
p18
sVposition
p19
(lp20
I7
aI11
asS'syntax'
p21
S'subj-det'
p22
sVtype
p23
VPRONOMINAL
p24
sVid
p25
I75
sa(dp26
VendIndex
p27
I19
sVanimacy
p28
VANIMATE
p29
sg6
I00
sVtext
p30
Vthey
p31
sVisRepresentativeMention
p32
I00
sVnumber
p33
VPLURAL
p34
sg12
(lp35
sg14
NsVstartIndex
p36
I18
sVsentNum
p37
I8
sVgender
p38
VUNKNOWN
p39
sVposition
p40
(lp41
I8
aI6
asg21
S'np-subj'
p42
sVtype
p43
VPRONOMINAL
p44
sVid
p45
I83
sa(dp46
VendIndex
p47
I28
sVanimacy
p48
VANIMATE
p49
sg6
I00
sVtext
p50
Vhim
p51
sVisRepresentativeMention
p52
I00
sVnumber
p53
VSINGULAR
p54
sg12
(lp55
sg14
NsVstartIndex
p56
I27
sVsentNum
p57
I1
sVgender
p58
VMALE
p59
sVposition
p60
(lp61
I1
aI9
asg21
S'np-obj'
p62
sVtype
p63
VPRONOMINAL
p64
sVid
p65
I10
sa(dp66
VendIndex
p67
I31
sVanimacy
p68
VANIMATE
p69
sg6
I00
sVtext
p70
Vhe
p71
sVisRepresentativeMention
p72
I00
sVnumber
p73
VSINGULAR
p74
sg12
(lp75
sg14
NsVstartIndex
p76
I30
sVsentNum
p77
I1
sVgender
p78
VMALE
p79
sVposition
p80
(lp81
I1
aI10
asg21
g42
sVtype
p82
VPRONOMINAL
p83
sVid
p84
I11
sa(dp85
VendIndex
p86
I23
sVanimacy
p87
VANIMATE
p88
sg6
I00
sVtext
p89
Vhis
p90
sVisRepresentativeMention
p91
I00
sVnumber
p92
VSINGULAR
p93
sg12
(lp94
sg14
NsVstartIndex
p95
I22
sVsentNum
p96
I3
sVgender
p97
VMALE
p98
sVposition
p99
(lp100
I3
aI7
asg21
g22
sVtype
p101
VPRONOMINAL
p102
sVid
p103
I32
sa(dp104
VendIndex
p105
I41
sVanimacy
p106
VANIMATE
p107
sg6
I00
sVtext
p108
Vhim
p109
sVisRepresentativeMention
p110
I00
sVnumber
p111
VSINGULAR
p112
sg12
(lp113
sg14
NsVstartIndex
p114
I40
sVsentNum
p115
I3
sVgender
p116
VMALE
p117
sVposition
p118
(lp119
I3
aI13
asg21
g62
sVtype
p120
VPRONOMINAL
p121
sVid
p122
I37
sa(dp123
VendIndex
p124
I14
sVanimacy
p125
VANIMATE
p126
sg6
I00
sVtext
p127
Vhis
p128
sVisRepresentativeMention
p129
I00
sVnumber
p130
VSINGULAR
p131
sg12
(lp132
sg14
NsVstartIndex
p133
I13
sVsentNum
p134
I4
sVgender
p135
VMALE
p136
sVposition
p137
(lp138
I4
aI5
asg21
g22
sVtype
p139
VPRONOMINAL
p140
sVid
p141
I45
sa(dp142
VendIndex
p143
I5
sVanimacy
p144
VANIMATE
p145
sg6
I00
sVtext
p146
Vhe
p147
sVisRepresentativeMention
p148
I00
sVnumber
p149
VSINGULAR
p150
sg12
(lp151
sg14
NsVstartIndex
p152
I4
sVsentNum
p153
I5
sVgender
p154
VMALE
p155
sVposition
p156
(lp157
I5
aI1
asg21
g42
sVtype
p158
VPRONOMINAL
p159
sVid
p160
I50
sa(dp161
VendIndex
p162
I29
sVanimacy
p163
VANIMATE
p164
sg6
I00
sVtext
p165
Vhim
p166
sVisRepresentativeMention
p167
I00
sVnumber
p168
VSINGULAR
p169
sg12
(lp170
sg14
NsVstartIndex
p171
I28
sVsentNum
p172
I5
sVgender
p173
VMALE
p174
sVposition
p175
(lp176
I5
aI9
asg21
g62
sVtype
p177
VPRONOMINAL
p178
sVid
p179
I58
sa(dp180
VendIndex
p181
I14
sVanimacy
p182
VANIMATE
p183
sg6
I00
sVtext
p184
Vhe
p185
sVisRepresentativeMention
p186
I00
sVnumber
p187
VSINGULAR
p188
sg12
(lp189
sg14
NsVstartIndex
p190
I13
sVsentNum
p191
I8
sVgender
p192
VMALE
p193
sVposition
p194
(lp195
I8
aI5
asg21
g42
sVtype
p196
VPRONOMINAL
p197
sVid
p198
I82
sa(dp199
VendIndex
p200
I37
sVanimacy
p201
VANIMATE
p202
sg6
I00
sVtext
p203
Vhe
p204
sVisRepresentativeMention
p205
I00
sVnumber
p206
VSINGULAR
p207
sg12
(lp208
sg14
NsVstartIndex
p209
I36
sVsentNum
p210
I9
sVgender
p211
VMALE
p212
sVposition
p213
(lp214
I9
aI10
asg21
g42
sVtype
p215
VPRONOMINAL
p216
sVid
p217
I98
sa(dp218
VendIndex
p219
I7
sVanimacy
p220
VANIMATE
p221
sg6
I00
sVtext
p222
VFormer Republican ,  Randall Harold Cunningham
p223
sVisRepresentativeMention
p224
I01
sVnumber
p225
VSINGULAR
p226
sg12
(lp227
sg14
NsVstartIndex
p228
I1
sVsentNum
p229
I1
sVgender
p230
VMALE
p231
sVposition
p232
(lp233
I1
aI1
asg21
g42
sVtype
p234
VPROPER
p235
sVid
p236
I4
sa(dp237
VendIndex
p238
I3
sVanimacy
p239
VANIMATE
p240
sg6
I00
sVtext
p241
VCunningham
p242
sVisRepresentativeMention
p243
I00
sVnumber
p244
VSINGULAR
p245
sg12
(lp246
S'surnames'
p247
asg14
NsVstartIndex
p248
I2
sVsentNum
p249
I2
sVgender
p250
VMALE
p251
sVposition
p252
(lp253
I2
aI1
asg21
g42
sVtype
p254
VPROPER
p255
sVid
p256
I18
sa(dp257
VendIndex
p258
I3
sVanimacy
p259
VANIMATE
p260
sg6
I00
sVtext
p261
VCunningham
p262
sVisRepresentativeMention
p263
I00
sVnumber
p264
VSINGULAR
p265
sg12
(lp266
g247
asg14
NsVstartIndex
p267
I2
sVsentNum
p268
I4
sVgender
p269
VMALE
p270
sVposition
p271
(lp272
I4
aI1
asg21
g42
sVtype
p273
VPROPER
p274
sVid
p275
I41
sa(dp276
VendIndex
p277
I5
sVanimacy
p278
VANIMATE
p279
sg6
I00
sVtext
p280
VRandall Harold Cunningham's
p281
sVisRepresentativeMention
p282
I00
sVnumber
p283
VSINGULAR
p284
sg12
(lp285
S'birthNames'
p286
asg14
NsVstartIndex
p287
I1
sVsentNum
p288
I6
sVgender
p289
VMALE
p290
sVposition
p291
(lp292
I6
aI2
asg21
g22
sVtype
p293
VPROPER
p294
sVid
p295
I60
sa(dp296
VendIndex
p297
I4
sVanimacy
p298
VANIMATE
p299
sg6
I00
sVtext
p300
VCunningham's
p301
sVisRepresentativeMention
p302
I00
sVnumber
p303
VSINGULAR
p304
sg12
(lp305
g247
asg14
NsVstartIndex
p306
I2
sVsentNum
p307
I8
sVgender
p308
VMALE
p309
sVposition
p310
(lp311
I8
aI2
asg21
g22
sVtype
p312
VPROPER
p313
sVid
p314
I78
sa(dp315
VendIndex
p316
I9
sVanimacy
p317
VANIMATE
p318
sg6
I00
sVtext
p319
VCunningham
p320
sVisRepresentativeMention
p321
I00
sVnumber
p322
VSINGULAR
p323
sg12
(lp324
g247
asg14
NsVstartIndex
p325
I8
sVsentNum
p326
I8
sVgender
p327
VMALE
p328
sVposition
p329
(lp330
I8
aI3
asg21
g42
sVtype
p331
VPROPER
p332
sVid
p333
I79
sa.