(lp1
(dp2
VendIndex
p3
I19
sVanimacy
p4
VANIMATE
p5
sS'title'
p6
I00
sVtext
p7
Vthey
p8
sVisRepresentativeMention
p9
I00
sVnumber
p10
VPLURAL
p11
sS'name_type'
p12
(lp13
sS'appositive'
p14
NsVstartIndex
p15
I18
sVsentNum
p16
I8
sVgender
p17
VUNKNOWN
p18
sVposition
p19
(lp20
I8
aI6
asS'syntax'
p21
S'np-subj'
p22
sVtype
p23
VPRONOMINAL
p24
sVid
p25
I84
sa(dp26
VendIndex
p27
I23
sVanimacy
p28
VANIMATE
p29
sg6
I00
sVtext
p30
Vhis
p31
sVisRepresentativeMention
p32
I00
sVnumber
p33
VSINGULAR
p34
sg12
(lp35
sg14
NsVstartIndex
p36
I22
sVsentNum
p37
I3
sVgender
p38
VMALE
p39
sVposition
p40
(lp41
I3
aI7
asg21
S'subj-det'
p42
sVtype
p43
VPRONOMINAL
p44
sVid
p45
I33
sa(dp46
VendIndex
p47
I14
sVanimacy
p48
VANIMATE
p49
sg6
I00
sVtext
p50
Vhis
p51
sVisRepresentativeMention
p52
I00
sVnumber
p53
VSINGULAR
p54
sg12
(lp55
sg14
NsVstartIndex
p56
I13
sVsentNum
p57
I4
sVgender
p58
VMALE
p59
sVposition
p60
(lp61
I4
aI5
asg21
g42
sVtype
p62
VPRONOMINAL
p63
sVid
p64
I46
sa(dp65
VendIndex
p66
I5
sVanimacy
p67
VANIMATE
p68
sg6
I00
sVtext
p69
Vhe
p70
sVisRepresentativeMention
p71
I00
sVnumber
p72
VSINGULAR
p73
sg12
(lp74
sg14
NsVstartIndex
p75
I4
sVsentNum
p76
I5
sVgender
p77
VMALE
p78
sVposition
p79
(lp80
I5
aI1
asg21
g22
sVtype
p81
VPRONOMINAL
p82
sVid
p83
I51
sa(dp84
VendIndex
p85
I29
sVanimacy
p86
VANIMATE
p87
sg6
I00
sVtext
p88
Vhim
p89
sVisRepresentativeMention
p90
I00
sVnumber
p91
VSINGULAR
p92
sg12
(lp93
sg14
NsVstartIndex
p94
I28
sVsentNum
p95
I5
sVgender
p96
VMALE
p97
sVposition
p98
(lp99
I5
aI9
asg21
S'np-obj'
p100
sVtype
p101
VPRONOMINAL
p102
sVid
p103
I59
sa(dp104
VendIndex
p105
I14
sVanimacy
p106
VANIMATE
p107
sg6
I00
sVtext
p108
Vhe
p109
sVisRepresentativeMention
p110
I00
sVnumber
p111
VSINGULAR
p112
sg12
(lp113
sg14
NsVstartIndex
p114
I13
sVsentNum
p115
I8
sVgender
p116
VMALE
p117
sVposition
p118
(lp119
I8
aI5
asg21
g22
sVtype
p120
VPRONOMINAL
p121
sVid
p122
I83
sa(dp123
VendIndex
p124
I19
sVanimacy
p125
VANIMATE
p126
sg6
I00
sVtext
p127
Vhis
p128
sVisRepresentativeMention
p129
I00
sVnumber
p130
VSINGULAR
p131
sg12
(lp132
sg14
NsVstartIndex
p133
I18
sVsentNum
p134
I9
sVgender
p135
VMALE
p136
sVposition
p137
(lp138
I9
aI6
asg21
g42
sVtype
p139
VPRONOMINAL
p140
sVid
p141
I95
sa(dp142
VendIndex
p143
I24
sVanimacy
p144
VANIMATE
p145
sg6
I00
sVtext
p146
Vhis
p147
sVisRepresentativeMention
p148
I00
sVnumber
p149
VSINGULAR
p150
sg12
(lp151
sg14
NsVstartIndex
p152
I23
sVsentNum
p153
I9
sVgender
p154
VMALE
p155
sVposition
p156
(lp157
I9
aI8
asg21
g42
sVtype
p158
VPRONOMINAL
p159
sVid
p160
I97
sa(dp161
VendIndex
p162
I3
sVanimacy
p163
VANIMATE
p164
sg6
I00
sVtext
p165
VRonald Cunningham
p166
sVisRepresentativeMention
p167
I01
sVnumber
p168
VSINGULAR
p169
sg12
(lp170
sg14
NsVstartIndex
p171
I1
sVsentNum
p172
I1
sVgender
p173
VMALE
p174
sVposition
p175
(lp176
I1
aI1
asg21
g22
sVtype
p177
VPROPER
p178
sVid
p179
I1
sa(dp180
VendIndex
p181
I2
sVanimacy
p182
VANIMATE
p183
sg6
I00
sVtext
p184
VCunningham
p185
sVisRepresentativeMention
p186
I00
sVnumber
p187
VSINGULAR
p188
sg12
(lp189
S'surnames'
p190
asg14
NsVstartIndex
p191
I1
sVsentNum
p192
I2
sVgender
p193
VMALE
p194
sVposition
p195
(lp196
I2
aI1
asg21
g22
sVtype
p197
VPROPER
p198
sVid
p199
I20
sa(dp200
VendIndex
p201
I3
sVanimacy
p202
VANIMATE
p203
sg6
I00
sVtext
p204
VCunningham
p205
sVisRepresentativeMention
p206
I00
sVnumber
p207
VSINGULAR
p208
sg12
(lp209
g190
asg14
NsVstartIndex
p210
I2
sVsentNum
p211
I4
sVgender
p212
VMALE
p213
sVposition
p214
(lp215
I4
aI1
asg21
g22
sVtype
p216
VPROPER
p217
sVid
p218
I42
sa(dp219
VendIndex
p220
I4
sVanimacy
p221
VANIMATE
p222
sg6
I00
sVtext
p223
VCunningham's
p224
sVisRepresentativeMention
p225
I00
sVnumber
p226
VSINGULAR
p227
sg12
(lp228
g190
asg14
NsVstartIndex
p229
I2
sVsentNum
p230
I8
sVgender
p231
VMALE
p232
sVposition
p233
(lp234
I8
aI2
asg21
g42
sVtype
p235
VPROPER
p236
sVid
p237
I79
sa(dp238
VendIndex
p239
I9
sVanimacy
p240
VANIMATE
p241
sg6
I00
sVtext
p242
VCunningham
p243
sVisRepresentativeMention
p244
I00
sVnumber
p245
VSINGULAR
p246
sg12
(lp247
g190
asg14
NsVstartIndex
p248
I8
sVsentNum
p249
I8
sVgender
p250
VMALE
p251
sVposition
p252
(lp253
I8
aI3
asg21
g22
sVtype
p254
VPROPER
p255
sVid
p256
I80
sa(dp257
VendIndex
p258
I8
sVanimacy
p259
VANIMATE
p260
sg6
I00
sVtext
p261
VRandy
p262
sVisRepresentativeMention
p263
I01
sVnumber
p264
VSINGULAR
p265
sg12
(lp266
sg14
NsVstartIndex
p267
I7
sVsentNum
p268
I1
sVgender
p269
VMALE
p270
sVposition
p271
(lp272
I1
aI3
asg21
g22
sVtype
p273
VPROPER
p274
sVid
p275
I2
sa(dp276
VendIndex
p277
I15
sVanimacy
p278
VANIMATE
p279
sg6
I00
sVtext
p280
VRandy
p281
sVisRepresentativeMention
p282
I00
sVnumber
p283
VSINGULAR
p284
sg12
(lp285
sg14
NsVstartIndex
p286
I14
sVsentNum
p287
I9
sVgender
p288
VMALE
p289
sVposition
p290
(lp291
I9
aI4
asg21
g22
sVtype
p292
VPROPER
p293
sVid
p294
I89
sa.