(lp1
(dp2
VendIndex
p3
I23
sVanimacy
p4
VANIMATE
p5
sS'title'
p6
I00
sVtext
p7
Vhis
p8
sVisRepresentativeMention
p9
I00
sVnumber
p10
VSINGULAR
p11
sS'name_type'
p12
(lp13
sS'appositive'
p14
NsVstartIndex
p15
I22
sVsentNum
p16
I3
sVgender
p17
VMALE
p18
sVposition
p19
(lp20
I3
aI7
asS'syntax'
p21
S'subj-det'
p22
sVtype
p23
VPRONOMINAL
p24
sVid
p25
I31
sa(dp26
VendIndex
p27
I14
sVanimacy
p28
VANIMATE
p29
sg6
I00
sVtext
p30
Vhis
p31
sVisRepresentativeMention
p32
I00
sVnumber
p33
VSINGULAR
p34
sg12
(lp35
sg14
NsVstartIndex
p36
I13
sVsentNum
p37
I4
sVgender
p38
VMALE
p39
sVposition
p40
(lp41
I4
aI5
asg21
g22
sVtype
p42
VPRONOMINAL
p43
sVid
p44
I43
sa(dp45
VendIndex
p46
I5
sVanimacy
p47
VANIMATE
p48
sg6
I00
sVtext
p49
Vhe
p50
sVisRepresentativeMention
p51
I00
sVnumber
p52
VSINGULAR
p53
sg12
(lp54
sg14
NsVstartIndex
p55
I4
sVsentNum
p56
I5
sVgender
p57
VMALE
p58
sVposition
p59
(lp60
I5
aI1
asg21
S'np-subj'
p61
sVtype
p62
VPRONOMINAL
p63
sVid
p64
I48
sa(dp65
VendIndex
p66
I29
sVanimacy
p67
VANIMATE
p68
sg6
I00
sVtext
p69
Vhim
p70
sVisRepresentativeMention
p71
I00
sVnumber
p72
VSINGULAR
p73
sg12
(lp74
sg14
NsVstartIndex
p75
I28
sVsentNum
p76
I5
sVgender
p77
VMALE
p78
sVposition
p79
(lp80
I5
aI9
asg21
S'np-obj'
p81
sVtype
p82
VPRONOMINAL
p83
sVid
p84
I56
sa(dp85
VendIndex
p86
I14
sVanimacy
p87
VANIMATE
p88
sg6
I00
sVtext
p89
Vhe
p90
sVisRepresentativeMention
p91
I00
sVnumber
p92
VSINGULAR
p93
sg12
(lp94
sg14
NsVstartIndex
p95
I13
sVsentNum
p96
I8
sVgender
p97
VMALE
p98
sVposition
p99
(lp100
I8
aI5
asg21
g61
sVtype
p101
VPRONOMINAL
p102
sVid
p103
I78
sa(dp104
VendIndex
p105
I18
sVanimacy
p106
VANIMATE
p107
sg6
I00
sVtext
p108
Vhis
p109
sVisRepresentativeMention
p110
I00
sVnumber
p111
VSINGULAR
p112
sg12
(lp113
sg14
NsVstartIndex
p114
I17
sVsentNum
p115
I9
sVgender
p116
VMALE
p117
sVposition
p118
(lp119
I9
aI6
asg21
g22
sVtype
p120
VPRONOMINAL
p121
sVid
p122
I90
sa(dp123
VendIndex
p124
I23
sVanimacy
p125
VANIMATE
p126
sg6
I00
sVtext
p127
Vhis
p128
sVisRepresentativeMention
p129
I00
sVnumber
p130
VSINGULAR
p131
sg12
(lp132
sg14
NsVstartIndex
p133
I22
sVsentNum
p134
I9
sVgender
p135
VMALE
p136
sVposition
p137
(lp138
I9
aI8
asg21
g22
sVtype
p139
VPRONOMINAL
p140
sVid
p141
I92
sa(dp142
VendIndex
p143
I37
sVanimacy
p144
VANIMATE
p145
sg6
I00
sVtext
p146
Vhe
p147
sVisRepresentativeMention
p148
I00
sVnumber
p149
VSINGULAR
p150
sg12
(lp151
sg14
NsVstartIndex
p152
I36
sVsentNum
p153
I9
sVgender
p154
VMALE
p155
sVposition
p156
(lp157
I9
aI10
asg21
g61
sVtype
p158
VPRONOMINAL
p159
sVid
p160
I94
sa(dp161
VendIndex
p162
I19
sVanimacy
p163
VANIMATE
p164
sg6
I00
sVtext
p165
Vthey
p166
sVisRepresentativeMention
p167
I00
sVnumber
p168
VPLURAL
p169
sg12
(lp170
sg14
NsVstartIndex
p171
I18
sVsentNum
p172
I8
sVgender
p173
VUNKNOWN
p174
sVposition
p175
(lp176
I8
aI6
asg21
g61
sVtype
p177
VPRONOMINAL
p178
sVid
p179
I79
sa(dp180
VendIndex
p181
I4
sVanimacy
p182
VANIMATE
p183
sg6
I00
sVtext
p184
VRandall Harold Cunningham
p185
sVisRepresentativeMention
p186
I01
sVnumber
p187
VSINGULAR
p188
sg12
(lp189
S'birthNames'
p190
asg14
NsVstartIndex
p191
I1
sVsentNum
p192
I1
sVgender
p193
VMALE
p194
sVposition
p195
(lp196
I1
aI2
asg21
g22
sVtype
p197
VPROPER
p198
sVid
p199
I1
sa(dp200
VendIndex
p201
I2
sVanimacy
p202
VANIMATE
p203
sg6
I00
sVtext
p204
VCunningham
p205
sVisRepresentativeMention
p206
I00
sVnumber
p207
VSINGULAR
p208
sg12
(lp209
S'surnames'
p210
asg14
NsVstartIndex
p211
I1
sVsentNum
p212
I2
sVgender
p213
VMALE
p214
sVposition
p215
(lp216
I2
aI1
asg21
g61
sVtype
p217
VPROPER
p218
sVid
p219
I17
sa(dp220
VendIndex
p221
I41
sVanimacy
p222
VANIMATE
p223
sg6
I00
sVtext
p224
VCunningham
p225
sVisRepresentativeMention
p226
I00
sVnumber
p227
VSINGULAR
p228
sg12
(lp229
g210
asg14
NsVstartIndex
p230
I40
sVsentNum
p231
I3
sVgender
p232
VMALE
p233
sVposition
p234
(lp235
I3
aI13
asg21
g81
sVtype
p236
VPROPER
p237
sVid
p238
I23
sa(dp239
VendIndex
p240
I3
sVanimacy
p241
VANIMATE
p242
sg6
I00
sVtext
p243
VCunningham
p244
sVisRepresentativeMention
p245
I00
sVnumber
p246
VSINGULAR
p247
sg12
(lp248
g210
asg14
NsVstartIndex
p249
I2
sVsentNum
p250
I4
sVgender
p251
VMALE
p252
sVposition
p253
(lp254
I4
aI1
asg21
g61
sVtype
p255
VPROPER
p256
sVid
p257
I39
sa(dp258
VendIndex
p259
I3
sVanimacy
p260
VANIMATE
p261
sg6
I00
sVtext
p262
VCunningham's
p263
sVisRepresentativeMention
p264
I00
sVnumber
p265
VSINGULAR
p266
sg12
(lp267
g210
asg14
NsVstartIndex
p268
I1
sVsentNum
p269
I6
sVgender
p270
VMALE
p271
sVposition
p272
(lp273
I6
aI2
asg21
g22
sVtype
p274
VPROPER
p275
sVid
p276
I58
sa(dp277
VendIndex
p278
I4
sVanimacy
p279
VANIMATE
p280
sg6
I00
sVtext
p281
VCunningham's
p282
sVisRepresentativeMention
p283
I00
sVnumber
p284
VSINGULAR
p285
sg12
(lp286
g210
asg14
NsVstartIndex
p287
I2
sVsentNum
p288
I8
sVgender
p289
VMALE
p290
sVposition
p291
(lp292
I8
aI2
asg21
g22
sVtype
p293
VPROPER
p294
sVid
p295
I74
sa(dp296
VendIndex
p297
I9
sVanimacy
p298
VANIMATE
p299
sg6
I00
sVtext
p300
VCunningham
p301
sVisRepresentativeMention
p302
I00
sVnumber
p303
VSINGULAR
p304
sg12
(lp305
g210
asg14
NsVstartIndex
p306
I8
sVsentNum
p307
I8
sVgender
p308
VMALE
p309
sVposition
p310
(lp311
I8
aI3
asg21
g61
sVtype
p312
VPROPER
p313
sVid
p314
I75
sa(dp315
VendIndex
p316
I14
sVanimacy
p317
VANIMATE
p318
sg6
I00
sVtext
p319
VCunningham
p320
sVisRepresentativeMention
p321
I00
sVnumber
p322
VSINGULAR
p323
sg12
(lp324
g210
asg14
NsVstartIndex
p325
I13
sVsentNum
p326
I9
sVgender
p327
VMALE
p328
sVposition
p329
(lp330
I9
aI4
asg21
g61
sVtype
p331
VPROPER
p332
sVid
p333
I84
sa.