(lp1
(dp2
VendIndex
p3
I30
sVanimacy
p4
VANIMATE
p5
sS'title'
p6
I00
sVtext
p7
Vhe
p8
sVisRepresentativeMention
p9
I00
sVnumber
p10
VSINGULAR
p11
sS'name_type'
p12
(lp13
sS'appositive'
p14
NsVstartIndex
p15
I29
sVsentNum
p16
I1
sVgender
p17
VMALE
p18
sVposition
p19
(lp20
I1
aI10
asS'syntax'
p21
S'np-subj'
p22
sVtype
p23
VPRONOMINAL
p24
sVid
p25
I11
sa(dp26
VendIndex
p27
I14
sVanimacy
p28
VANIMATE
p29
sg6
I00
sVtext
p30
Vhis
p31
sVisRepresentativeMention
p32
I00
sVnumber
p33
VSINGULAR
p34
sg12
(lp35
sg14
NsVstartIndex
p36
I13
sVsentNum
p37
I4
sVgender
p38
VMALE
p39
sVposition
p40
(lp41
I4
aI5
asg21
S'subj-det'
p42
sVtype
p43
VPRONOMINAL
p44
sVid
p45
I44
sa(dp46
VendIndex
p47
I5
sVanimacy
p48
VANIMATE
p49
sg6
I00
sVtext
p50
Vhe
p51
sVisRepresentativeMention
p52
I00
sVnumber
p53
VSINGULAR
p54
sg12
(lp55
sg14
NsVstartIndex
p56
I4
sVsentNum
p57
I5
sVgender
p58
VMALE
p59
sVposition
p60
(lp61
I5
aI1
asg21
g22
sVtype
p62
VPRONOMINAL
p63
sVid
p64
I49
sa(dp65
VendIndex
p66
I29
sVanimacy
p67
VANIMATE
p68
sg6
I00
sVtext
p69
Vhim
p70
sVisRepresentativeMention
p71
I00
sVnumber
p72
VSINGULAR
p73
sg12
(lp74
sg14
NsVstartIndex
p75
I28
sVsentNum
p76
I5
sVgender
p77
VMALE
p78
sVposition
p79
(lp80
I5
aI9
asg21
S'np-obj'
p81
sVtype
p82
VPRONOMINAL
p83
sVid
p84
I57
sa(dp85
VendIndex
p86
I14
sVanimacy
p87
VANIMATE
p88
sg6
I00
sVtext
p89
Vhe
p90
sVisRepresentativeMention
p91
I00
sVnumber
p92
VSINGULAR
p93
sg12
(lp94
sg14
NsVstartIndex
p95
I13
sVsentNum
p96
I8
sVgender
p97
VMALE
p98
sVposition
p99
(lp100
I8
aI5
asg21
g22
sVtype
p101
VPRONOMINAL
p102
sVid
p103
I81
sa(dp104
VendIndex
p105
I20
sVanimacy
p106
VANIMATE
p107
sg6
I00
sVtext
p108
Vhis
p109
sVisRepresentativeMention
p110
I00
sVnumber
p111
VSINGULAR
p112
sg12
(lp113
sg14
NsVstartIndex
p114
I19
sVsentNum
p115
I9
sVgender
p116
VMALE
p117
sVposition
p118
(lp119
I9
aI6
asg21
g42
sVtype
p120
VPRONOMINAL
p121
sVid
p122
I93
sa(dp123
VendIndex
p124
I26
sVanimacy
p125
VANIMATE
p126
sg6
I00
sVtext
p127
Vhis
p128
sVisRepresentativeMention
p129
I00
sVnumber
p130
VSINGULAR
p131
sg12
(lp132
sg14
NsVstartIndex
p133
I25
sVsentNum
p134
I9
sVgender
p135
VMALE
p136
sVposition
p137
(lp138
I9
aI8
asg21
g42
sVtype
p139
VPRONOMINAL
p140
sVid
p141
I95
sa(dp142
VendIndex
p143
I19
sVanimacy
p144
VANIMATE
p145
sg6
I00
sVtext
p146
Vthey
p147
sVisRepresentativeMention
p148
I00
sVnumber
p149
VPLURAL
p150
sg12
(lp151
sg14
NsVstartIndex
p152
I18
sVsentNum
p153
I8
sVgender
p154
VUNKNOWN
p155
sVposition
p156
(lp157
I8
aI6
asg21
g22
sVtype
p158
VPRONOMINAL
p159
sVid
p160
I82
sa(dp161
VendIndex
p162
I6
sVanimacy
p163
VANIMATE
p164
sg6
I00
sVtext
p165
VRandall Harold Cunninghamme
p166
sVisRepresentativeMention
p167
I01
sVnumber
p168
VSINGULAR
p169
sg12
(lp170
S'birthNames'
p171
asg14
NsVstartIndex
p172
I3
sVsentNum
p173
I1
sVgender
p174
VMALE
p175
sVposition
p176
(lp177
I1
aI2
asg21
g22
sVtype
p178
VPROPER
p179
sVid
p180
I1
sa(dp181
VendIndex
p182
I3
sVanimacy
p183
VANIMATE
p184
sg6
I00
sVtext
p185
VCunningham
p186
sVisRepresentativeMention
p187
I00
sVnumber
p188
VSINGULAR
p189
sg12
(lp190
S'surnames'
p191
asg14
NsVstartIndex
p192
I2
sVsentNum
p193
I4
sVgender
p194
VMALE
p195
sVposition
p196
(lp197
I4
aI1
asg21
g22
sVtype
p198
VPROPER
p199
sVid
p200
I40
sa(dp201
VendIndex
p202
I4
sVanimacy
p203
VANIMATE
p204
sg6
I00
sVtext
p205
VCunningham's
p206
sVisRepresentativeMention
p207
I00
sVnumber
p208
VSINGULAR
p209
sg12
(lp210
g191
asg14
NsVstartIndex
p211
I2
sVsentNum
p212
I8
sVgender
p213
VMALE
p214
sVposition
p215
(lp216
I8
aI2
asg21
g42
sVtype
p217
VPROPER
p218
sVid
p219
I77
sa(dp220
VendIndex
p221
I9
sVanimacy
p222
VANIMATE
p223
sg6
I00
sVtext
p224
VCunningham
p225
sVisRepresentativeMention
p226
I00
sVnumber
p227
VSINGULAR
p228
sg12
(lp229
g191
asg14
NsVstartIndex
p230
I8
sVsentNum
p231
I8
sVgender
p232
VMALE
p233
sVposition
p234
(lp235
I8
aI3
asg21
g22
sVtype
p236
VPROPER
p237
sVid
p238
I78
sa(dp239
VendIndex
p240
I16
sVanimacy
p241
VANIMATE
p242
sg6
I00
sVtext
p243
VRandall Harold Cunningham
p244
sVisRepresentativeMention
p245
I00
sVnumber
p246
VSINGULAR
p247
sg12
(lp248
g171
asg14
NsVstartIndex
p249
I13
sVsentNum
p250
I9
sVgender
p251
VMALE
p252
sVposition
p253
(lp254
I9
aI4
asg21
g22
sVtype
p255
VPROPER
p256
sVid
p257
I87
sa.