(lp1
(dp2
VendIndex
p3
I10
sVanimacy
p4
VANIMATE
p5
sS'title'
p6
I00
sVtext
p7
Vhis
p8
sVisRepresentativeMention
p9
I00
sVnumber
p10
VSINGULAR
p11
sS'name_type'
p12
(lp13
sS'appositive'
p14
NsVstartIndex
p15
I9
sVsentNum
p16
I7
sVgender
p17
VMALE
p18
sVposition
p19
(lp20
I7
aI4
asS'syntax'
p21
S'subj-det'
p22
sVtype
p23
VPRONOMINAL
p24
sVid
p25
I68
sa(dp26
VendIndex
p27
I19
sVanimacy
p28
VANIMATE
p29
sg6
I00
sVtext
p30
Vthey
p31
sVisRepresentativeMention
p32
I00
sVnumber
p33
VPLURAL
p34
sg12
(lp35
sg14
NsVstartIndex
p36
I18
sVsentNum
p37
I8
sVgender
p38
VUNKNOWN
p39
sVposition
p40
(lp41
I8
aI6
asg21
S'np-subj'
p42
sVtype
p43
VPRONOMINAL
p44
sVid
p45
I83
sa(dp46
VendIndex
p47
I31
sVanimacy
p48
VANIMATE
p49
sg6
I00
sVtext
p50
Vhe
p51
sVisRepresentativeMention
p52
I00
sVnumber
p53
VSINGULAR
p54
sg12
(lp55
sg14
NsVstartIndex
p56
I30
sVsentNum
p57
I1
sVgender
p58
VMALE
p59
sVposition
p60
(lp61
I1
aI10
asg21
g42
sVtype
p62
VPRONOMINAL
p63
sVid
p64
I11
sa(dp65
VendIndex
p66
I14
sVanimacy
p67
VANIMATE
p68
sg6
I00
sVtext
p69
Vhis
p70
sVisRepresentativeMention
p71
I00
sVnumber
p72
VSINGULAR
p73
sg12
(lp74
sg14
NsVstartIndex
p75
I13
sVsentNum
p76
I4
sVgender
p77
VMALE
p78
sVposition
p79
(lp80
I4
aI5
asg21
g22
sVtype
p81
VPRONOMINAL
p82
sVid
p83
I45
sa(dp84
VendIndex
p85
I5
sVanimacy
p86
VANIMATE
p87
sg6
I00
sVtext
p88
Vhe
p89
sVisRepresentativeMention
p90
I00
sVnumber
p91
VSINGULAR
p92
sg12
(lp93
sg14
NsVstartIndex
p94
I4
sVsentNum
p95
I5
sVgender
p96
VMALE
p97
sVposition
p98
(lp99
I5
aI1
asg21
g42
sVtype
p100
VPRONOMINAL
p101
sVid
p102
I50
sa(dp103
VendIndex
p104
I29
sVanimacy
p105
VANIMATE
p106
sg6
I00
sVtext
p107
Vhim
p108
sVisRepresentativeMention
p109
I00
sVnumber
p110
VSINGULAR
p111
sg12
(lp112
sg14
NsVstartIndex
p113
I28
sVsentNum
p114
I5
sVgender
p115
VMALE
p116
sVposition
p117
(lp118
I5
aI9
asg21
S'np-obj'
p119
sVtype
p120
VPRONOMINAL
p121
sVid
p122
I58
sa(dp123
VendIndex
p124
I14
sVanimacy
p125
VANIMATE
p126
sg6
I00
sVtext
p127
Vhe
p128
sVisRepresentativeMention
p129
I00
sVnumber
p130
VSINGULAR
p131
sg12
(lp132
sg14
NsVstartIndex
p133
I13
sVsentNum
p134
I8
sVgender
p135
VMALE
p136
sVposition
p137
(lp138
I8
aI5
asg21
g42
sVtype
p139
VPRONOMINAL
p140
sVid
p141
I82
sa(dp142
VendIndex
p143
I18
sVanimacy
p144
VANIMATE
p145
sg6
I00
sVtext
p146
Vhis
p147
sVisRepresentativeMention
p148
I00
sVnumber
p149
VSINGULAR
p150
sg12
(lp151
sg14
NsVstartIndex
p152
I17
sVsentNum
p153
I9
sVgender
p154
VMALE
p155
sVposition
p156
(lp157
I9
aI7
asg21
g22
sVtype
p158
VPRONOMINAL
p159
sVid
p160
I96
sa(dp161
VendIndex
p162
I23
sVanimacy
p163
VANIMATE
p164
sg6
I00
sVtext
p165
Vhis
p166
sVisRepresentativeMention
p167
I00
sVnumber
p168
VSINGULAR
p169
sg12
(lp170
sg14
NsVstartIndex
p171
I22
sVsentNum
p172
I9
sVgender
p173
VMALE
p174
sVposition
p175
(lp176
I9
aI9
asg21
g22
sVtype
p177
VPRONOMINAL
p178
sVid
p179
I98
sa(dp180
VendIndex
p181
I4
sVanimacy
p182
VANIMATE
p183
sg6
I00
sVtext
p184
VRandall Harold Cunningham
p185
sVisRepresentativeMention
p186
I01
sVnumber
p187
VSINGULAR
p188
sg12
(lp189
S'birthNames'
p190
asg14
NsVstartIndex
p191
I1
sVsentNum
p192
I1
sVgender
p193
VMALE
p194
sVposition
p195
(lp196
I1
aI1
asg21
g42
sVtype
p197
VPROPER
p198
sVid
p199
I1
sa(dp200
VendIndex
p201
I2
sVanimacy
p202
VANIMATE
p203
sg6
I00
sVtext
p204
VCunningham
p205
sVisRepresentativeMention
p206
I00
sVnumber
p207
VSINGULAR
p208
sg12
(lp209
S'surnames'
p210
asg14
NsVstartIndex
p211
I1
sVsentNum
p212
I2
sVgender
p213
VMALE
p214
sVposition
p215
(lp216
I2
aI1
asg21
g42
sVtype
p217
VPROPER
p218
sVid
p219
I18
sa(dp220
VendIndex
p221
I41
sVanimacy
p222
VANIMATE
p223
sg6
I00
sVtext
p224
VCunningham
p225
sVisRepresentativeMention
p226
I00
sVnumber
p227
VSINGULAR
p228
sg12
(lp229
g210
asg14
NsVstartIndex
p230
I40
sVsentNum
p231
I3
sVgender
p232
VMALE
p233
sVposition
p234
(lp235
I3
aI14
asg21
g119
sVtype
p236
VPROPER
p237
sVid
p238
I24
sa(dp239
VendIndex
p240
I3
sVanimacy
p241
VANIMATE
p242
sg6
I00
sVtext
p243
VCunningham
p244
sVisRepresentativeMention
p245
I00
sVnumber
p246
VSINGULAR
p247
sg12
(lp248
g210
asg14
NsVstartIndex
p249
I2
sVsentNum
p250
I4
sVgender
p251
VMALE
p252
sVposition
p253
(lp254
I4
aI1
asg21
g42
sVtype
p255
VPROPER
p256
sVid
p257
I41
sa(dp258
VendIndex
p259
I3
sVanimacy
p260
VANIMATE
p261
sg6
I00
sVtext
p262
VCunningham's
p263
sVisRepresentativeMention
p264
I00
sVnumber
p265
VSINGULAR
p266
sg12
(lp267
g210
asg14
NsVstartIndex
p268
I1
sVsentNum
p269
I6
sVgender
p270
VMALE
p271
sVposition
p272
(lp273
I6
aI2
asg21
g22
sVtype
p274
VPROPER
p275
sVid
p276
I60
sa(dp277
VendIndex
p278
I4
sVanimacy
p279
VANIMATE
p280
sg6
I00
sVtext
p281
VCunningham's
p282
sVisRepresentativeMention
p283
I00
sVnumber
p284
VSINGULAR
p285
sg12
(lp286
g210
asg14
NsVstartIndex
p287
I2
sVsentNum
p288
I8
sVgender
p289
VMALE
p290
sVposition
p291
(lp292
I8
aI2
asg21
g22
sVtype
p293
VPROPER
p294
sVid
p295
I78
sa(dp296
VendIndex
p297
I9
sVanimacy
p298
VANIMATE
p299
sg6
I00
sVtext
p300
VCunningham
p301
sVisRepresentativeMention
p302
I00
sVnumber
p303
VSINGULAR
p304
sg12
(lp305
g210
asg14
NsVstartIndex
p306
I8
sVsentNum
p307
I8
sVgender
p308
VMALE
p309
sVposition
p310
(lp311
I8
aI3
asg21
g42
sVtype
p312
VPROPER
p313
sVid
p314
I79
sa(dp315
VendIndex
p316
I8
sVanimacy
p317
VANIMATE
p318
sg6
I00
sVtext
p319
VCunningham
p320
sVisRepresentativeMention
p321
I00
sVnumber
p322
VSINGULAR
p323
sg12
(lp324
g210
asg14
NsVstartIndex
p325
I7
sVsentNum
p326
I9
sVgender
p327
VMALE
p328
sVposition
p329
(lp330
I9
aI3
asg21
g22
sVtype
p331
VPROPER
p332
sVid
p333
I88
sa(dp334
VendIndex
p335
I14
sVanimacy
p336
VANIMATE
p337
sg6
I00
sVtext
p338
VCunningham
p339
sVisRepresentativeMention
p340
I00
sVnumber
p341
VSINGULAR
p342
sg12
(lp343
g210
asg14
NsVstartIndex
p344
I13
sVsentNum
p345
I9
sVgender
p346
VMALE
p347
sVposition
p348
(lp349
I9
aI5
asg21
g42
sVtype
p350
VPROPER
p351
sVid
p352
I89
sa(dp353
VendIndex
p354
I37
sVanimacy
p355
VANIMATE
p356
sg6
I00
sVtext
p357
VCunningham
p358
sVisRepresentativeMention
p359
I00
sVnumber
p360
VSINGULAR
p361
sg12
(lp362
g210
asg14
NsVstartIndex
p363
I36
sVsentNum
p364
I9
sVgender
p365
VMALE
p366
sVposition
p367
(lp368
I9
aI11
asg21
g42
sVtype
p369
VPROPER
p370
sVid
p371
I90
sa.