(lp1
(dp2
VendIndex
p3
I10
sVanimacy
p4
VANIMATE
p5
sS'title'
p6
I00
sVtext
p7
Vhis
p8
sVisRepresentativeMention
p9
I00
sVnumber
p10
VSINGULAR
p11
sS'name_type'
p12
(lp13
sS'appositive'
p14
NsVstartIndex
p15
I9
sVsentNum
p16
I7
sVgender
p17
VMALE
p18
sVposition
p19
(lp20
I7
aI4
asS'syntax'
p21
S'subj-det'
p22
sVtype
p23
VPRONOMINAL
p24
sVid
p25
I70
sa(dp26
VendIndex
p27
I22
sVanimacy
p28
VANIMATE
p29
sg6
I00
sVtext
p30
Vthe  he
p31
sVisRepresentativeMention
p32
I00
sVnumber
p33
VSINGULAR
p34
sg12
(lp35
sg14
NsVstartIndex
p36
I20
sVsentNum
p37
I7
sVgender
p38
VMALE
p39
sVposition
p40
(lp41
I7
aI8
asg21
S'np-subj'
p42
sVtype
p43
VPRONOMINAL
p44
sVid
p45
I74
sa(dp46
VendIndex
p47
I23
sVanimacy
p48
VANIMATE
p49
sg6
I00
sVtext
p50
Vhis
p51
sVisRepresentativeMention
p52
I00
sVnumber
p53
VSINGULAR
p54
sg12
(lp55
sg14
NsVstartIndex
p56
I22
sVsentNum
p57
I3
sVgender
p58
VMALE
p59
sVposition
p60
(lp61
I3
aI8
asg21
g22
sVtype
p62
VPRONOMINAL
p63
sVid
p64
I36
sa(dp65
VendIndex
p66
I18
sVanimacy
p67
VANIMATE
p68
sg6
I00
sVtext
p69
Vhis
p70
sVisRepresentativeMention
p71
I00
sVnumber
p72
VSINGULAR
p73
sg12
(lp74
sg14
NsVstartIndex
p75
I17
sVsentNum
p76
I9
sVgender
p77
VMALE
p78
sVposition
p79
(lp80
I9
aI6
asg21
g22
sVtype
p81
VPRONOMINAL
p82
sVid
p83
I96
sa(dp84
VendIndex
p85
I23
sVanimacy
p86
VANIMATE
p87
sg6
I00
sVtext
p88
Vhis
p89
sVisRepresentativeMention
p90
I00
sVnumber
p91
VSINGULAR
p92
sg12
(lp93
sg14
NsVstartIndex
p94
I22
sVsentNum
p95
I9
sVgender
p96
VMALE
p97
sVposition
p98
(lp99
I9
aI8
asg21
g22
sVtype
p100
VPRONOMINAL
p101
sVid
p102
I98
sa(dp103
VendIndex
p104
I19
sVanimacy
p105
VANIMATE
p106
sg6
I00
sVtext
p107
Vthey
p108
sVisRepresentativeMention
p109
I00
sVnumber
p110
VPLURAL
p111
sg12
(lp112
sg14
NsVstartIndex
p113
I18
sVsentNum
p114
I8
sVgender
p115
VUNKNOWN
p116
sVposition
p117
(lp118
I8
aI6
asg21
g42
sVtype
p119
VPRONOMINAL
p120
sVid
p121
I85
sa(dp122
VendIndex
p123
I33
sVanimacy
p124
VANIMATE
p125
sg6
I00
sVtext
p126
Vhim
p127
sVisRepresentativeMention
p128
I00
sVnumber
p129
VSINGULAR
p130
sg12
(lp131
sg14
NsVstartIndex
p132
I32
sVsentNum
p133
I1
sVgender
p134
VMALE
p135
sVposition
p136
(lp137
I1
aI12
asg21
S'np-obj'
p138
sVtype
p139
VPRONOMINAL
p140
sVid
p141
I13
sa(dp142
VendIndex
p143
I36
sVanimacy
p144
VANIMATE
p145
sg6
I00
sVtext
p146
Vhe
p147
sVisRepresentativeMention
p148
I00
sVnumber
p149
VSINGULAR
p150
sg12
(lp151
sg14
NsVstartIndex
p152
I35
sVsentNum
p153
I1
sVgender
p154
VMALE
p155
sVposition
p156
(lp157
I1
aI13
asg21
g42
sVtype
p158
VPRONOMINAL
p159
sVid
p160
I14
sa(dp161
VendIndex
p162
I14
sVanimacy
p163
VANIMATE
p164
sg6
I00
sVtext
p165
Vhis
p166
sVisRepresentativeMention
p167
I00
sVnumber
p168
VSINGULAR
p169
sg12
(lp170
sg14
NsVstartIndex
p171
I13
sVsentNum
p172
I4
sVgender
p173
VMALE
p174
sVposition
p175
(lp176
I4
aI5
asg21
g22
sVtype
p177
VPRONOMINAL
p178
sVid
p179
I47
sa(dp180
VendIndex
p181
I5
sVanimacy
p182
VANIMATE
p183
sg6
I00
sVtext
p184
Vhe
p185
sVisRepresentativeMention
p186
I00
sVnumber
p187
VSINGULAR
p188
sg12
(lp189
sg14
NsVstartIndex
p190
I4
sVsentNum
p191
I5
sVgender
p192
VMALE
p193
sVposition
p194
(lp195
I5
aI1
asg21
g42
sVtype
p196
VPRONOMINAL
p197
sVid
p198
I52
sa(dp199
VendIndex
p200
I29
sVanimacy
p201
VANIMATE
p202
sg6
I00
sVtext
p203
Vhim
p204
sVisRepresentativeMention
p205
I00
sVnumber
p206
VSINGULAR
p207
sg12
(lp208
sg14
NsVstartIndex
p209
I28
sVsentNum
p210
I5
sVgender
p211
VMALE
p212
sVposition
p213
(lp214
I5
aI9
asg21
g138
sVtype
p215
VPRONOMINAL
p216
sVid
p217
I60
sa(dp218
VendIndex
p219
I14
sVanimacy
p220
VANIMATE
p221
sg6
I00
sVtext
p222
Vhe
p223
sVisRepresentativeMention
p224
I00
sVnumber
p225
VSINGULAR
p226
sg12
(lp227
sg14
NsVstartIndex
p228
I13
sVsentNum
p229
I8
sVgender
p230
VMALE
p231
sVposition
p232
(lp233
I8
aI5
asg21
g42
sVtype
p234
VPRONOMINAL
p235
sVid
p236
I84
sa(dp237
VendIndex
p238
I2
sVanimacy
p239
VANIMATE
p240
sg6
I00
sVtext
p241
VRandy
p242
sVisRepresentativeMention
p243
I00
sVnumber
p244
VSINGULAR
p245
sg12
(lp246
sg14
NsVstartIndex
p247
I1
sVsentNum
p248
I2
sVgender
p249
VMALE
p250
sVposition
p251
(lp252
I2
aI1
asg21
g42
sVtype
p253
VPROPER
p254
sVid
p255
I21
sa(dp256
VendIndex
p257
I14
sVanimacy
p258
VANIMATE
p259
sg6
I00
sVtext
p260
VRandy
p261
sVisRepresentativeMention
p262
I00
sVnumber
p263
VSINGULAR
p264
sg12
(lp265
sg14
NsVstartIndex
p266
I13
sVsentNum
p267
I9
sVgender
p268
VMALE
p269
sVposition
p270
(lp271
I9
aI4
asg21
g42
sVtype
p272
VPROPER
p273
sVid
p274
I90
sa(dp275
VendIndex
p276
I4
sVanimacy
p277
VANIMATE
p278
sg6
I00
sVtext
p279
VRandall Harold Cunningham
p280
sVisRepresentativeMention
p281
I01
sVnumber
p282
VSINGULAR
p283
sg12
(lp284
S'birthNames'
p285
asg14
(dp286
VendIndex
p287
I12
sVanimacy
p288
VANIMATE
p289
sg6
I00
sVtext
p290
VRepublican member of the United States House
p291
sVisRepresentativeMention
p292
I00
sVnumber
p293
VSINGULAR
p294
sg12
(lp295
sg14
NsVstartIndex
p296
I5
sVsentNum
p297
I1
sVgender
p298
VMALE
p299
sVposition
p300
(lp301
I1
aI3
asVtype
p302
VNOMINAL
p303
sVid
p304
I6
ssVstartIndex
p305
I1
sVsentNum
p306
I1
sVgender
p307
VMALE
p308
sVposition
p309
(lp310
I1
aI1
asg21
g42
sVtype
p311
VPROPER
p312
sVid
p313
I1
sa(dp314
VendIndex
p315
I43
sVanimacy
p316
VANIMATE
p317
sg6
I00
sVtext
p318
VRandall Harold Cunningham
p319
sVisRepresentativeMention
p320
I00
sVnumber
p321
VSINGULAR
p322
sg12
(lp323
g285
asg14
NsVstartIndex
p324
I40
sVsentNum
p325
I3
sVgender
p326
VMALE
p327
sVposition
p328
(lp329
I3
aI13
asg21
g138
sVtype
p330
VPROPER
p331
sVid
p332
I27
sa(dp333
VendIndex
p334
I3
sVanimacy
p335
VANIMATE
p336
sg6
I00
sVtext
p337
VCunningham
p338
sVisRepresentativeMention
p339
I00
sVnumber
p340
VSINGULAR
p341
sg12
(lp342
S'surnames'
p343
asg14
NsVstartIndex
p344
I2
sVsentNum
p345
I4
sVgender
p346
VMALE
p347
sVposition
p348
(lp349
I4
aI1
asg21
g42
sVtype
p350
VPROPER
p351
sVid
p352
I43
sa(dp353
VendIndex
p354
I3
sVanimacy
p355
VANIMATE
p356
sg6
I00
sVtext
p357
VCunningham's
p358
sVisRepresentativeMention
p359
I00
sVnumber
p360
VSINGULAR
p361
sg12
(lp362
g343
asg14
NsVstartIndex
p363
I1
sVsentNum
p364
I6
sVgender
p365
VMALE
p366
sVposition
p367
(lp368
I6
aI2
asg21
g22
sVtype
p369
VPROPER
p370
sVid
p371
I62
sa(dp372
VendIndex
p373
I4
sVanimacy
p374
VANIMATE
p375
sg6
I00
sVtext
p376
VCunningham's
p377
sVisRepresentativeMention
p378
I00
sVnumber
p379
VSINGULAR
p380
sg12
(lp381
g343
asg14
NsVstartIndex
p382
I2
sVsentNum
p383
I8
sVgender
p384
VMALE
p385
sVposition
p386
(lp387
I8
aI2
asg21
g22
sVtype
p388
VPROPER
p389
sVid
p390
I80
sa(dp391
VendIndex
p392
I9
sVanimacy
p393
VANIMATE
p394
sg6
I00
sVtext
p395
VCunningham
p396
sVisRepresentativeMention
p397
I00
sVnumber
p398
VSINGULAR
p399
sg12
(lp400
g343
asg14
NsVstartIndex
p401
I8
sVsentNum
p402
I8
sVgender
p403
VMALE
p404
sVposition
p405
(lp406
I8
aI3
asg21
g42
sVtype
p407
VPROPER
p408
sVid
p409
I81
sa.