(lp1
(dp2
VendIndex
p3
I32
sVanimacy
p4
VANIMATE
p5
sS'title'
p6
I00
sVtext
p7
Vhe
p8
sVisRepresentativeMention
p9
I00
sVnumber
p10
VSINGULAR
p11
sS'name_type'
p12
(lp13
sS'appositive'
p14
NsVstartIndex
p15
I31
sVsentNum
p16
I1
sVgender
p17
VMALE
p18
sVposition
p19
(lp20
I1
aI12
asS'syntax'
p21
S'np-subj'
p22
sVtype
p23
VPRONOMINAL
p24
sVid
p25
I13
sa(dp26
VendIndex
p27
I19
sVanimacy
p28
VANIMATE
p29
sg6
I00
sVtext
p30
Vthey
p31
sVisRepresentativeMention
p32
I00
sVnumber
p33
VPLURAL
p34
sg12
(lp35
sg14
NsVstartIndex
p36
I18
sVsentNum
p37
I8
sVgender
p38
VUNKNOWN
p39
sVposition
p40
(lp41
I8
aI6
asg21
g22
sVtype
p42
VPRONOMINAL
p43
sVid
p44
I85
sa(dp45
VendIndex
p46
I29
sVanimacy
p47
VANIMATE
p48
sg6
I00
sVtext
p49
Vhim
p50
sVisRepresentativeMention
p51
I00
sVnumber
p52
VSINGULAR
p53
sg12
(lp54
sg14
NsVstartIndex
p55
I28
sVsentNum
p56
I1
sVgender
p57
VMALE
p58
sVposition
p59
(lp60
I1
aI11
asg21
S'np-obj'
p61
sVtype
p62
VPRONOMINAL
p63
sVid
p64
I12
sa(dp65
VendIndex
p66
I23
sVanimacy
p67
VANIMATE
p68
sg6
I00
sVtext
p69
Vhis
p70
sVisRepresentativeMention
p71
I00
sVnumber
p72
VSINGULAR
p73
sg12
(lp74
sg14
NsVstartIndex
p75
I22
sVsentNum
p76
I3
sVgender
p77
VMALE
p78
sVposition
p79
(lp80
I3
aI8
asg21
S'subj-det'
p81
sVtype
p82
VPRONOMINAL
p83
sVid
p84
I35
sa(dp85
VendIndex
p86
I14
sVanimacy
p87
VANIMATE
p88
sg6
I00
sVtext
p89
Vhis
p90
sVisRepresentativeMention
p91
I00
sVnumber
p92
VSINGULAR
p93
sg12
(lp94
sg14
NsVstartIndex
p95
I13
sVsentNum
p96
I4
sVgender
p97
VMALE
p98
sVposition
p99
(lp100
I4
aI5
asg21
g81
sVtype
p101
VPRONOMINAL
p102
sVid
p103
I46
sa(dp104
VendIndex
p105
I5
sVanimacy
p106
VANIMATE
p107
sg6
I00
sVtext
p108
Vhe
p109
sVisRepresentativeMention
p110
I00
sVnumber
p111
VSINGULAR
p112
sg12
(lp113
sg14
NsVstartIndex
p114
I4
sVsentNum
p115
I5
sVgender
p116
VMALE
p117
sVposition
p118
(lp119
I5
aI1
asg21
g22
sVtype
p120
VPRONOMINAL
p121
sVid
p122
I51
sa(dp123
VendIndex
p124
I29
sVanimacy
p125
VANIMATE
p126
sg6
I00
sVtext
p127
Vhim
p128
sVisRepresentativeMention
p129
I00
sVnumber
p130
VSINGULAR
p131
sg12
(lp132
sg14
NsVstartIndex
p133
I28
sVsentNum
p134
I5
sVgender
p135
VMALE
p136
sVposition
p137
(lp138
I5
aI9
asg21
g61
sVtype
p139
VPRONOMINAL
p140
sVid
p141
I59
sa(dp142
VendIndex
p143
I2
sVanimacy
p144
VANIMATE
p145
sg6
I00
sVtext
p146
VHis
p147
sVisRepresentativeMention
p148
I00
sVnumber
p149
VSINGULAR
p150
sg12
(lp151
sg14
NsVstartIndex
p152
I1
sVsentNum
p153
I6
sVgender
p154
VMALE
p155
sVposition
p156
(lp157
I6
aI2
asg21
g81
sVtype
p158
VPRONOMINAL
p159
sVid
p160
I62
sa(dp161
VendIndex
p162
I14
sVanimacy
p163
VANIMATE
p164
sg6
I00
sVtext
p165
Vhe
p166
sVisRepresentativeMention
p167
I00
sVnumber
p168
VSINGULAR
p169
sg12
(lp170
sg14
NsVstartIndex
p171
I13
sVsentNum
p172
I8
sVgender
p173
VMALE
p174
sVposition
p175
(lp176
I8
aI5
asg21
g22
sVtype
p177
VPRONOMINAL
p178
sVid
p179
I84
sa(dp180
VendIndex
p181
I20
sVanimacy
p182
VANIMATE
p183
sg6
I00
sVtext
p184
Vhis
p185
sVisRepresentativeMention
p186
I00
sVnumber
p187
VSINGULAR
p188
sg12
(lp189
sg14
NsVstartIndex
p190
I19
sVsentNum
p191
I9
sVgender
p192
VMALE
p193
sVposition
p194
(lp195
I9
aI6
asg21
g81
sVtype
p196
VPRONOMINAL
p197
sVid
p198
I96
sa(dp199
VendIndex
p200
I25
sVanimacy
p201
VANIMATE
p202
sg6
I00
sVtext
p203
Vhis
p204
sVisRepresentativeMention
p205
I00
sVnumber
p206
VSINGULAR
p207
sg12
(lp208
sg14
NsVstartIndex
p209
I24
sVsentNum
p210
I9
sVgender
p211
VMALE
p212
sVposition
p213
(lp214
I9
aI8
asg21
g81
sVtype
p215
VPRONOMINAL
p216
sVid
p217
I98
sa(dp218
VendIndex
p219
I39
sVanimacy
p220
VANIMATE
p221
sg6
I00
sVtext
p222
Vhe
p223
sVisRepresentativeMention
p224
I00
sVnumber
p225
VSINGULAR
p226
sg12
(lp227
sg14
NsVstartIndex
p228
I38
sVsentNum
p229
I9
sVgender
p230
VMALE
p231
sVposition
p232
(lp233
I9
aI10
asg21
g61
sVtype
p234
VPRONOMINAL
p235
sVid
p236
I100
sa(dp237
VendIndex
p238
I2
sVanimacy
p239
VANIMATE
p240
sg6
I00
sVtext
p241
VRandy
p242
sVisRepresentativeMention
p243
I01
sVnumber
p244
VSINGULAR
p245
sg12
(lp246
sg14
NsVstartIndex
p247
I1
sVsentNum
p248
I1
sVgender
p249
VMALE
p250
sVposition
p251
(lp252
I1
aI1
asg21
g22
sVtype
p253
VPROPER
p254
sVid
p255
I1
sa(dp256
VendIndex
p257
I8
sVanimacy
p258
VANIMATE
p259
sg6
I00
sVtext
p260
VRandall Harold Cunningham
p261
sVisRepresentativeMention
p262
I01
sVnumber
p263
VSINGULAR
p264
sg12
(lp265
S'birthNames'
p266
asg14
NsVstartIndex
p267
I5
sVsentNum
p268
I1
sVgender
p269
VMALE
p270
sVposition
p271
(lp272
I1
aI4
asg21
g22
sVtype
p273
VPROPER
p274
sVid
p275
I3
sa(dp276
VendIndex
p277
I4
sVanimacy
p278
VANIMATE
p279
sg6
I00
sVtext
p280
VRandall Harold Cunningham
p281
sVisRepresentativeMention
p282
I00
sVnumber
p283
VSINGULAR
p284
sg12
(lp285
g266
asg14
NsVstartIndex
p286
I1
sVsentNum
p287
I2
sVgender
p288
VMALE
p289
sVposition
p290
(lp291
I2
aI1
asg21
g22
sVtype
p292
VPROPER
p293
sVid
p294
I20
sa(dp295
VendIndex
p296
I43
sVanimacy
p297
VANIMATE
p298
sg6
I00
sVtext
p299
VRandall Harold Cunningham
p300
sVisRepresentativeMention
p301
I00
sVnumber
p302
VSINGULAR
p303
sg12
(lp304
g266
asg14
NsVstartIndex
p305
I40
sVsentNum
p306
I3
sVgender
p307
VMALE
p308
sVposition
p309
(lp310
I3
aI13
asg21
g61
sVtype
p311
VPROPER
p312
sVid
p313
I26
sa(dp314
VendIndex
p315
I3
sVanimacy
p316
VANIMATE
p317
sg6
I00
sVtext
p318
VCunningham
p319
sVisRepresentativeMention
p320
I00
sVnumber
p321
VSINGULAR
p322
sg12
(lp323
S'surnames'
p324
asg14
NsVstartIndex
p325
I2
sVsentNum
p326
I4
sVgender
p327
VMALE
p328
sVposition
p329
(lp330
I4
aI1
asg21
g22
sVtype
p331
VPROPER
p332
sVid
p333
I42
sa(dp334
VendIndex
p335
I4
sVanimacy
p336
VANIMATE
p337
sg6
I00
sVtext
p338
VCunningham's
p339
sVisRepresentativeMention
p340
I00
sVnumber
p341
VSINGULAR
p342
sg12
(lp343
g324
asg14
NsVstartIndex
p344
I2
sVsentNum
p345
I8
sVgender
p346
VMALE
p347
sVposition
p348
(lp349
I8
aI2
asg21
g81
sVtype
p350
VPROPER
p351
sVid
p352
I80
sa(dp353
VendIndex
p354
I9
sVanimacy
p355
VANIMATE
p356
sg6
I00
sVtext
p357
VCunningham
p358
sVisRepresentativeMention
p359
I00
sVnumber
p360
VSINGULAR
p361
sg12
(lp362
g324
asg14
NsVstartIndex
p363
I8
sVsentNum
p364
I8
sVgender
p365
VMALE
p366
sVposition
p367
(lp368
I8
aI3
asg21
g22
sVtype
p369
VPROPER
p370
sVid
p371
I81
sa(dp372
VendIndex
p373
I16
sVanimacy
p374
VANIMATE
p375
sg6
I00
sVtext
p376
VRandall Harold Cunningham
p377
sVisRepresentativeMention
p378
I00
sVnumber
p379
VSINGULAR
p380
sg12
(lp381
g266
asg14
NsVstartIndex
p382
I13
sVsentNum
p383
I9
sVgender
p384
VMALE
p385
sVposition
p386
(lp387
I9
aI4
asg21
g22
sVtype
p388
VPROPER
p389
sVid
p390
I90
sa.