(lp1
(dp2
VendIndex
p3
I4
sVanimacy
p4
VANIMATE
p5
sS'title'
p6
I00
sVtext
p7
VLawrence Harry Summers
p8
sVisRepresentativeMention
p9
I01
sVnumber
p10
VSINGULAR
p11
sS'name_type'
p12
(lp13
S'birthNames'
p14
asS'appositive'
p15
NsVstartIndex
p16
I1
sVsentNum
p17
I1
sVgender
p18
VMALE
p19
sVposition
p20
(lp21
I1
aI1
asS'syntax'
p22
S'np-subj'
p23
sVtype
p24
VPROPER
p25
sVid
p26
I1
sa.