(lp1
(dp2
VendIndex
p3
I10
sVanimacy
p4
VANIMATE
p5
sS'title'
p6
I00
sVtext
p7
Vhis
p8
sVisRepresentativeMention
p9
I00
sVnumber
p10
VSINGULAR
p11
sS'name_type'
p12
(lp13
sS'appositive'
p14
NsVstartIndex
p15
I9
sVsentNum
p16
I10
sVgender
p17
VMALE
p18
sVposition
p19
(lp20
I10
aI4
asS'syntax'
p21
S'subj-det'
p22
sVtype
p23
VPRONOMINAL
p24
sVid
p25
I98
sa(dp26
VendIndex
p27
I10
sVanimacy
p28
VANIMATE
p29
sg6
I00
sVtext
p30
Vhe
p31
sVisRepresentativeMention
p32
I00
sVnumber
p33
VSINGULAR
p34
sg12
(lp35
sg14
NsVstartIndex
p36
I9
sVsentNum
p37
I3
sVgender
p38
VMALE
p39
sVposition
p40
(lp41
I3
aI3
asg21
S'np-subj'
p42
sVtype
p43
VPRONOMINAL
p44
sVid
p45
I31
sa(dp46
VendIndex
p47
I17
sVanimacy
p48
VANIMATE
p49
sg6
I00
sVtext
p50
Vhe
p51
sVisRepresentativeMention
p52
I00
sVnumber
p53
VSINGULAR
p54
sg12
(lp55
sg14
NsVstartIndex
p56
I16
sVsentNum
p57
I3
sVgender
p58
VMALE
p59
sVposition
p60
(lp61
I3
aI5
asg21
g42
sVtype
p62
VPRONOMINAL
p63
sVid
p64
I33
sa(dp65
VendIndex
p66
I19
sVanimacy
p67
VANIMATE
p68
sg6
I00
sVtext
p69
Vhe
p70
sVisRepresentativeMention
p71
I00
sVnumber
p72
VSINGULAR
p73
sg12
(lp74
sg14
NsVstartIndex
p75
I18
sVsentNum
p76
I4
sVgender
p77
VMALE
p78
sVposition
p79
(lp80
I4
aI5
asg21
g42
sVtype
p81
VPRONOMINAL
p82
sVid
p83
I45
sa(dp84
VendIndex
p85
I13
sVanimacy
p86
VANIMATE
p87
sg6
I00
sVtext
p88
Vhe
p89
sVisRepresentativeMention
p90
I00
sVnumber
p91
VSINGULAR
p92
sg12
(lp93
sg14
NsVstartIndex
p94
I12
sVsentNum
p95
I8
sVgender
p96
VMALE
p97
sVposition
p98
(lp99
I8
aI6
asg21
g42
sVtype
p100
VPRONOMINAL
p101
sVid
p102
I77
sa(dp103
VendIndex
p104
I28
sVanimacy
p105
VANIMATE
p106
sg6
I00
sVtext
p107
Vhis
p108
sVisRepresentativeMention
p109
I00
sVnumber
p110
VSINGULAR
p111
sg12
(lp112
sg14
NsVstartIndex
p113
I27
sVsentNum
p114
I8
sVgender
p115
VMALE
p116
sVposition
p117
(lp118
I8
aI12
asg21
g22
sVtype
p119
VPRONOMINAL
p120
sVid
p121
I83
sa(dp122
VendIndex
p123
I7
sVanimacy
p124
VANIMATE
p125
sg6
I00
sVtext
p126
VLawrence Henry &quot;Larry&quot; Summers
p127
sVisRepresentativeMention
p128
I01
sVnumber
p129
VSINGULAR
p130
sg12
(lp131
sg14
NsVstartIndex
p132
I1
sVsentNum
p133
I1
sVgender
p134
VMALE
p135
sVposition
p136
(lp137
I1
aI1
asg21
g42
sVtype
p138
VPROPER
p139
sVid
p140
I1
sa(dp141
VendIndex
p142
I6
sVanimacy
p143
VANIMATE
p144
sg6
I00
sVtext
p145
VSummers
p146
sVisRepresentativeMention
p147
I00
sVnumber
p148
VSINGULAR
p149
sg12
(lp150
S'surnames'
p151
asg14
NsVstartIndex
p152
I5
sVsentNum
p153
I2
sVgender
p154
VMALE
p155
sVposition
p156
(lp157
I2
aI2
asg21
g22
sVtype
p158
VPROPER
p159
sVid
p160
I12
sa(dp161
VendIndex
p162
I8
sVanimacy
p163
VANIMATE
p164
sg6
I01
sVtext
p165
VMr. Summers
p166
sVisRepresentativeMention
p167
I00
sVnumber
p168
VSINGULAR
p169
sg12
(lp170
g151
asg14
NsVstartIndex
p171
I6
sVsentNum
p172
I3
sVgender
p173
VMALE
p174
sVposition
p175
(lp176
I3
aI2
asg21
g22
sVtype
p177
VPROPER
p178
sVid
p179
I30
sa(dp180
VendIndex
p181
I5
sVanimacy
p182
VANIMATE
p183
sg6
I00
sVtext
p184
VSummers
p185
sVisRepresentativeMention
p186
I00
sVnumber
p187
VSINGULAR
p188
sg12
(lp189
g151
asg14
NsVstartIndex
p190
I4
sVsentNum
p191
I4
sVgender
p192
VMALE
p193
sVposition
p194
(lp195
I4
aI1
asg21
g42
sVtype
p196
VPROPER
p197
sVid
p198
I41
sa(dp199
VendIndex
p200
I4
sVanimacy
p201
VANIMATE
p202
sg6
I01
sVtext
p203
VMr. Summers's
p204
sVisRepresentativeMention
p205
I00
sVnumber
p206
VSINGULAR
p207
sg12
(lp208
g151
asg14
NsVstartIndex
p209
I1
sVsentNum
p210
I8
sVgender
p211
VMALE
p212
sVposition
p213
(lp214
I8
aI2
asg21
g22
sVtype
p215
VPROPER
p216
sVid
p217
I74
sa.