(lp1
(dp2
VendIndex
p3
I18
sVanimacy
p4
VANIMATE
p5
sS'title'
p6
I00
sVtext
p7
Vhe
p8
sVisRepresentativeMention
p9
I00
sVnumber
p10
VSINGULAR
p11
sS'name_type'
p12
(lp13
sS'appositive'
p14
NsVstartIndex
p15
I17
sVsentNum
p16
I4
sVgender
p17
VMALE
p18
sVposition
p19
(lp20
I4
aI6
asS'syntax'
p21
S'np-subj'
p22
sVtype
p23
VPRONOMINAL
p24
sVid
p25
I46
sa(dp26
VendIndex
p27
I2
sVanimacy
p28
VANIMATE
p29
sg6
I00
sVtext
p30
VLawrence
p31
sVisRepresentativeMention
p32
I01
sVnumber
p33
VSINGULAR
p34
sg12
(lp35
S'givenNames'
p36
asg14
NsVstartIndex
p37
I1
sVsentNum
p38
I4
sVgender
p39
VMALE
p40
sVposition
p41
(lp42
I4
aI1
asg21
g22
sVtype
p43
VPROPER
p44
sVid
p45
I41
sa.