(lp1
(dp2
VendIndex
p3
I35
sVanimacy
p4
VINANIMATE
p5
sS'title'
p6
I00
sVtext
p7
Vits
p8
sVisRepresentativeMention
p9
I00
sVnumber
p10
VSINGULAR
p11
sS'name_type'
p12
(lp13
sS'appositive'
p14
NsVstartIndex
p15
I34
sVsentNum
p16
I2
sVgender
p17
VUNKNOWN
p18
sVposition
p19
(lp20
I2
aI15
asS'syntax'
p21
S'subj-det'
p22
sVtype
p23
VPRONOMINAL
p24
sVid
p25
I26
sa(dp26
VendIndex
p27
I9
sVanimacy
p28
VANIMATE
p29
sg6
I00
sVtext
p30
Vhe
p31
sVisRepresentativeMention
p32
I00
sVnumber
p33
VSINGULAR
p34
sg12
(lp35
sg14
NsVstartIndex
p36
I8
sVsentNum
p37
I3
sVgender
p38
VMALE
p39
sVposition
p40
(lp41
I3
aI3
asg21
S'np-subj'
p42
sVtype
p43
VPRONOMINAL
p44
sVid
p45
I31
sa(dp46
VendIndex
p47
I19
sVanimacy
p48
VANIMATE
p49
sg6
I00
sVtext
p50
Vhe
p51
sVisRepresentativeMention
p52
I00
sVnumber
p53
VSINGULAR
p54
sg12
(lp55
sg14
NsVstartIndex
p56
I18
sVsentNum
p57
I4
sVgender
p58
VMALE
p59
sVposition
p60
(lp61
I4
aI5
asg21
g42
sVtype
p62
VPRONOMINAL
p63
sVid
p64
I45
sa(dp65
VendIndex
p66
I11
sVanimacy
p67
VANIMATE
p68
sg6
I00
sVtext
p69
Vhe
p70
sVisRepresentativeMention
p71
I00
sVnumber
p72
VSINGULAR
p73
sg12
(lp74
sg14
NsVstartIndex
p75
I10
sVsentNum
p76
I8
sVgender
p77
VMALE
p78
sVposition
p79
(lp80
I8
aI5
asg21
g42
sVtype
p81
VPRONOMINAL
p82
sVid
p83
I76
sa(dp84
VendIndex
p85
I26
sVanimacy
p86
VANIMATE
p87
sg6
I00
sVtext
p88
Vhis
p89
sVisRepresentativeMention
p90
I00
sVnumber
p91
VSINGULAR
p92
sg12
(lp93
sg14
NsVstartIndex
p94
I25
sVsentNum
p95
I8
sVgender
p96
VMALE
p97
sVposition
p98
(lp99
I8
aI11
asg21
g22
sVtype
p100
VPRONOMINAL
p101
sVid
p102
I82
sa(dp103
VendIndex
p104
I5
sVanimacy
p105
VANIMATE
p106
sg6
I00
sVtext
p107
Vhis
p108
sVisRepresentativeMention
p109
I00
sVnumber
p110
VSINGULAR
p111
sg12
(lp112
sg14
NsVstartIndex
p113
I4
sVsentNum
p114
I9
sVgender
p115
VMALE
p116
sVposition
p117
(lp118
I9
aI3
asg21
g22
sVtype
p119
VPRONOMINAL
p120
sVid
p121
I89
sa(dp122
VendIndex
p123
I3
sVanimacy
p124
VANIMATE
p125
sg6
I00
sVtext
p126
VLarry Summers
p127
sVisRepresentativeMention
p128
I01
sVnumber
p129
VSINGULAR
p130
sg12
(lp131
sg14
NsVstartIndex
p132
I1
sVsentNum
p133
I1
sVgender
p134
VMALE
p135
sVposition
p136
(lp137
I1
aI1
asg21
g42
sVtype
p138
VPROPER
p139
sVid
p140
I1
sa(dp141
VendIndex
p142
I3
sVanimacy
p143
VANIMATE
p144
sg6
I00
sVtext
p145
VLawrence Summers
p146
sVisRepresentativeMention
p147
I00
sVnumber
p148
VSINGULAR
p149
sg12
(lp150
S'foaf_names'
p151
aS'dbp_names'
p152
asg14
NsVstartIndex
p153
I1
sVsentNum
p154
I4
sVgender
p155
VMALE
p156
sVposition
p157
(lp158
I4
aI1
asg21
g42
sVtype
p159
VPROPER
p160
sVid
p161
I41
sa.