(lp1
(dp2
VendIndex
p3
I9
sVanimacy
p4
VANIMATE
p5
sS'title'
p6
I00
sVtext
p7
Vhe
p8
sVisRepresentativeMention
p9
I00
sVnumber
p10
VSINGULAR
p11
sS'name_type'
p12
(lp13
sS'appositive'
p14
NsVstartIndex
p15
I8
sVsentNum
p16
I3
sVgender
p17
VMALE
p18
sVposition
p19
(lp20
I3
aI3
asS'syntax'
p21
S'np-subj'
p22
sVtype
p23
VPRONOMINAL
p24
sVid
p25
I31
sa(dp26
VendIndex
p27
I16
sVanimacy
p28
VANIMATE
p29
sg6
I00
sVtext
p30
Vhe
p31
sVisRepresentativeMention
p32
I00
sVnumber
p33
VSINGULAR
p34
sg12
(lp35
sg14
NsVstartIndex
p36
I15
sVsentNum
p37
I3
sVgender
p38
VMALE
p39
sVposition
p40
(lp41
I3
aI5
asg21
g22
sVtype
p42
VPRONOMINAL
p43
sVid
p44
I33
sa(dp45
VendIndex
p46
I18
sVanimacy
p47
VANIMATE
p48
sg6
I00
sVtext
p49
Vhe
p50
sVisRepresentativeMention
p51
I00
sVnumber
p52
VSINGULAR
p53
sg12
(lp54
sg14
NsVstartIndex
p55
I17
sVsentNum
p56
I4
sVgender
p57
VMALE
p58
sVposition
p59
(lp60
I4
aI6
asg21
g22
sVtype
p61
VPRONOMINAL
p62
sVid
p63
I46
sa(dp64
VendIndex
p65
I4
sVanimacy
p66
VANIMATE
p67
sg6
I00
sVtext
p68
VLawrence Henry Summers
p69
sVisRepresentativeMention
p70
I01
sVnumber
p71
VSINGULAR
p72
sg12
(lp73
S'birthNames'
p74
asg14
NsVstartIndex
p75
I1
sVsentNum
p76
I1
sVgender
p77
VMALE
p78
sVposition
p79
(lp80
I1
aI1
asg21
g22
sVtype
p81
VPROPER
p82
sVid
p83
I1
sa(dp84
VendIndex
p85
I26
sVanimacy
p86
VANIMATE
p87
sg6
I00
sVtext
p88
VSummers
p89
sVisRepresentativeMention
p90
I00
sVnumber
p91
VSINGULAR
p92
sg12
(lp93
S'surnames'
p94
asg14
NsVstartIndex
p95
I25
sVsentNum
p96
I13
sVgender
p97
VMALE
p98
sVposition
p99
(lp100
I13
aI7
asg21
g22
sVtype
p101
VPROPER
p102
sVid
p103
I112
sa.