(lp1
(dp2
VendIndex
p3
I10
sVanimacy
p4
VANIMATE
p5
sS'title'
p6
I00
sVtext
p7
Vhis
p8
sVisRepresentativeMention
p9
I00
sVnumber
p10
VSINGULAR
p11
sS'name_type'
p12
(lp13
sS'appositive'
p14
NsVstartIndex
p15
I9
sVsentNum
p16
I18
sVgender
p17
VMALE
p18
sVposition
p19
(lp20
I18
aI5
asS'syntax'
p21
S'subj-det'
p22
sVtype
p23
VPRONOMINAL
p24
sVid
p25
I143
sa(dp26
VendIndex
p27
I3
sVanimacy
p28
VANIMATE
p29
sg6
I00
sVtext
p30
VI
sVisRepresentativeMention
p31
I00
sVnumber
p32
VSINGULAR
p33
sg12
(lp34
sg14
NsVstartIndex
p35
I2
sVsentNum
p36
I10
sVgender
p37
VUNKNOWN
p38
sVposition
p39
(lp40
I10
aI1
asg21
S'np-subj'
p41
sVtype
p42
VPRONOMINAL
p43
sVid
p44
I93
sa(dp45
VendIndex
p46
I8
sVanimacy
p47
VANIMATE
p48
sg6
I00
sVtext
p49
VI
sVisRepresentativeMention
p50
I00
sVnumber
p51
VSINGULAR
p52
sg12
(lp53
sg14
NsVstartIndex
p54
I7
sVsentNum
p55
I12
sVgender
p56
VUNKNOWN
p57
sVposition
p58
(lp59
I12
aI2
asg21
g41
sVtype
p60
VPRONOMINAL
p61
sVid
p62
I103
sa(dp63
VendIndex
p64
I3
sVanimacy
p65
VANIMATE
p66
sg6
I00
sVtext
p67
VI
sVisRepresentativeMention
p68
I00
sVnumber
p69
VSINGULAR
p70
sg12
(lp71
sg14
NsVstartIndex
p72
I2
sVsentNum
p73
I13
sVgender
p74
VUNKNOWN
p75
sVposition
p76
(lp77
I13
aI1
asg21
g41
sVtype
p78
VPRONOMINAL
p79
sVid
p80
I104
sa(dp81
VendIndex
p82
I7
sVanimacy
p83
VANIMATE
p84
sg6
I00
sVtext
p85
VRupert Murdoch
p86
sVisRepresentativeMention
p87
I00
sVnumber
p88
VSINGULAR
p89
sg12
(lp90
sg14
NsVstartIndex
p91
I5
sVsentNum
p92
I2
sVgender
p93
VMALE
p94
sVposition
p95
(lp96
I2
aI2
asg21
g22
sVtype
p97
VPROPER
p98
sVid
p99
I16
sa(dp100
VendIndex
p101
I22
sVanimacy
p102
VANIMATE
p103
sg6
I00
sVtext
p104
VRupert Murdoch
p105
sVisRepresentativeMention
p106
I00
sVnumber
p107
VSINGULAR
p108
sg12
(lp109
sg14
NsVstartIndex
p110
I20
sVsentNum
p111
I3
sVgender
p112
VMALE
p113
sVposition
p114
(lp115
I3
aI8
asg21
g22
sVtype
p116
VPROPER
p117
sVid
p118
I28
sa(dp119
VendIndex
p120
I8
sVanimacy
p121
VANIMATE
p122
sg6
I00
sVtext
p123
VRupert Murdoch
p124
sVisRepresentativeMention
p125
I00
sVnumber
p126
VSINGULAR
p127
sg12
(lp128
sg14
NsVstartIndex
p129
I6
sVsentNum
p130
I8
sVgender
p131
VMALE
p132
sVposition
p133
(lp134
I8
aI3
asg21
g22
sVtype
p135
VPROPER
p136
sVid
p137
I76
sa(dp138
VendIndex
p139
I3
sVanimacy
p140
VANIMATE
p141
sg6
I00
sVtext
p142
VMurdoch's
p143
sVisRepresentativeMention
p144
I00
sVnumber
p145
VSINGULAR
p146
sg12
(lp147
sg14
NsVstartIndex
p148
I1
sVsentNum
p149
I15
sVgender
p150
VMALE
p151
sVposition
p152
(lp153
I15
aI2
asg21
g22
sVtype
p154
VPROPER
p155
sVid
p156
I123
sa(dp157
VendIndex
p158
I2
sVanimacy
p159
VANIMATE
p160
sg6
I00
sVtext
p161
VMurdoch
p162
sVisRepresentativeMention
p163
I00
sVnumber
p164
VSINGULAR
p165
sg12
(lp166
sg14
NsVstartIndex
p167
I1
sVsentNum
p168
I18
sVgender
p169
VMALE
p170
sVposition
p171
(lp172
I18
aI1
asg21
g41
sVtype
p173
VPROPER
p174
sVid
p175
I139
sa(dp176
VendIndex
p177
I4
sVanimacy
p178
VANIMATE
p179
sg6
I00
sVtext
p180
VJeanine Ferris Pirro
p181
sVisRepresentativeMention
p182
I01
sVnumber
p183
VSINGULAR
p184
sg12
(lp185
sg14
NsVstartIndex
p186
I1
sVsentNum
p187
I1
sVgender
p188
VNEUTRAL
p189
sVposition
p190
(lp191
I1
aI1
asg21
g41
sVtype
p192
VPROPER
p193
sVid
p194
I1
sa(dp195
VendIndex
p196
I31
sVanimacy
p197
VANIMATE
p198
sg6
I00
sVtext
p199
VJeanine Ferris Pirro
p200
sVisRepresentativeMention
p201
I00
sVnumber
p202
VSINGULAR
p203
sg12
(lp204
sg14
NsVstartIndex
p205
I28
sVsentNum
p206
I2
sVgender
p207
VNEUTRAL
p208
sVposition
p209
(lp210
I2
aI10
asg21
g22
sVtype
p211
VPROPER
p212
sVid
p213
I19
sa(dp214
VendIndex
p215
I10
sVanimacy
p216
VANIMATE
p217
sg6
I00
sVtext
p218
VJeanine Ferris Pirro
p219
sVisRepresentativeMention
p220
I00
sVnumber
p221
VSINGULAR
p222
sg12
(lp223
sg14
NsVstartIndex
p224
I7
sVsentNum
p225
I3
sVgender
p226
VNEUTRAL
p227
sVposition
p228
(lp229
I3
aI3
asg21
g41
sVtype
p230
VPROPER
p231
sVid
p232
I26
sa(dp233
VendIndex
p234
I10
sVanimacy
p235
VANIMATE
p236
sg6
I00
sVtext
p237
VJeanine Ferris Pirro
p238
sVisRepresentativeMention
p239
I00
sVnumber
p240
VSINGULAR
p241
sg12
(lp242
sg14
NsVstartIndex
p243
I7
sVsentNum
p244
I4
sVgender
p245
VNEUTRAL
p246
sVposition
p247
(lp248
I4
aI3
asg21
g41
sVtype
p249
VPROPER
p250
sVid
p251
I41
sa(dp252
VendIndex
p253
I16
sVanimacy
p254
VANIMATE
p255
sg6
I00
sVtext
p256
VJeanine Ferris Pirro
p257
sVisRepresentativeMention
p258
I00
sVnumber
p259
VSINGULAR
p260
sg12
(lp261
sg14
NsVstartIndex
p262
I13
sVsentNum
p263
I6
sVgender
p264
VNEUTRAL
p265
sVposition
p266
(lp267
I6
aI4
asg21
g22
sVtype
p268
VPROPER
p269
sVid
p270
I54
sa(dp271
VendIndex
p272
I10
sVanimacy
p273
VANIMATE
p274
sg6
I00
sVtext
p275
VJeanine Ferris Pirro
p276
sVisRepresentativeMention
p277
I00
sVnumber
p278
VSINGULAR
p279
sg12
(lp280
sg14
NsVstartIndex
p281
I7
sVsentNum
p282
I7
sVgender
p283
VNEUTRAL
p284
sVposition
p285
(lp286
I7
aI3
asg21
g22
sVtype
p287
VPROPER
p288
sVid
p289
I63
sa(dp290
VendIndex
p291
I4
sVanimacy
p292
VANIMATE
p293
sg6
I00
sVtext
p294
VJeanine Ferris Pirro
p295
sVisRepresentativeMention
p296
I00
sVnumber
p297
VSINGULAR
p298
sg12
(lp299
sg14
NsVstartIndex
p300
I1
sVsentNum
p301
I8
sVgender
p302
VNEUTRAL
p303
sVposition
p304
(lp305
I8
aI1
asg21
g41
sVtype
p306
VPROPER
p307
sVid
p308
I75
sa(dp309
VendIndex
p310
I4
sVanimacy
p311
VANIMATE
p312
sg6
I00
sVtext
p313
VJeanine Ferris Pirro
p314
sVisRepresentativeMention
p315
I00
sVnumber
p316
VSINGULAR
p317
sg12
(lp318
sg14
NsVstartIndex
p319
I1
sVsentNum
p320
I9
sVgender
p321
VNEUTRAL
p322
sVposition
p323
(lp324
I9
aI1
asg21
g41
sVtype
p325
VPROPER
p326
sVid
p327
I87
sa(dp328
VendIndex
p329
I15
sVanimacy
p330
VANIMATE
p331
sg6
I00
sVtext
p332
VJeanine Ferris Pirro
p333
sVisRepresentativeMention
p334
I00
sVnumber
p335
VSINGULAR
p336
sg12
(lp337
sg14
NsVstartIndex
p338
I12
sVsentNum
p339
I10
sVgender
p340
VNEUTRAL
p341
sVposition
p342
(lp343
I10
aI3
asg21
g41
sVtype
p344
VPROPER
p345
sVid
p346
I92
sa(dp347
VendIndex
p348
I4
sVanimacy
p349
VANIMATE
p350
sg6
I00
sVtext
p351
VJeanine Ferris Pirro
p352
sVisRepresentativeMention
p353
I00
sVnumber
p354
VSINGULAR
p355
sg12
(lp356
sg14
NsVstartIndex
p357
I1
sVsentNum
p358
I12
sVgender
p359
VNEUTRAL
p360
sVposition
p361
(lp362
I12
aI1
asg21
g41
sVtype
p363
VPROPER
p364
sVid
p365
I102
sa(dp366
VendIndex
p367
I11
sVanimacy
p368
VANIMATE
p369
sg6
I00
sVtext
p370
VJeanine Ferris Pirro
p371
sVisRepresentativeMention
p372
I00
sVnumber
p373
VSINGULAR
p374
sg12
(lp375
sg14
NsVstartIndex
p376
I8
sVsentNum
p377
I19
sVgender
p378
VNEUTRAL
p379
sVposition
p380
(lp381
I19
aI2
asg21
g41
sVtype
p382
VPROPER
p383
sVid
p384
I145
sa(dp385
VendIndex
p386
I39
sVanimacy
p387
VANIMATE
p388
sg6
I00
sVtext
p389
VJeanine Ferris Pirro
p390
sVisRepresentativeMention
p391
I00
sVnumber
p392
VSINGULAR
p393
sg12
(lp394
sg14
NsVstartIndex
p395
I36
sVsentNum
p396
I19
sVgender
p397
VNEUTRAL
p398
sVposition
p399
(lp400
I19
aI9
asg21
g22
sVtype
p401
VPROPER
p402
sVid
p403
I146
sa.