(lp1
(dp2
VendIndex
p3
I7
sVanimacy
p4
VANIMATE
p5
sS'title'
p6
I00
sVtext
p7
VI
sVisRepresentativeMention
p8
I00
sVnumber
p9
VSINGULAR
p10
sS'name_type'
p11
(lp12
sS'appositive'
p13
NsVstartIndex
p14
I6
sVsentNum
p15
I12
sVgender
p16
VUNKNOWN
p17
sVposition
p18
(lp19
I12
aI2
asS'syntax'
p20
S'np-subj'
p21
sVtype
p22
VPRONOMINAL
p23
sVid
p24
I114
sa(dp25
VendIndex
p26
I3
sVanimacy
p27
VANIMATE
p28
sg6
I00
sVtext
p29
VI
sVisRepresentativeMention
p30
I00
sVnumber
p31
VSINGULAR
p32
sg11
(lp33
sg13
NsVstartIndex
p34
I2
sVsentNum
p35
I13
sVgender
p36
VUNKNOWN
p37
sVposition
p38
(lp39
I13
aI1
asg20
g21
sVtype
p40
VPRONOMINAL
p41
sVid
p42
I115
sa(dp43
VendIndex
p44
I8
sVanimacy
p45
VANIMATE
p46
sg6
I00
sVtext
p47
VPirro
p48
sVisRepresentativeMention
p49
I01
sVnumber
p50
VSINGULAR
p51
sg11
(lp52
S'surnames'
p53
asg13
(dp54
VendIndex
p55
I15
sVanimacy
p56
VANIMATE
p57
sg6
I00
sVtext
p58
Va former Westchester County district attorney
p59
sVisRepresentativeMention
p60
I00
sVnumber
p61
VSINGULAR
p62
sg11
(lp63
sg13
NsVstartIndex
p64
I9
sVsentNum
p65
I3
sVgender
p66
VMALE
p67
sVposition
p68
(lp69
I3
aI5
asVtype
p70
VNOMINAL
p71
sVid
p72
I32
ssVstartIndex
p73
I7
sVsentNum
p74
I3
sVgender
p75
VMALE
p76
sVposition
p77
(lp78
I3
aI3
asg20
g21
sVtype
p79
VPROPER
p80
sVid
p81
I27
sa(dp82
VendIndex
p83
I2
sVanimacy
p84
VANIMATE
p85
sg6
I00
sVtext
p86
VPirro
p87
sVisRepresentativeMention
p88
I00
sVnumber
p89
VSINGULAR
p90
sg11
(lp91
g53
asg13
NsVstartIndex
p92
I1
sVsentNum
p93
I8
sVgender
p94
VMALE
p95
sVposition
p96
(lp97
I8
aI1
asg20
g21
sVtype
p98
VPROPER
p99
sVid
p100
I82
sa(dp101
VendIndex
p102
I2
sVanimacy
p103
VANIMATE
p104
sg6
I00
sVtext
p105
VPirro
p106
sVisRepresentativeMention
p107
I00
sVnumber
p108
VSINGULAR
p109
sg11
(lp110
g53
asg13
NsVstartIndex
p111
I1
sVsentNum
p112
I9
sVgender
p113
VMALE
p114
sVposition
p115
(lp116
I9
aI1
asg20
g21
sVtype
p117
VPROPER
p118
sVid
p119
I98
sa(dp120
VendIndex
p121
I2
sVanimacy
p122
VANIMATE
p123
sg6
I00
sVtext
p124
VPirro
p125
sVisRepresentativeMention
p126
I00
sVnumber
p127
VSINGULAR
p128
sg11
(lp129
g53
asg13
NsVstartIndex
p130
I1
sVsentNum
p131
I12
sVgender
p132
VMALE
p133
sVposition
p134
(lp135
I12
aI1
asg20
g21
sVtype
p136
VPROPER
p137
sVid
p138
I113
sa(dp139
VendIndex
p140
I4
sVanimacy
p141
VANIMATE
p142
sg6
I00
sVtext
p143
VJeanine Ferris Pirro
p144
sVisRepresentativeMention
p145
I01
sVnumber
p146
VSINGULAR
p147
sg11
(lp148
sg13
NsVstartIndex
p149
I1
sVsentNum
p150
I1
sVgender
p151
VNEUTRAL
p152
sVposition
p153
(lp154
I1
aI1
asg20
g21
sVtype
p155
VPROPER
p156
sVid
p157
I1
sa.