(lp1
(dp2
VendIndex
p3
I4
sVanimacy
p4
VANIMATE
p5
sS'title'
p6
I00
sVtext
p7
VJeanine Ferris Pirro
p8
sVisRepresentativeMention
p9
I01
sVnumber
p10
VSINGULAR
p11
sS'name_type'
p12
(lp13
sS'appositive'
p14
NsVstartIndex
p15
I1
sVsentNum
p16
I1
sVgender
p17
VNEUTRAL
p18
sVposition
p19
(lp20
I1
aI1
asS'syntax'
p21
S'np-subj'
p22
sVtype
p23
VPROPER
p24
sVid
p25
I1
sa(dp26
VendIndex
p27
I10
sVanimacy
p28
VANIMATE
p29
sg6
I00
sVtext
p30
VJeanine Ferris Pirro
p31
sVisRepresentativeMention
p32
I00
sVnumber
p33
VSINGULAR
p34
sg12
(lp35
sg14
NsVstartIndex
p36
I7
sVsentNum
p37
I3
sVgender
p38
VNEUTRAL
p39
sVposition
p40
(lp41
I3
aI3
asg21
g22
sVtype
p42
VPROPER
p43
sVid
p44
I26
sa(dp45
VendIndex
p46
I16
sVanimacy
p47
VANIMATE
p48
sg6
I00
sVtext
p49
VJeanine Ferris Pirro
p50
sVisRepresentativeMention
p51
I00
sVnumber
p52
VSINGULAR
p53
sg12
(lp54
sg14
NsVstartIndex
p55
I13
sVsentNum
p56
I6
sVgender
p57
VNEUTRAL
p58
sVposition
p59
(lp60
I6
aI4
asg21
S'subj-det'
p61
sVtype
p62
VPROPER
p63
sVid
p64
I54
sa(dp65
VendIndex
p66
I2
sVanimacy
p67
VANIMATE
p68
sg6
I00
sVtext
p69
VPirro
p70
sVisRepresentativeMention
p71
I00
sVnumber
p72
VSINGULAR
p73
sg12
(lp74
S'surnames'
p75
asg14
NsVstartIndex
p76
I1
sVsentNum
p77
I8
sVgender
p78
VMALE
p79
sVposition
p80
(lp81
I8
aI1
asg21
g22
sVtype
p82
VPROPER
p83
sVid
p84
I76
sa(dp85
VendIndex
p86
I9
sVanimacy
p87
VANIMATE
p88
sg6
I00
sVtext
p89
VPirro
p90
sVisRepresentativeMention
p91
I00
sVnumber
p92
VSINGULAR
p93
sg12
(lp94
g75
asg14
NsVstartIndex
p95
I8
sVsentNum
p96
I19
sVgender
p97
VMALE
p98
sVposition
p99
(lp100
I19
aI2
asg21
g22
sVtype
p101
VPROPER
p102
sVid
p103
I145
sa.