(lp1
(dp2
VendIndex
p3
I19
sVanimacy
p4
VANIMATE
p5
sS'title'
p6
I00
sVtext
p7
Vher
p8
sVisRepresentativeMention
p9
I00
sVnumber
p10
VSINGULAR
p11
sS'name_type'
p12
(lp13
sS'appositive'
p14
NsVstartIndex
p15
I18
sVsentNum
p16
I3
sVgender
p17
VFEMALE
p18
sVposition
p19
(lp20
I3
aI8
asS'syntax'
p21
S'subj-det'
p22
sVtype
p23
VPRONOMINAL
p24
sVid
p25
I33
sa(dp26
VendIndex
p27
I11
sVanimacy
p28
VANIMATE
p29
sg6
I00
sVtext
p30
Vshe
p31
sVisRepresentativeMention
p32
I00
sVnumber
p33
VSINGULAR
p34
sg12
(lp35
sg14
NsVstartIndex
p36
I10
sVsentNum
p37
I5
sVgender
p38
VFEMALE
p39
sVposition
p40
(lp41
I5
aI3
asg21
S'np-subj'
p42
sVtype
p43
VPRONOMINAL
p44
sVid
p45
I52
sa(dp46
VendIndex
p47
I17
sVanimacy
p48
VANIMATE
p49
sg6
I00
sVtext
p50
Vshe
p51
sVisRepresentativeMention
p52
I00
sVnumber
p53
VSINGULAR
p54
sg12
(lp55
sg14
NsVstartIndex
p56
I16
sVsentNum
p57
I6
sVgender
p58
VFEMALE
p59
sVposition
p60
(lp61
I6
aI6
asg21
g42
sVtype
p62
VPRONOMINAL
p63
sVid
p64
I58
sa(dp65
VendIndex
p66
I22
sVanimacy
p67
VANIMATE
p68
sg6
I00
sVtext
p69
Vher
p70
sVisRepresentativeMention
p71
I00
sVnumber
p72
VSINGULAR
p73
sg12
(lp74
sg14
NsVstartIndex
p75
I21
sVsentNum
p76
I6
sVgender
p77
VFEMALE
p78
sVposition
p79
(lp80
I6
aI9
asg21
g22
sVtype
p81
VPRONOMINAL
p82
sVid
p83
I61
sa(dp84
VendIndex
p85
I13
sVanimacy
p86
VANIMATE
p87
sg6
I00
sVtext
p88
Vher
p89
sVisRepresentativeMention
p90
I00
sVnumber
p91
VSINGULAR
p92
sg12
(lp93
sg14
NsVstartIndex
p94
I12
sVsentNum
p95
I7
sVgender
p96
VFEMALE
p97
sVposition
p98
(lp99
I7
aI7
asg21
g22
sVtype
p100
VPRONOMINAL
p101
sVid
p102
I72
sa(dp103
VendIndex
p104
I7
sVanimacy
p105
VANIMATE
p106
sg6
I00
sVtext
p107
Vher
p108
sVisRepresentativeMention
p109
I00
sVnumber
p110
VSINGULAR
p111
sg12
(lp112
sg14
NsVstartIndex
p113
I6
sVsentNum
p114
I8
sVgender
p115
VFEMALE
p116
sVposition
p117
(lp118
I8
aI3
asg21
g22
sVtype
p119
VPRONOMINAL
p120
sVid
p121
I79
sa(dp122
VendIndex
p123
I20
sVanimacy
p124
VANIMATE
p125
sg6
I00
sVtext
p126
Vshe
p127
sVisRepresentativeMention
p128
I00
sVnumber
p129
VSINGULAR
p130
sg12
(lp131
sg14
NsVstartIndex
p132
I19
sVsentNum
p133
I8
sVgender
p134
VFEMALE
p135
sVposition
p136
(lp137
I8
aI7
asg21
g42
sVtype
p138
VPRONOMINAL
p139
sVid
p140
I83
sa(dp141
VendIndex
p142
I23
sVanimacy
p143
VANIMATE
p144
sg6
I00
sVtext
p145
Vher
p146
sVisRepresentativeMention
p147
I00
sVnumber
p148
VSINGULAR
p149
sg12
(lp150
sg14
NsVstartIndex
p151
I22
sVsentNum
p152
I8
sVgender
p153
VFEMALE
p154
sVposition
p155
(lp156
I8
aI9
asg21
g22
sVtype
p157
VPRONOMINAL
p158
sVid
p159
I85
sa(dp160
VendIndex
p161
I3
sVanimacy
p162
VANIMATE
p163
sg6
I00
sVtext
p164
VI
sVisRepresentativeMention
p165
I00
sVnumber
p166
VSINGULAR
p167
sg12
(lp168
sg14
NsVstartIndex
p169
I2
sVsentNum
p170
I10
sVgender
p171
VUNKNOWN
p172
sVposition
p173
(lp174
I10
aI1
asg21
g42
sVtype
p175
VPRONOMINAL
p176
sVid
p177
I94
sa(dp178
VendIndex
p179
I13
sVanimacy
p180
VANIMATE
p181
sg6
I00
sVtext
p182
Vshe
p183
sVisRepresentativeMention
p184
I00
sVnumber
p185
VSINGULAR
p186
sg12
(lp187
sg14
NsVstartIndex
p188
I12
sVsentNum
p189
I10
sVgender
p190
VFEMALE
p191
sVposition
p192
(lp193
I10
aI3
asg21
g42
sVtype
p194
VPRONOMINAL
p195
sVid
p196
I96
sa(dp197
VendIndex
p198
I6
sVanimacy
p199
VANIMATE
p200
sg6
I00
sVtext
p201
VI
sVisRepresentativeMention
p202
I00
sVnumber
p203
VSINGULAR
p204
sg12
(lp205
sg14
NsVstartIndex
p206
I5
sVsentNum
p207
I12
sVgender
p208
VUNKNOWN
p209
sVposition
p210
(lp211
I12
aI2
asg21
g42
sVtype
p212
VPRONOMINAL
p213
sVid
p214
I105
sa(dp215
VendIndex
p216
I3
sVanimacy
p217
VANIMATE
p218
sg6
I00
sVtext
p219
VI
sVisRepresentativeMention
p220
I00
sVnumber
p221
VSINGULAR
p222
sg12
(lp223
sg14
NsVstartIndex
p224
I2
sVsentNum
p225
I13
sVgender
p226
VUNKNOWN
p227
sVposition
p228
(lp229
I13
aI1
asg21
g42
sVtype
p230
VPRONOMINAL
p231
sVid
p232
I106
sa(dp233
VendIndex
p234
I15
sVanimacy
p235
VANIMATE
p236
sg6
I00
sVtext
p237
Vher
p238
sVisRepresentativeMention
p239
I00
sVnumber
p240
VSINGULAR
p241
sg12
(lp242
sg14
NsVstartIndex
p243
I14
sVsentNum
p244
I19
sVgender
p245
VFEMALE
p246
sVposition
p247
(lp248
I19
aI4
asg21
g22
sVtype
p249
VPRONOMINAL
p250
sVid
p251
I150
sa(dp252
VendIndex
p253
I36
sVanimacy
p254
VANIMATE
p255
sg6
I00
sVtext
p256
Vher
p257
sVisRepresentativeMention
p258
I00
sVnumber
p259
VSINGULAR
p260
sg12
(lp261
sg14
NsVstartIndex
p262
I35
sVsentNum
p263
I19
sVgender
p264
VFEMALE
p265
sVposition
p266
(lp267
I19
aI10
asg21
g22
sVtype
p268
VPRONOMINAL
p269
sVid
p270
I156
sa(dp271
VendIndex
p272
I8
sVanimacy
p273
VANIMATE
p274
sg6
I00
sVtext
p275
VPirro
p276
sVisRepresentativeMention
p277
I00
sVnumber
p278
VSINGULAR
p279
sg12
(lp280
S'surnames'
p281
asg14
(dp282
VendIndex
p283
I15
sVanimacy
p284
VANIMATE
p285
sg6
I00
sVtext
p286
Va former Westchester County district attorney
p287
sVisRepresentativeMention
p288
I00
sVnumber
p289
VSINGULAR
p290
sg12
(lp291
sg14
NsVstartIndex
p292
I9
sVsentNum
p293
I3
sVgender
p294
VMALE
p295
sVposition
p296
(lp297
I3
aI5
asVtype
p298
VNOMINAL
p299
sVid
p300
I31
ssVstartIndex
p301
I7
sVsentNum
p302
I3
sVgender
p303
VMALE
p304
sVposition
p305
(lp306
I3
aI3
asg21
g42
sVtype
p307
VPROPER
p308
sVid
p309
I26
sa(dp310
VendIndex
p311
I9
sVanimacy
p312
VANIMATE
p313
sg6
I01
sVtext
p314
VMrs. Pirro
p315
sVisRepresentativeMention
p316
I01
sVnumber
p317
VSINGULAR
p318
sg12
(lp319
g281
asg14
NsVstartIndex
p320
I7
sVsentNum
p321
I4
sVgender
p322
VFEMALE
p323
sVposition
p324
(lp325
I4
aI3
asg21
g42
sVtype
p326
VPROPER
p327
sVid
p328
I43
sa(dp329
VendIndex
p330
I15
sVanimacy
p331
VANIMATE
p332
sg6
I00
sVtext
p333
VPirro
p334
sVisRepresentativeMention
p335
I00
sVnumber
p336
VSINGULAR
p337
sg12
(lp338
g281
asg14
NsVstartIndex
p339
I14
sVsentNum
p340
I6
sVgender
p341
VMALE
p342
sVposition
p343
(lp344
I6
aI4
asg21
g22
sVtype
p345
VPROPER
p346
sVid
p347
I54
sa(dp348
VendIndex
p349
I3
sVanimacy
p350
VANIMATE
p351
sg6
I01
sVtext
p352
VMrs. Pirro
p353
sVisRepresentativeMention
p354
I00
sVnumber
p355
VSINGULAR
p356
sg12
(lp357
g281
asg14
NsVstartIndex
p358
I1
sVsentNum
p359
I9
sVgender
p360
VFEMALE
p361
sVposition
p362
(lp363
I9
aI1
asg21
g42
sVtype
p364
VPROPER
p365
sVid
p366
I89
sa(dp367
VendIndex
p368
I2
sVanimacy
p369
VANIMATE
p370
sg6
I00
sVtext
p371
VPirro
p372
sVisRepresentativeMention
p373
I00
sVnumber
p374
VSINGULAR
p375
sg12
(lp376
g281
asg14
NsVstartIndex
p377
I1
sVsentNum
p378
I12
sVgender
p379
VMALE
p380
sVposition
p381
(lp382
I12
aI1
asg21
g42
sVtype
p383
VPROPER
p384
sVid
p385
I104
sa(dp386
VendIndex
p387
I10
sVanimacy
p388
VANIMATE
p389
sg6
I01
sVtext
p390
VMrs. Pirro
p391
sVisRepresentativeMention
p392
I00
sVnumber
p393
VSINGULAR
p394
sg12
(lp395
g281
asg14
NsVstartIndex
p396
I8
sVsentNum
p397
I19
sVgender
p398
VFEMALE
p399
sVposition
p400
(lp401
I19
aI2
asg21
g42
sVtype
p402
VPROPER
p403
sVid
p404
I148
sa(dp405
VendIndex
p406
I4
sVanimacy
p407
VANIMATE
p408
sg6
I00
sVtext
p409
VJeanine Ferris Pirro
p410
sVisRepresentativeMention
p411
I01
sVnumber
p412
VSINGULAR
p413
sg12
(lp414
sg14
NsVstartIndex
p415
I1
sVsentNum
p416
I1
sVgender
p417
VNEUTRAL
p418
sVposition
p419
(lp420
I1
aI1
asg21
g42
sVtype
p421
VPROPER
p422
sVid
p423
I1
sa(dp424
VendIndex
p425
I4
sVanimacy
p426
VANIMATE
p427
sg6
I00
sVtext
p428
VJeanine Ferris Pirro
p429
sVisRepresentativeMention
p430
I00
sVnumber
p431
VSINGULAR
p432
sg12
(lp433
sg14
NsVstartIndex
p434
I1
sVsentNum
p435
I8
sVgender
p436
VNEUTRAL
p437
sVposition
p438
(lp439
I8
aI1
asg21
g42
sVtype
p440
VPROPER
p441
sVid
p442
I77
sa.