(lp1
(dp2
VendIndex
p3
I22
sVanimacy
p4
VANIMATE
p5
sS'title'
p6
I00
sVtext
p7
Vher
p8
sVisRepresentativeMention
p9
I00
sVnumber
p10
VSINGULAR
p11
sS'name_type'
p12
(lp13
sS'appositive'
p14
NsVstartIndex
p15
I21
sVsentNum
p16
I6
sVgender
p17
VFEMALE
p18
sVposition
p19
(lp20
I6
aI8
asS'syntax'
p21
S'subj-det'
p22
sVtype
p23
VPRONOMINAL
p24
sVid
p25
I59
sa(dp26
VendIndex
p27
I13
sVanimacy
p28
VANIMATE
p29
sg6
I00
sVtext
p30
Vher
p31
sVisRepresentativeMention
p32
I00
sVnumber
p33
VSINGULAR
p34
sg12
(lp35
sg14
NsVstartIndex
p36
I12
sVsentNum
p37
I7
sVgender
p38
VFEMALE
p39
sVposition
p40
(lp41
I7
aI7
asg21
g22
sVtype
p42
VPRONOMINAL
p43
sVid
p44
I70
sa(dp45
VendIndex
p46
I5
sVanimacy
p47
VANIMATE
p48
sg6
I00
sVtext
p49
Vher
p50
sVisRepresentativeMention
p51
I00
sVnumber
p52
VSINGULAR
p53
sg12
(lp54
sg14
NsVstartIndex
p55
I4
sVsentNum
p56
I8
sVgender
p57
VFEMALE
p58
sVposition
p59
(lp60
I8
aI3
asg21
g22
sVtype
p61
VPRONOMINAL
p62
sVid
p63
I77
sa(dp64
VendIndex
p65
I19
sVanimacy
p66
VANIMATE
p67
sg6
I00
sVtext
p68
Vshe
p69
sVisRepresentativeMention
p70
I00
sVnumber
p71
VSINGULAR
p72
sg12
(lp73
sg14
NsVstartIndex
p74
I18
sVsentNum
p75
I8
sVgender
p76
VFEMALE
p77
sVposition
p78
(lp79
I8
aI7
asg21
S'np-subj'
p80
sVtype
p81
VPRONOMINAL
p82
sVid
p83
I81
sa(dp84
VendIndex
p85
I22
sVanimacy
p86
VANIMATE
p87
sg6
I00
sVtext
p88
Vher
p89
sVisRepresentativeMention
p90
I00
sVnumber
p91
VSINGULAR
p92
sg12
(lp93
sg14
NsVstartIndex
p94
I21
sVsentNum
p95
I8
sVgender
p96
VFEMALE
p97
sVposition
p98
(lp99
I8
aI9
asg21
g22
sVtype
p100
VPRONOMINAL
p101
sVid
p102
I83
sa(dp103
VendIndex
p104
I3
sVanimacy
p105
VANIMATE
p106
sg6
I00
sVtext
p107
VI
sVisRepresentativeMention
p108
I00
sVnumber
p109
VSINGULAR
p110
sg12
(lp111
sg14
NsVstartIndex
p112
I2
sVsentNum
p113
I10
sVgender
p114
VUNKNOWN
p115
sVposition
p116
(lp117
I10
aI1
asg21
g80
sVtype
p118
VPRONOMINAL
p119
sVid
p120
I91
sa(dp121
VendIndex
p122
I13
sVanimacy
p123
VANIMATE
p124
sg6
I00
sVtext
p125
Vshe
p126
sVisRepresentativeMention
p127
I00
sVnumber
p128
VSINGULAR
p129
sg12
(lp130
sg14
NsVstartIndex
p131
I12
sVsentNum
p132
I10
sVgender
p133
VFEMALE
p134
sVposition
p135
(lp136
I10
aI3
asg21
g80
sVtype
p137
VPRONOMINAL
p138
sVid
p139
I93
sa(dp140
VendIndex
p141
I15
sVanimacy
p142
VANIMATE
p143
sg6
I00
sVtext
p144
Vher
p145
sVisRepresentativeMention
p146
I00
sVnumber
p147
VSINGULAR
p148
sg12
(lp149
sg14
NsVstartIndex
p150
I14
sVsentNum
p151
I19
sVgender
p152
VFEMALE
p153
sVposition
p154
(lp155
I19
aI4
asg21
g22
sVtype
p156
VPRONOMINAL
p157
sVid
p158
I147
sa(dp159
VendIndex
p160
I38
sVanimacy
p161
VANIMATE
p162
sg6
I00
sVtext
p163
Vher
p164
sVisRepresentativeMention
p165
I00
sVnumber
p166
VSINGULAR
p167
sg12
(lp168
sg14
NsVstartIndex
p169
I37
sVsentNum
p170
I19
sVgender
p171
VFEMALE
p172
sVposition
p173
(lp174
I19
aI11
asg21
g22
sVtype
p175
VPRONOMINAL
p176
sVid
p177
I154
sa(dp178
VendIndex
p179
I6
sVanimacy
p180
VANIMATE
p181
sg6
I00
sVtext
p182
VI
sVisRepresentativeMention
p183
I00
sVnumber
p184
VSINGULAR
p185
sg12
(lp186
sg14
NsVstartIndex
p187
I5
sVsentNum
p188
I12
sVgender
p189
VUNKNOWN
p190
sVposition
p191
(lp192
I12
aI2
asg21
g80
sVtype
p193
VPRONOMINAL
p194
sVid
p195
I102
sa(dp196
VendIndex
p197
I3
sVanimacy
p198
VANIMATE
p199
sg6
I00
sVtext
p200
VI
sVisRepresentativeMention
p201
I00
sVnumber
p202
VSINGULAR
p203
sg12
(lp204
sg14
NsVstartIndex
p205
I2
sVsentNum
p206
I13
sVgender
p207
VUNKNOWN
p208
sVposition
p209
(lp210
I13
aI1
asg21
g80
sVtype
p211
VPRONOMINAL
p212
sVid
p213
I103
sa(dp214
VendIndex
p215
I3
sVanimacy
p216
VANIMATE
p217
sg6
I00
sVtext
p218
VJeanine Pirro
p219
sVisRepresentativeMention
p220
I01
sVnumber
p221
VSINGULAR
p222
sg12
(lp223
S'foaf_names'
p224
aS'dbp_names'
p225
asg14
NsVstartIndex
p226
I1
sVsentNum
p227
I1
sVgender
p228
VFEMALE
p229
sVposition
p230
(lp231
I1
aI1
asg21
g80
sVtype
p232
VPROPER
p233
sVid
p234
I1
sa(dp235
VendIndex
p236
I15
sVanimacy
p237
VANIMATE
p238
sg6
I00
sVtext
p239
VJeanine Pirro
p240
sVisRepresentativeMention
p241
I00
sVnumber
p242
VSINGULAR
p243
sg12
(lp244
g224
ag225
asg14
NsVstartIndex
p245
I13
sVsentNum
p246
I6
sVgender
p247
VFEMALE
p248
sVposition
p249
(lp250
I6
aI4
asg21
g22
sVtype
p251
VPROPER
p252
sVid
p253
I53
sa(dp254
VendIndex
p255
I10
sVanimacy
p256
VANIMATE
p257
sg6
I00
sVtext
p258
VJeanine Pirro
p259
sVisRepresentativeMention
p260
I00
sVnumber
p261
VSINGULAR
p262
sg12
(lp263
g224
ag225
asg14
NsVstartIndex
p264
I8
sVsentNum
p265
I19
sVgender
p266
VFEMALE
p267
sVposition
p268
(lp269
I19
aI2
asg21
g80
sVtype
p270
VPROPER
p271
sVid
p272
I144
sa(dp273
VendIndex
p274
I8
sVanimacy
p275
VANIMATE
p276
sg6
I00
sVtext
p277
VPirro
p278
sVisRepresentativeMention
p279
I00
sVnumber
p280
VSINGULAR
p281
sg12
(lp282
S'surnames'
p283
asg14
(dp284
VendIndex
p285
I15
sVanimacy
p286
VANIMATE
p287
sg6
I00
sVtext
p288
Va former Westchester County district attorney
p289
sVisRepresentativeMention
p290
I00
sVnumber
p291
VSINGULAR
p292
sg12
(lp293
sg14
NsVstartIndex
p294
I9
sVsentNum
p295
I3
sVgender
p296
VMALE
p297
sVposition
p298
(lp299
I3
aI5
asVtype
p300
VNOMINAL
p301
sVid
p302
I31
ssVstartIndex
p303
I7
sVsentNum
p304
I3
sVgender
p305
VMALE
p306
sVposition
p307
(lp308
I3
aI3
asg21
g80
sVtype
p309
VPROPER
p310
sVid
p311
I26
sa(dp312
VendIndex
p313
I17
sVanimacy
p314
VANIMATE
p315
sg6
I00
sVtext
p316
VPirro
p317
sVisRepresentativeMention
p318
I00
sVnumber
p319
VSINGULAR
p320
sg12
(lp321
g283
asg14
NsVstartIndex
p322
I16
sVsentNum
p323
I6
sVgender
p324
VMALE
p325
sVposition
p326
(lp327
I6
aI5
asg21
g80
sVtype
p328
VPROPER
p329
sVid
p330
I54
sa(dp331
VendIndex
p332
I2
sVanimacy
p333
VANIMATE
p334
sg6
I00
sVtext
p335
VPirro
p336
sVisRepresentativeMention
p337
I00
sVnumber
p338
VSINGULAR
p339
sg12
(lp340
g283
asg14
NsVstartIndex
p341
I1
sVsentNum
p342
I8
sVgender
p343
VMALE
p344
sVposition
p345
(lp346
I8
aI1
asg21
g80
sVtype
p347
VPROPER
p348
sVid
p349
I75
sa(dp350
VendIndex
p351
I2
sVanimacy
p352
VANIMATE
p353
sg6
I00
sVtext
p354
VPirro
p355
sVisRepresentativeMention
p356
I00
sVnumber
p357
VSINGULAR
p358
sg12
(lp359
g283
asg14
NsVstartIndex
p360
I1
sVsentNum
p361
I12
sVgender
p362
VMALE
p363
sVposition
p364
(lp365
I12
aI1
asg21
g80
sVtype
p366
VPROPER
p367
sVid
p368
I101
sa.