(lp1
(dp2
VendIndex
p3
I24
sVanimacy
p4
VANIMATE
p5
sS'title'
p6
I00
sVtext
p7
Vher
p8
sVisRepresentativeMention
p9
I00
sVnumber
p10
VSINGULAR
p11
sS'name_type'
p12
(lp13
sS'appositive'
p14
NsVstartIndex
p15
I23
sVsentNum
p16
I6
sVgender
p17
VFEMALE
p18
sVposition
p19
(lp20
I6
aI8
asS'syntax'
p21
S'subj-det'
p22
sVtype
p23
VPRONOMINAL
p24
sVid
p25
I60
sa(dp26
VendIndex
p27
I13
sVanimacy
p28
VANIMATE
p29
sg6
I00
sVtext
p30
Vher
p31
sVisRepresentativeMention
p32
I00
sVnumber
p33
VSINGULAR
p34
sg12
(lp35
sg14
NsVstartIndex
p36
I12
sVsentNum
p37
I7
sVgender
p38
VFEMALE
p39
sVposition
p40
(lp41
I7
aI7
asg21
g22
sVtype
p42
VPRONOMINAL
p43
sVid
p44
I71
sa(dp45
VendIndex
p46
I5
sVanimacy
p47
VANIMATE
p48
sg6
I00
sVtext
p49
Vher
p50
sVisRepresentativeMention
p51
I00
sVnumber
p52
VSINGULAR
p53
sg12
(lp54
sg14
NsVstartIndex
p55
I4
sVsentNum
p56
I8
sVgender
p57
VFEMALE
p58
sVposition
p59
(lp60
I8
aI3
asg21
g22
sVtype
p61
VPRONOMINAL
p62
sVid
p63
I78
sa(dp64
VendIndex
p65
I18
sVanimacy
p66
VANIMATE
p67
sg6
I00
sVtext
p68
Vshe
p69
sVisRepresentativeMention
p70
I00
sVnumber
p71
VSINGULAR
p72
sg12
(lp73
sg14
NsVstartIndex
p74
I17
sVsentNum
p75
I8
sVgender
p76
VFEMALE
p77
sVposition
p78
(lp79
I8
aI7
asg21
S'np-subj'
p80
sVtype
p81
VPRONOMINAL
p82
sVid
p83
I82
sa(dp84
VendIndex
p85
I21
sVanimacy
p86
VANIMATE
p87
sg6
I00
sVtext
p88
Vher
p89
sVisRepresentativeMention
p90
I00
sVnumber
p91
VSINGULAR
p92
sg12
(lp93
sg14
NsVstartIndex
p94
I20
sVsentNum
p95
I8
sVgender
p96
VFEMALE
p97
sVposition
p98
(lp99
I8
aI9
asg21
g22
sVtype
p100
VPRONOMINAL
p101
sVid
p102
I84
sa(dp103
VendIndex
p104
I3
sVanimacy
p105
VANIMATE
p106
sg6
I00
sVtext
p107
VI
sVisRepresentativeMention
p108
I00
sVnumber
p109
VSINGULAR
p110
sg12
(lp111
sg14
NsVstartIndex
p112
I2
sVsentNum
p113
I10
sVgender
p114
VUNKNOWN
p115
sVposition
p116
(lp117
I10
aI1
asg21
g80
sVtype
p118
VPRONOMINAL
p119
sVid
p120
I92
sa(dp121
VendIndex
p122
I13
sVanimacy
p123
VANIMATE
p124
sg6
I00
sVtext
p125
Vshe
p126
sVisRepresentativeMention
p127
I00
sVnumber
p128
VSINGULAR
p129
sg12
(lp130
sg14
NsVstartIndex
p131
I12
sVsentNum
p132
I10
sVgender
p133
VFEMALE
p134
sVposition
p135
(lp136
I10
aI3
asg21
g80
sVtype
p137
VPRONOMINAL
p138
sVid
p139
I94
sa(dp140
VendIndex
p141
I15
sVanimacy
p142
VANIMATE
p143
sg6
I00
sVtext
p144
Vher
p145
sVisRepresentativeMention
p146
I00
sVnumber
p147
VSINGULAR
p148
sg12
(lp149
sg14
NsVstartIndex
p150
I14
sVsentNum
p151
I19
sVgender
p152
VFEMALE
p153
sVposition
p154
(lp155
I19
aI4
asg21
g22
sVtype
p156
VPRONOMINAL
p157
sVid
p158
I149
sa(dp159
VendIndex
p160
I20
sVanimacy
p161
VANIMATE
p162
sg6
I00
sVtext
p163
Vher
p164
sVisRepresentativeMention
p165
I00
sVnumber
p166
VSINGULAR
p167
sg12
(lp168
sg14
NsVstartIndex
p169
I19
sVsentNum
p170
I3
sVgender
p171
VFEMALE
p172
sVposition
p173
(lp174
I3
aI8
asg21
g22
sVtype
p175
VPRONOMINAL
p176
sVid
p177
I33
sa(dp178
VendIndex
p179
I8
sVanimacy
p180
VANIMATE
p181
sg6
I00
sVtext
p182
Vshe
p183
sVisRepresentativeMention
p184
I00
sVnumber
p185
VSINGULAR
p186
sg12
(lp187
sg14
NsVstartIndex
p188
I7
sVsentNum
p189
I4
sVgender
p190
VFEMALE
p191
sVposition
p192
(lp193
I4
aI3
asg21
g80
sVtype
p194
VPRONOMINAL
p195
sVid
p196
I43
sa(dp197
VendIndex
p198
I6
sVanimacy
p199
VANIMATE
p200
sg6
I00
sVtext
p201
VI
sVisRepresentativeMention
p202
I00
sVnumber
p203
VSINGULAR
p204
sg12
(lp205
sg14
NsVstartIndex
p206
I5
sVsentNum
p207
I12
sVgender
p208
VUNKNOWN
p209
sVposition
p210
(lp211
I12
aI2
asg21
g80
sVtype
p212
VPRONOMINAL
p213
sVid
p214
I103
sa(dp215
VendIndex
p216
I3
sVanimacy
p217
VANIMATE
p218
sg6
I00
sVtext
p219
VI
sVisRepresentativeMention
p220
I00
sVnumber
p221
VSINGULAR
p222
sg12
(lp223
sg14
NsVstartIndex
p224
I2
sVsentNum
p225
I13
sVgender
p226
VUNKNOWN
p227
sVposition
p228
(lp229
I13
aI1
asg21
g80
sVtype
p230
VPRONOMINAL
p231
sVid
p232
I104
sa(dp233
VendIndex
p234
I11
sVanimacy
p235
VANIMATE
p236
sg6
I00
sVtext
p237
VPirro
p238
sVisRepresentativeMention
p239
I00
sVnumber
p240
VSINGULAR
p241
sg12
(lp242
S'surnames'
p243
asg14
NsVstartIndex
p244
I10
sVsentNum
p245
I5
sVgender
p246
VMALE
p247
sVposition
p248
(lp249
I5
aI3
asg21
g80
sVtype
p250
VPROPER
p251
sVid
p252
I50
sa(dp253
VendIndex
p254
I2
sVanimacy
p255
VANIMATE
p256
sg6
I00
sVtext
p257
VPirro
p258
sVisRepresentativeMention
p259
I00
sVnumber
p260
VSINGULAR
p261
sg12
(lp262
g243
asg14
NsVstartIndex
p263
I1
sVsentNum
p264
I8
sVgender
p265
VMALE
p266
sVposition
p267
(lp268
I8
aI1
asg21
g80
sVtype
p269
VPROPER
p270
sVid
p271
I76
sa(dp272
VendIndex
p273
I10
sVanimacy
p274
VANIMATE
p275
sg6
I01
sVtext
p276
VMrs. Pirro
p277
sVisRepresentativeMention
p278
I00
sVnumber
p279
VSINGULAR
p280
sg12
(lp281
g243
asg14
NsVstartIndex
p282
I8
sVsentNum
p283
I19
sVgender
p284
VFEMALE
p285
sVposition
p286
(lp287
I19
aI2
asg21
g80
sVtype
p288
VPROPER
p289
sVid
p290
I147
sa(dp291
VendIndex
p292
I37
sVanimacy
p293
VANIMATE
p294
sg6
I00
sVtext
p295
VPirro's
p296
sVisRepresentativeMention
p297
I00
sVnumber
p298
VSINGULAR
p299
sg12
(lp300
g243
asg14
NsVstartIndex
p301
I35
sVsentNum
p302
I19
sVgender
p303
VMALE
p304
sVposition
p305
(lp306
I19
aI10
asg21
g22
sVtype
p307
VPROPER
p308
sVid
p309
I145
sa(dp310
VendIndex
p311
I4
sVanimacy
p312
VANIMATE
p313
sg6
I00
sVtext
p314
VJeanine Ferris Pirro
p315
sVisRepresentativeMention
p316
I01
sVnumber
p317
VSINGULAR
p318
sg12
(lp319
sg14
NsVstartIndex
p320
I1
sVsentNum
p321
I1
sVgender
p322
VNEUTRAL
p323
sVposition
p324
(lp325
I1
aI1
asg21
g80
sVtype
p326
VPROPER
p327
sVid
p328
I1
sa(dp329
VendIndex
p330
I9
sVanimacy
p331
VANIMATE
p332
sg6
I00
sVtext
p333
VJeanine Pirro
p334
sVisRepresentativeMention
p335
I00
sVnumber
p336
VSINGULAR
p337
sg12
(lp338
S'foaf_names'
p339
aS'dbp_names'
p340
asg14
NsVstartIndex
p341
I7
sVsentNum
p342
I3
sVgender
p343
VFEMALE
p344
sVposition
p345
(lp346
I3
aI3
asg21
g80
sVtype
p347
VPROPER
p348
sVid
p349
I26
sa(dp350
VendIndex
p351
I2
sVanimacy
p352
VANIMATE
p353
sg6
I00
sVtext
p354
VJeanine
p355
sVisRepresentativeMention
p356
I00
sVnumber
p357
VSINGULAR
p358
sg12
(lp359
S'givenNames'
p360
asg14
NsVstartIndex
p361
I1
sVsentNum
p362
I12
sVgender
p363
VFEMALE
p364
sVposition
p365
(lp366
I12
aI1
asg21
g80
sVtype
p367
VPROPER
p368
sVid
p369
I102
sa.