(lp1
(dp2
VendIndex
p3
I20
sVanimacy
p4
VANIMATE
p5
sS'title'
p6
I00
sVtext
p7
Vher
p8
sVisRepresentativeMention
p9
I00
sVnumber
p10
VSINGULAR
p11
sS'name_type'
p12
(lp13
sS'appositive'
p14
NsVstartIndex
p15
I19
sVsentNum
p16
I3
sVgender
p17
VFEMALE
p18
sVposition
p19
(lp20
I3
aI9
asS'syntax'
p21
S'subj-det'
p22
sVtype
p23
VPRONOMINAL
p24
sVid
p25
I34
sa(dp26
VendIndex
p27
I8
sVanimacy
p28
VANIMATE
p29
sg6
I00
sVtext
p30
Vshe
p31
sVisRepresentativeMention
p32
I00
sVnumber
p33
VSINGULAR
p34
sg12
(lp35
sg14
NsVstartIndex
p36
I7
sVsentNum
p37
I4
sVgender
p38
VFEMALE
p39
sVposition
p40
(lp41
I4
aI3
asg21
S'np-subj'
p42
sVtype
p43
VPRONOMINAL
p44
sVid
p45
I44
sa(dp46
VendIndex
p47
I11
sVanimacy
p48
VANIMATE
p49
sg6
I00
sVtext
p50
Vshe
p51
sVisRepresentativeMention
p52
I00
sVnumber
p53
VSINGULAR
p54
sg12
(lp55
sg14
NsVstartIndex
p56
I10
sVsentNum
p57
I5
sVgender
p58
VFEMALE
p59
sVposition
p60
(lp61
I5
aI3
asg21
g42
sVtype
p62
VPRONOMINAL
p63
sVid
p64
I53
sa(dp65
VendIndex
p66
I16
sVanimacy
p67
VANIMATE
p68
sg6
I00
sVtext
p69
Vshe
p70
sVisRepresentativeMention
p71
I00
sVnumber
p72
VSINGULAR
p73
sg12
(lp74
sg14
NsVstartIndex
p75
I15
sVsentNum
p76
I6
sVgender
p77
VFEMALE
p78
sVposition
p79
(lp80
I6
aI5
asg21
g42
sVtype
p81
VPRONOMINAL
p82
sVid
p83
I58
sa(dp84
VendIndex
p85
I21
sVanimacy
p86
VANIMATE
p87
sg6
I00
sVtext
p88
Vher
p89
sVisRepresentativeMention
p90
I00
sVnumber
p91
VSINGULAR
p92
sg12
(lp93
sg14
NsVstartIndex
p94
I20
sVsentNum
p95
I6
sVgender
p96
VFEMALE
p97
sVposition
p98
(lp99
I6
aI8
asg21
g22
sVtype
p100
VPRONOMINAL
p101
sVid
p102
I61
sa(dp103
VendIndex
p104
I13
sVanimacy
p105
VANIMATE
p106
sg6
I00
sVtext
p107
Vher
p108
sVisRepresentativeMention
p109
I00
sVnumber
p110
VSINGULAR
p111
sg12
(lp112
sg14
NsVstartIndex
p113
I12
sVsentNum
p114
I7
sVgender
p115
VFEMALE
p116
sVposition
p117
(lp118
I7
aI7
asg21
g22
sVtype
p119
VPRONOMINAL
p120
sVid
p121
I72
sa(dp122
VendIndex
p123
I6
sVanimacy
p124
VANIMATE
p125
sg6
I00
sVtext
p126
Vher
p127
sVisRepresentativeMention
p128
I00
sVnumber
p129
VSINGULAR
p130
sg12
(lp131
sg14
NsVstartIndex
p132
I5
sVsentNum
p133
I8
sVgender
p134
VFEMALE
p135
sVposition
p136
(lp137
I8
aI3
asg21
g22
sVtype
p138
VPRONOMINAL
p139
sVid
p140
I79
sa(dp141
VendIndex
p142
I22
sVanimacy
p143
VANIMATE
p144
sg6
I00
sVtext
p145
Vher
p146
sVisRepresentativeMention
p147
I00
sVnumber
p148
VSINGULAR
p149
sg12
(lp150
sg14
NsVstartIndex
p151
I21
sVsentNum
p152
I8
sVgender
p153
VFEMALE
p154
sVposition
p155
(lp156
I8
aI8
asg21
g22
sVtype
p157
VPRONOMINAL
p158
sVid
p159
I84
sa(dp160
VendIndex
p161
I2
sVanimacy
p162
VANIMATE
p163
sg6
I00
sVtext
p164
VShe
p165
sVisRepresentativeMention
p166
I00
sVnumber
p167
VSINGULAR
p168
sg12
(lp169
sg14
NsVstartIndex
p170
I1
sVsentNum
p171
I9
sVgender
p172
VFEMALE
p173
sVposition
p174
(lp175
I9
aI1
asg21
g42
sVtype
p176
VPRONOMINAL
p177
sVid
p178
I88
sa(dp179
VendIndex
p180
I3
sVanimacy
p181
VANIMATE
p182
sg6
I00
sVtext
p183
VI
sVisRepresentativeMention
p184
I00
sVnumber
p185
VSINGULAR
p186
sg12
(lp187
sg14
NsVstartIndex
p188
I2
sVsentNum
p189
I10
sVgender
p190
VUNKNOWN
p191
sVposition
p192
(lp193
I10
aI1
asg21
g42
sVtype
p194
VPRONOMINAL
p195
sVid
p196
I93
sa(dp197
VendIndex
p198
I13
sVanimacy
p199
VANIMATE
p200
sg6
I00
sVtext
p201
Vshe
p202
sVisRepresentativeMention
p203
I00
sVnumber
p204
VSINGULAR
p205
sg12
(lp206
sg14
NsVstartIndex
p207
I12
sVsentNum
p208
I10
sVgender
p209
VFEMALE
p210
sVposition
p211
(lp212
I10
aI3
asg21
g42
sVtype
p213
VPRONOMINAL
p214
sVid
p215
I95
sa(dp216
VendIndex
p217
I2
sVanimacy
p218
VANIMATE
p219
sg6
I00
sVtext
p220
VShe
p221
sVisRepresentativeMention
p222
I00
sVnumber
p223
VSINGULAR
p224
sg12
(lp225
sg14
NsVstartIndex
p226
I1
sVsentNum
p227
I12
sVgender
p228
VFEMALE
p229
sVposition
p230
(lp231
I12
aI1
asg21
g42
sVtype
p232
VPRONOMINAL
p233
sVid
p234
I103
sa(dp235
VendIndex
p236
I6
sVanimacy
p237
VANIMATE
p238
sg6
I00
sVtext
p239
VI
sVisRepresentativeMention
p240
I00
sVnumber
p241
VSINGULAR
p242
sg12
(lp243
sg14
NsVstartIndex
p244
I5
sVsentNum
p245
I12
sVgender
p246
VUNKNOWN
p247
sVposition
p248
(lp249
I12
aI2
asg21
g42
sVtype
p250
VPRONOMINAL
p251
sVid
p252
I104
sa(dp253
VendIndex
p254
I3
sVanimacy
p255
VANIMATE
p256
sg6
I00
sVtext
p257
VI
sVisRepresentativeMention
p258
I00
sVnumber
p259
VSINGULAR
p260
sg12
(lp261
sg14
NsVstartIndex
p262
I2
sVsentNum
p263
I13
sVgender
p264
VUNKNOWN
p265
sVposition
p266
(lp267
I13
aI1
asg21
g42
sVtype
p268
VPRONOMINAL
p269
sVid
p270
I105
sa(dp271
VendIndex
p272
I15
sVanimacy
p273
VANIMATE
p274
sg6
I00
sVtext
p275
Vher
p276
sVisRepresentativeMention
p277
I00
sVnumber
p278
VSINGULAR
p279
sg12
(lp280
sg14
NsVstartIndex
p281
I14
sVsentNum
p282
I19
sVgender
p283
VFEMALE
p284
sVposition
p285
(lp286
I19
aI4
asg21
g22
sVtype
p287
VPRONOMINAL
p288
sVid
p289
I149
sa(dp290
VendIndex
p291
I36
sVanimacy
p292
VANIMATE
p293
sg6
I00
sVtext
p294
Vher
p295
sVisRepresentativeMention
p296
I00
sVnumber
p297
VSINGULAR
p298
sg12
(lp299
sg14
NsVstartIndex
p300
I35
sVsentNum
p301
I19
sVgender
p302
VFEMALE
p303
sVposition
p304
(lp305
I19
aI10
asg21
g22
sVtype
p306
VPRONOMINAL
p307
sVid
p308
I155
sa(dp309
VendIndex
p310
I3
sVanimacy
p311
VANIMATE
p312
sg6
I00
sVtext
p313
VJeanine Pirro
p314
sVisRepresentativeMention
p315
I01
sVnumber
p316
VSINGULAR
p317
sg12
(lp318
S'foaf_names'
p319
aS'dbp_names'
p320
asg14
NsVstartIndex
p321
I1
sVsentNum
p322
I1
sVgender
p323
VFEMALE
p324
sVposition
p325
(lp326
I1
aI1
asg21
g42
sVtype
p327
VPROPER
p328
sVid
p329
I1
sa(dp330
VendIndex
p331
I9
sVanimacy
p332
VANIMATE
p333
sg6
I00
sVtext
p334
VPirro
p335
sVisRepresentativeMention
p336
I00
sVnumber
p337
VSINGULAR
p338
sg12
(lp339
S'surnames'
p340
asg14
(dp341
VendIndex
p342
I16
sVanimacy
p343
VANIMATE
p344
sg6
I00
sVtext
p345
Va former Westchester County district attorney
p346
sVisRepresentativeMention
p347
I00
sVnumber
p348
VSINGULAR
p349
sg12
(lp350
sg14
NsVstartIndex
p351
I10
sVsentNum
p352
I3
sVgender
p353
VMALE
p354
sVposition
p355
(lp356
I3
aI6
asVtype
p357
VNOMINAL
p358
sVid
p359
I32
ssVstartIndex
p360
I8
sVsentNum
p361
I3
sVgender
p362
VMALE
p363
sVposition
p364
(lp365
I3
aI3
asg21
g42
sVtype
p366
VPROPER
p367
sVid
p368
I26
sa(dp369
VendIndex
p370
I3
sVanimacy
p371
VANIMATE
p372
sg6
I01
sVtext
p373
VMs. Pirro
p374
sVisRepresentativeMention
p375
I00
sVnumber
p376
VSINGULAR
p377
sg12
(lp378
g340
asg14
NsVstartIndex
p379
I1
sVsentNum
p380
I8
sVgender
p381
VFEMALE
p382
sVposition
p383
(lp384
I8
aI1
asg21
g42
sVtype
p385
VPROPER
p386
sVid
p387
I77
sa(dp388
VendIndex
p389
I10
sVanimacy
p390
VANIMATE
p391
sg6
I01
sVtext
p392
VMs. Pirro
p393
sVisRepresentativeMention
p394
I00
sVnumber
p395
VSINGULAR
p396
sg12
(lp397
g340
asg14
NsVstartIndex
p398
I8
sVsentNum
p399
I19
sVgender
p400
VFEMALE
p401
sVposition
p402
(lp403
I19
aI2
asg21
g42
sVtype
p404
VPROPER
p405
sVid
p406
I147
sa.