(lp1
(dp2
VendIndex
p3
I8
sVanimacy
p4
VANIMATE
p5
sS'title'
p6
I00
sVtext
p7
VPirro
p8
sVisRepresentativeMention
p9
I01
sVnumber
p10
VSINGULAR
p11
sS'name_type'
p12
(lp13
S'surnames'
p14
asS'appositive'
p15
(dp16
VendIndex
p17
I15
sVanimacy
p18
VANIMATE
p19
sg6
I00
sVtext
p20
Va former Westchester County district attorney
p21
sVisRepresentativeMention
p22
I00
sVnumber
p23
VSINGULAR
p24
sg12
(lp25
sg15
NsVstartIndex
p26
I9
sVsentNum
p27
I3
sVgender
p28
VMALE
p29
sVposition
p30
(lp31
I3
aI5
asVtype
p32
VNOMINAL
p33
sVid
p34
I31
ssVstartIndex
p35
I7
sVsentNum
p36
I3
sVgender
p37
VMALE
p38
sVposition
p39
(lp40
I3
aI3
asS'syntax'
p41
S'np-subj'
p42
sVtype
p43
VPROPER
p44
sVid
p45
I26
sa(dp46
VendIndex
p47
I16
sVanimacy
p48
VANIMATE
p49
sg6
I00
sVtext
p50
VPirro
p51
sVisRepresentativeMention
p52
I00
sVnumber
p53
VSINGULAR
p54
sg12
(lp55
g14
asg15
NsVstartIndex
p56
I15
sVsentNum
p57
I6
sVgender
p58
VMALE
p59
sVposition
p60
(lp61
I6
aI5
asg41
g42
sVtype
p62
VPROPER
p63
sVid
p64
I54
sa(dp65
VendIndex
p66
I2
sVanimacy
p67
VANIMATE
p68
sg6
I00
sVtext
p69
VPirro
p70
sVisRepresentativeMention
p71
I00
sVnumber
p72
VSINGULAR
p73
sg12
(lp74
g14
asg15
NsVstartIndex
p75
I1
sVsentNum
p76
I8
sVgender
p77
VMALE
p78
sVposition
p79
(lp80
I8
aI1
asg41
g42
sVtype
p81
VPROPER
p82
sVid
p83
I76
sa(dp84
VendIndex
p85
I4
sVanimacy
p86
VANIMATE
p87
sg6
I00
sVtext
p88
VJeanine Ferris Pirro
p89
sVisRepresentativeMention
p90
I01
sVnumber
p91
VSINGULAR
p92
sg12
(lp93
sg15
NsVstartIndex
p94
I1
sVsentNum
p95
I1
sVgender
p96
VNEUTRAL
p97
sVposition
p98
(lp99
I1
aI1
asg41
g42
sVtype
p100
VPROPER
p101
sVid
p102
I1
sa.