(lp1
(dp2
VendIndex
p3
I21
sVanimacy
p4
VANIMATE
p5
sS'title'
p6
I00
sVtext
p7
Vhis
p8
sVisRepresentativeMention
p9
I00
sVnumber
p10
VSINGULAR
p11
sS'name_type'
p12
(lp13
sS'appositive'
p14
NsVstartIndex
p15
I20
sVsentNum
p16
I6
sVgender
p17
VMALE
p18
sVposition
p19
(lp20
I6
aI7
asS'syntax'
p21
S'subj-det'
p22
sVtype
p23
VPRONOMINAL
p24
sVid
p25
I57
sa(dp26
VendIndex
p27
I6
sVanimacy
p28
VANIMATE
p29
sg6
I00
sVtext
p30
VI
sVisRepresentativeMention
p31
I00
sVnumber
p32
VSINGULAR
p33
sg12
(lp34
sg14
NsVstartIndex
p35
I5
sVsentNum
p36
I12
sVgender
p37
VUNKNOWN
p38
sVposition
p39
(lp40
I12
aI2
asg21
S'np-subj'
p41
sVtype
p42
VPRONOMINAL
p43
sVid
p44
I100
sa(dp45
VendIndex
p46
I3
sVanimacy
p47
VANIMATE
p48
sg6
I00
sVtext
p49
VI
sVisRepresentativeMention
p50
I00
sVnumber
p51
VSINGULAR
p52
sg12
(lp53
sg14
NsVstartIndex
p54
I2
sVsentNum
p55
I13
sVgender
p56
VUNKNOWN
p57
sVposition
p58
(lp59
I13
aI1
asg21
g41
sVtype
p60
VPRONOMINAL
p61
sVid
p62
I101
sa(dp63
VendIndex
p64
I4
sVanimacy
p65
VANIMATE
p66
sg6
I00
sVtext
p67
VJeanine Ferris Pirro
p68
sVisRepresentativeMention
p69
I01
sVnumber
p70
VSINGULAR
p71
sg12
(lp72
sg14
NsVstartIndex
p73
I1
sVsentNum
p74
I1
sVgender
p75
VNEUTRAL
p76
sVposition
p77
(lp78
I1
aI1
asg21
g41
sVtype
p79
VPROPER
p80
sVid
p81
I1
sa(dp82
VendIndex
p83
I8
sVanimacy
p84
VANIMATE
p85
sg6
I00
sVtext
p86
VPirro
p87
sVisRepresentativeMention
p88
I00
sVnumber
p89
VSINGULAR
p90
sg12
(lp91
S'surnames'
p92
asg14
NsVstartIndex
p93
I7
sVsentNum
p94
I4
sVgender
p95
VMALE
p96
sVposition
p97
(lp98
I4
aI3
asg21
g41
sVtype
p99
VPROPER
p100
sVid
p101
I39
sa(dp102
VendIndex
p103
I2
sVanimacy
p104
VANIMATE
p105
sg6
I00
sVtext
p106
VPIrro
p107
sVisRepresentativeMention
p108
I00
sVnumber
p109
VSINGULAR
p110
sg12
(lp111
g92
asg14
NsVstartIndex
p112
I1
sVsentNum
p113
I8
sVgender
p114
VMALE
p115
sVposition
p116
(lp117
I8
aI1
asg21
g41
sVtype
p118
VPROPER
p119
sVid
p120
I73
sa(dp121
VendIndex
p122
I2
sVanimacy
p123
VANIMATE
p124
sg6
I00
sVtext
p125
VPirro
p126
sVisRepresentativeMention
p127
I00
sVnumber
p128
VSINGULAR
p129
sg12
(lp130
g92
asg14
NsVstartIndex
p131
I1
sVsentNum
p132
I12
sVgender
p133
VMALE
p134
sVposition
p135
(lp136
I12
aI1
asg21
g41
sVtype
p137
VPROPER
p138
sVid
p139
I99
sa(dp140
VendIndex
p141
I9
sVanimacy
p142
VANIMATE
p143
sg6
I00
sVtext
p144
VPirro
p145
sVisRepresentativeMention
p146
I00
sVnumber
p147
VSINGULAR
p148
sg12
(lp149
g92
asg14
NsVstartIndex
p150
I8
sVsentNum
p151
I19
sVgender
p152
VMALE
p153
sVposition
p154
(lp155
I19
aI2
asg21
g41
sVtype
p156
VPROPER
p157
sVid
p158
I142
sa(dp159
VendIndex
p160
I15
sVanimacy
p161
VUNKNOWN
p162
sg6
I00
sVtext
p163
Vpirro , a former Westchester County district attorney
p164
sVisRepresentativeMention
p165
I01
sVnumber
p166
VSINGULAR
p167
sg12
(lp168
sg14
NsVstartIndex
p169
I7
sVsentNum
p170
I3
sVgender
p171
VMALE
p172
sVposition
p173
(lp174
I3
aI3
asg21
g41
sVtype
p175
VNOMINAL
p176
sVid
p177
I29
sa.