(lp1
(dp2
VendIndex
p3
I3
sVanimacy
p4
VANIMATE
p5
sS'title'
p6
I00
sVtext
p7
VI
sVisRepresentativeMention
p8
I00
sVnumber
p9
VSINGULAR
p10
sS'name_type'
p11
(lp12
sS'appositive'
p13
NsVstartIndex
p14
I2
sVsentNum
p15
I10
sVgender
p16
VUNKNOWN
p17
sVposition
p18
(lp19
I10
aI1
asS'syntax'
p20
S'np-subj'
p21
sVtype
p22
VPRONOMINAL
p23
sVid
p24
I92
sa(dp25
VendIndex
p26
I8
sVanimacy
p27
VANIMATE
p28
sg6
I00
sVtext
p29
VPirro
p30
sVisRepresentativeMention
p31
I00
sVnumber
p32
VSINGULAR
p33
sg11
(lp34
S'surnames'
p35
asg13
(dp36
VendIndex
p37
I15
sVanimacy
p38
VANIMATE
p39
sg6
I00
sVtext
p40
Va former Westchester County district attorney
p41
sVisRepresentativeMention
p42
I00
sVnumber
p43
VSINGULAR
p44
sg11
(lp45
sg13
NsVstartIndex
p46
I9
sVsentNum
p47
I3
sVgender
p48
VMALE
p49
sVposition
p50
(lp51
I3
aI5
asVtype
p52
VNOMINAL
p53
sVid
p54
I31
ssVstartIndex
p55
I7
sVsentNum
p56
I3
sVgender
p57
VMALE
p58
sVposition
p59
(lp60
I3
aI3
asg20
g21
sVtype
p61
VPROPER
p62
sVid
p63
I26
sa(dp64
VendIndex
p65
I8
sVanimacy
p66
VANIMATE
p67
sg6
I00
sVtext
p68
VPirro
p69
sVisRepresentativeMention
p70
I00
sVnumber
p71
VSINGULAR
p72
sg11
(lp73
g35
asg13
NsVstartIndex
p74
I7
sVsentNum
p75
I4
sVgender
p76
VMALE
p77
sVposition
p78
(lp79
I4
aI3
asg20
g21
sVtype
p80
VPROPER
p81
sVid
p82
I41
sa(dp83
VendIndex
p84
I11
sVanimacy
p85
VANIMATE
p86
sg6
I00
sVtext
p87
VPirro
p88
sVisRepresentativeMention
p89
I00
sVnumber
p90
VSINGULAR
p91
sg11
(lp92
g35
asg13
NsVstartIndex
p93
I10
sVsentNum
p94
I5
sVgender
p95
VMALE
p96
sVposition
p97
(lp98
I5
aI3
asg20
g21
sVtype
p99
VPROPER
p100
sVid
p101
I50
sa(dp102
VendIndex
p103
I2
sVanimacy
p104
VANIMATE
p105
sg6
I00
sVtext
p106
VPirro
p107
sVisRepresentativeMention
p108
I00
sVnumber
p109
VSINGULAR
p110
sg11
(lp111
g35
asg13
NsVstartIndex
p112
I1
sVsentNum
p113
I8
sVgender
p114
VMALE
p115
sVposition
p116
(lp117
I8
aI1
asg20
g21
sVtype
p118
VPROPER
p119
sVid
p120
I75
sa(dp121
VendIndex
p122
I13
sVanimacy
p123
VANIMATE
p124
sg6
I00
sVtext
p125
VPirro
p126
sVisRepresentativeMention
p127
I00
sVnumber
p128
VSINGULAR
p129
sg11
(lp130
g35
asg13
NsVstartIndex
p131
I12
sVsentNum
p132
I10
sVgender
p133
VMALE
p134
sVposition
p135
(lp136
I10
aI3
asg20
g21
sVtype
p137
VPROPER
p138
sVid
p139
I91
sa(dp140
VendIndex
p141
I9
sVanimacy
p142
VANIMATE
p143
sg6
I00
sVtext
p144
VPirro
p145
sVisRepresentativeMention
p146
I00
sVnumber
p147
VSINGULAR
p148
sg11
(lp149
g35
asg13
NsVstartIndex
p150
I8
sVsentNum
p151
I19
sVgender
p152
VMALE
p153
sVposition
p154
(lp155
I19
aI2
asg20
g21
sVtype
p156
VPROPER
p157
sVid
p158
I144
sa(dp159
VendIndex
p160
I36
sVanimacy
p161
VANIMATE
p162
sg6
I00
sVtext
p163
VPirro's
p164
sVisRepresentativeMention
p165
I00
sVnumber
p166
VSINGULAR
p167
sg11
(lp168
g35
asg13
NsVstartIndex
p169
I34
sVsentNum
p170
I19
sVgender
p171
VMALE
p172
sVposition
p173
(lp174
I19
aI10
asg20
S'subj-det'
p175
sVtype
p176
VPROPER
p177
sVid
p178
I145
sa(dp179
VendIndex
p180
I4
sVanimacy
p181
VANIMATE
p182
sg6
I00
sVtext
p183
VJeanine Ferris Pirro
p184
sVisRepresentativeMention
p185
I01
sVnumber
p186
VSINGULAR
p187
sg11
(lp188
sg13
NsVstartIndex
p189
I1
sVsentNum
p190
I1
sVgender
p191
VNEUTRAL
p192
sVposition
p193
(lp194
I1
aI1
asg20
g21
sVtype
p195
VPROPER
p196
sVid
p197
I1
sa.