(lp1
(dp2
VendIndex
p3
I21
sVanimacy
p4
VANIMATE
p5
sS'title'
p6
I00
sVtext
p7
Vher
p8
sVisRepresentativeMention
p9
I00
sVnumber
p10
VSINGULAR
p11
sS'name_type'
p12
(lp13
sS'appositive'
p14
NsVstartIndex
p15
I20
sVsentNum
p16
I6
sVgender
p17
VFEMALE
p18
sVposition
p19
(lp20
I6
aI8
asS'syntax'
p21
S'subj-det'
p22
sVtype
p23
VPRONOMINAL
p24
sVid
p25
I60
sa(dp26
VendIndex
p27
I13
sVanimacy
p28
VANIMATE
p29
sg6
I00
sVtext
p30
Vher
p31
sVisRepresentativeMention
p32
I00
sVnumber
p33
VSINGULAR
p34
sg12
(lp35
sg14
NsVstartIndex
p36
I12
sVsentNum
p37
I7
sVgender
p38
VFEMALE
p39
sVposition
p40
(lp41
I7
aI7
asg21
g22
sVtype
p42
VPRONOMINAL
p43
sVid
p44
I71
sa(dp45
VendIndex
p46
I2
sVanimacy
p47
VANIMATE
p48
sg6
I00
sVtext
p49
VShe
p50
sVisRepresentativeMention
p51
I00
sVnumber
p52
VSINGULAR
p53
sg12
(lp54
sg14
NsVstartIndex
p55
I1
sVsentNum
p56
I8
sVgender
p57
VFEMALE
p58
sVposition
p59
(lp60
I8
aI1
asg21
S'np-subj'
p61
sVtype
p62
VPRONOMINAL
p63
sVid
p64
I76
sa(dp65
VendIndex
p66
I5
sVanimacy
p67
VANIMATE
p68
sg6
I00
sVtext
p69
Vher
p70
sVisRepresentativeMention
p71
I00
sVnumber
p72
VSINGULAR
p73
sg12
(lp74
sg14
NsVstartIndex
p75
I4
sVsentNum
p76
I8
sVgender
p77
VFEMALE
p78
sVposition
p79
(lp80
I8
aI3
asg21
g22
sVtype
p81
VPRONOMINAL
p82
sVid
p83
I78
sa(dp84
VendIndex
p85
I18
sVanimacy
p86
VANIMATE
p87
sg6
I00
sVtext
p88
Vshe
p89
sVisRepresentativeMention
p90
I00
sVnumber
p91
VSINGULAR
p92
sg12
(lp93
sg14
NsVstartIndex
p94
I17
sVsentNum
p95
I8
sVgender
p96
VFEMALE
p97
sVposition
p98
(lp99
I8
aI7
asg21
g61
sVtype
p100
VPRONOMINAL
p101
sVid
p102
I82
sa(dp103
VendIndex
p104
I3
sVanimacy
p105
VANIMATE
p106
sg6
I00
sVtext
p107
VI
sVisRepresentativeMention
p108
I00
sVnumber
p109
VSINGULAR
p110
sg12
(lp111
sg14
NsVstartIndex
p112
I2
sVsentNum
p113
I10
sVgender
p114
VUNKNOWN
p115
sVposition
p116
(lp117
I10
aI1
asg21
g61
sVtype
p118
VPRONOMINAL
p119
sVid
p120
I92
sa(dp121
VendIndex
p122
I13
sVanimacy
p123
VANIMATE
p124
sg6
I00
sVtext
p125
Vshe
p126
sVisRepresentativeMention
p127
I00
sVnumber
p128
VSINGULAR
p129
sg12
(lp130
sg14
NsVstartIndex
p131
I12
sVsentNum
p132
I10
sVgender
p133
VFEMALE
p134
sVposition
p135
(lp136
I10
aI3
asg21
g61
sVtype
p137
VPRONOMINAL
p138
sVid
p139
I94
sa(dp140
VendIndex
p141
I6
sVanimacy
p142
VANIMATE
p143
sg6
I00
sVtext
p144
VI
sVisRepresentativeMention
p145
I00
sVnumber
p146
VSINGULAR
p147
sg12
(lp148
sg14
NsVstartIndex
p149
I5
sVsentNum
p150
I12
sVgender
p151
VUNKNOWN
p152
sVposition
p153
(lp154
I12
aI1
asg21
g61
sVtype
p155
VPRONOMINAL
p156
sVid
p157
I102
sa(dp158
VendIndex
p159
I3
sVanimacy
p160
VANIMATE
p161
sg6
I00
sVtext
p162
VI
sVisRepresentativeMention
p163
I00
sVnumber
p164
VSINGULAR
p165
sg12
(lp166
sg14
NsVstartIndex
p167
I2
sVsentNum
p168
I13
sVgender
p169
VUNKNOWN
p170
sVposition
p171
(lp172
I13
aI1
asg21
g61
sVtype
p173
VPRONOMINAL
p174
sVid
p175
I103
sa.