(lp1
(dp2
VendIndex
p3
I27
sVanimacy
p4
VANIMATE
p5
sS'title'
p6
I00
sVtext
p7
Vhe
p8
sVisRepresentativeMention
p9
I00
sVnumber
p10
VSINGULAR
p11
sS'name_type'
p12
(lp13
sS'appositive'
p14
NsVstartIndex
p15
I26
sVsentNum
p16
I1
sVgender
p17
VMALE
p18
sVposition
p19
(lp20
I1
aI11
asS'syntax'
p21
S'np-subj'
p22
sVtype
p23
VPRONOMINAL
p24
sVid
p25
I12
sa(dp26
VendIndex
p27
I2
sVanimacy
p28
VANIMATE
p29
sg6
I00
sVtext
p30
VHe
p31
sVisRepresentativeMention
p32
I00
sVnumber
p33
VSINGULAR
p34
sg12
(lp35
sg14
NsVstartIndex
p36
I1
sVsentNum
p37
I3
sVgender
p38
VMALE
p39
sVposition
p40
(lp41
I3
aI1
asg21
g22
sVtype
p42
VPRONOMINAL
p43
sVid
p44
I31
sa(dp45
VendIndex
p46
I5
sVanimacy
p47
VANIMATE
p48
sg6
I00
sVtext
p49
Vhe
p50
sVisRepresentativeMention
p51
I00
sVnumber
p52
VSINGULAR
p53
sg12
(lp54
sg14
NsVstartIndex
p55
I4
sVsentNum
p56
I6
sVgender
p57
VMALE
p58
sVposition
p59
(lp60
I6
aI2
asg21
g22
sVtype
p61
VPRONOMINAL
p62
sVid
p63
I62
sa(dp64
VendIndex
p65
I14
sVanimacy
p66
VANIMATE
p67
sg6
I00
sVtext
p68
Vhe
p69
sVisRepresentativeMention
p70
I00
sVnumber
p71
VSINGULAR
p72
sg12
(lp73
sg14
NsVstartIndex
p74
I13
sVsentNum
p75
I7
sVgender
p76
VMALE
p77
sVposition
p78
(lp79
I7
aI2
asg21
g22
sVtype
p80
VPRONOMINAL
p81
sVid
p82
I69
sa(dp83
VendIndex
p84
I2
sVanimacy
p85
VANIMATE
p86
sg6
I00
sVtext
p87
VHe
p88
sVisRepresentativeMention
p89
I00
sVnumber
p90
VSINGULAR
p91
sg12
(lp92
sg14
NsVstartIndex
p93
I1
sVsentNum
p94
I8
sVgender
p95
VMALE
p96
sVposition
p97
(lp98
I8
aI1
asg21
g22
sVtype
p99
VPRONOMINAL
p100
sVid
p101
I77
sa(dp102
VendIndex
p103
I21
sVanimacy
p104
VANIMATE
p105
sg6
I00
sVtext
p106
Vhe
p107
sVisRepresentativeMention
p108
I00
sVnumber
p109
VSINGULAR
p110
sg12
(lp111
sg14
NsVstartIndex
p112
I20
sVsentNum
p113
I8
sVgender
p114
VMALE
p115
sVposition
p116
(lp117
I8
aI8
asg21
g22
sVtype
p118
VPRONOMINAL
p119
sVid
p120
I82
sa(dp121
VendIndex
p122
I15
sVanimacy
p123
VANIMATE
p124
sg6
I00
sVtext
p125
Vhe
p126
sVisRepresentativeMention
p127
I00
sVnumber
p128
VSINGULAR
p129
sg12
(lp130
sg14
NsVstartIndex
p131
I14
sVsentNum
p132
I9
sVgender
p133
VMALE
p134
sVposition
p135
(lp136
I9
aI6
asg21
g22
sVtype
p137
VPRONOMINAL
p138
sVid
p139
I89
sa(dp140
VendIndex
p141
I7
sVanimacy
p142
VANIMATE
p143
sg6
I00
sVtext
p144
Vhe
p145
sVisRepresentativeMention
p146
I00
sVnumber
p147
VSINGULAR
p148
sg12
(lp149
sg14
NsVstartIndex
p150
I6
sVsentNum
p151
I10
sVgender
p152
VMALE
p153
sVposition
p154
(lp155
I10
aI2
asg21
g22
sVtype
p156
VPRONOMINAL
p157
sVid
p158
I96
sa(dp159
VendIndex
p160
I5
sVanimacy
p161
VANIMATE
p162
sg6
I00
sVtext
p163
VVladimir Putin  on Tuesday
p164
sVisRepresentativeMention
p165
I01
sVnumber
p166
VSINGULAR
p167
sg12
(lp168
sg14
NsVstartIndex
p169
I1
sVsentNum
p170
I1
sVgender
p171
VMALE
p172
sVposition
p173
(lp174
I1
aI1
asg21
g22
sVtype
p175
VPROPER
p176
sVid
p177
I6
sa(dp178
VendIndex
p179
I19
sVanimacy
p180
VANIMATE
p181
sg6
I00
sVtext
p182
VPutin
p183
sVisRepresentativeMention
p184
I00
sVnumber
p185
VSINGULAR
p186
sg12
(lp187
S'surnames'
p188
asg14
NsVstartIndex
p189
I18
sVsentNum
p190
I1
sVgender
p191
VMALE
p192
sVposition
p193
(lp194
I1
aI9
asg21
g22
sVtype
p195
VPROPER
p196
sVid
p197
I4
sa(dp198
VendIndex
p199
I51
sVanimacy
p200
VANIMATE
p201
sg6
I00
sVtext
p202
VPutin's
p203
sVisRepresentativeMention
p204
I00
sVnumber
p205
VSINGULAR
p206
sg12
(lp207
g188
asg14
NsVstartIndex
p208
I49
sVsentNum
p209
I1
sVgender
p210
VMALE
p211
sVposition
p212
(lp213
I1
aI18
asg21
S'subj-det'
p214
sVtype
p215
VPROPER
p216
sVid
p217
I5
sa(dp218
VendIndex
p219
I33
sVanimacy
p220
VANIMATE
p221
sg6
I00
sVtext
p222
VPutin
p223
sVisRepresentativeMention
p224
I00
sVnumber
p225
VSINGULAR
p226
sg12
(lp227
g188
asg14
NsVstartIndex
p228
I32
sVsentNum
p229
I2
sVgender
p230
VMALE
p231
sVposition
p232
(lp233
I2
aI9
asg21
g22
sVtype
p234
VPROPER
p235
sVid
p236
I23
sa(dp237
VendIndex
p238
I3
sVanimacy
p239
VANIMATE
p240
sg6
I00
sVtext
p241
VPutin's
p242
sVisRepresentativeMention
p243
I00
sVnumber
p244
VSINGULAR
p245
sg12
(lp246
g188
asg14
NsVstartIndex
p247
I1
sVsentNum
p248
I5
sVgender
p249
VMALE
p250
sVposition
p251
(lp252
I5
aI2
asg21
g214
sVtype
p253
VPROPER
p254
sVid
p255
I48
sa(dp256
VendIndex
p257
I2
sVanimacy
p258
VANIMATE
p259
sg6
I00
sVtext
p260
VPutin
p261
sVisRepresentativeMention
p262
I00
sVnumber
p263
VSINGULAR
p264
sg12
(lp265
g188
asg14
NsVstartIndex
p266
I1
sVsentNum
p267
I9
sVgender
p268
VMALE
p269
sVposition
p270
(lp271
I9
aI1
asg21
g22
sVtype
p272
VPROPER
p273
sVid
p274
I84
sa(dp275
VendIndex
p276
I2
sVanimacy
p277
VANIMATE
p278
sg6
I00
sVtext
p279
VPutin
p280
sVisRepresentativeMention
p281
I00
sVnumber
p282
VSINGULAR
p283
sg12
(lp284
g188
asg14
NsVstartIndex
p285
I1
sVsentNum
p286
I11
sVgender
p287
VMALE
p288
sVposition
p289
(lp290
I11
aI1
asg21
g22
sVtype
p291
VPROPER
p292
sVid
p293
I101
sa(dp294
VendIndex
p295
I12
sVanimacy
p296
VANIMATE
p297
sg6
I00
sVtext
p298
VPutin
p299
sVisRepresentativeMention
p300
I00
sVnumber
p301
VSINGULAR
p302
sg12
(lp303
g188
asg14
NsVstartIndex
p304
I11
sVsentNum
p305
I12
sVgender
p306
VMALE
p307
sVposition
p308
(lp309
I12
aI2
asg21
g22
sVtype
p310
VPROPER
p311
sVid
p312
I118
sa.