(lp1
(dp2
VendIndex
p3
I18
sVanimacy
p4
VANIMATE
p5
sS'title'
p6
I00
sVtext
p7
Vhe
p8
sVisRepresentativeMention
p9
I00
sVnumber
p10
VSINGULAR
p11
sS'name_type'
p12
(lp13
sS'appositive'
p14
NsVstartIndex
p15
I17
sVsentNum
p16
I1
sVgender
p17
VMALE
p18
sVposition
p19
(lp20
I1
aI9
asS'syntax'
p21
S'np-subj'
p22
sVtype
p23
VPRONOMINAL
p24
sVid
p25
I9
sa(dp26
VendIndex
p27
I49
sVanimacy
p28
VANIMATE
p29
sg6
I00
sVtext
p30
Vhis
p31
sVisRepresentativeMention
p32
I00
sVnumber
p33
VSINGULAR
p34
sg12
(lp35
sg14
NsVstartIndex
p36
I48
sVsentNum
p37
I1
sVgender
p38
VMALE
p39
sVposition
p40
(lp41
I1
aI17
asg21
S'subj-det'
p42
sVtype
p43
VPRONOMINAL
p44
sVid
p45
I17
sa(dp46
VendIndex
p47
I33
sVanimacy
p48
VANIMATE
p49
sg6
I00
sVtext
p50
Vhe
p51
sVisRepresentativeMention
p52
I00
sVnumber
p53
VSINGULAR
p54
sg12
(lp55
sg14
NsVstartIndex
p56
I32
sVsentNum
p57
I2
sVgender
p58
VMALE
p59
sVposition
p60
(lp61
I2
aI9
asg21
g22
sVtype
p62
VPRONOMINAL
p63
sVid
p64
I29
sa(dp65
VendIndex
p66
I2
sVanimacy
p67
VANIMATE
p68
sg6
I00
sVtext
p69
Vhis
p70
sVisRepresentativeMention
p71
I00
sVnumber
p72
VSINGULAR
p73
sg12
(lp74
sg14
NsVstartIndex
p75
I1
sVsentNum
p76
I5
sVgender
p77
VMALE
p78
sVposition
p79
(lp80
I5
aI2
asg21
g42
sVtype
p81
VPRONOMINAL
p82
sVid
p83
I50
sa(dp84
VendIndex
p85
I5
sVanimacy
p86
VANIMATE
p87
sg6
I00
sVtext
p88
Vhe
p89
sVisRepresentativeMention
p90
I00
sVnumber
p91
VSINGULAR
p92
sg12
(lp93
sg14
NsVstartIndex
p94
I4
sVsentNum
p95
I6
sVgender
p96
VMALE
p97
sVposition
p98
(lp99
I6
aI2
asg21
g22
sVtype
p100
VPRONOMINAL
p101
sVid
p102
I61
sa(dp103
VendIndex
p104
I14
sVanimacy
p105
VANIMATE
p106
sg6
I00
sVtext
p107
Vhe
p108
sVisRepresentativeMention
p109
I00
sVnumber
p110
VSINGULAR
p111
sg12
(lp112
sg14
NsVstartIndex
p113
I13
sVsentNum
p114
I7
sVgender
p115
VMALE
p116
sVposition
p117
(lp118
I7
aI2
asg21
g22
sVtype
p119
VPRONOMINAL
p120
sVid
p121
I68
sa(dp122
VendIndex
p123
I2
sVanimacy
p124
VANIMATE
p125
sg6
I00
sVtext
p126
Vhe
p127
sVisRepresentativeMention
p128
I00
sVnumber
p129
VSINGULAR
p130
sg12
(lp131
sg14
NsVstartIndex
p132
I1
sVsentNum
p133
I8
sVgender
p134
VMALE
p135
sVposition
p136
(lp137
I8
aI1
asg21
g22
sVtype
p138
VPRONOMINAL
p139
sVid
p140
I76
sa(dp141
VendIndex
p142
I21
sVanimacy
p143
VANIMATE
p144
sg6
I00
sVtext
p145
Vhe
p146
sVisRepresentativeMention
p147
I00
sVnumber
p148
VSINGULAR
p149
sg12
(lp150
sg14
NsVstartIndex
p151
I20
sVsentNum
p152
I8
sVgender
p153
VMALE
p154
sVposition
p155
(lp156
I8
aI8
asg21
g22
sVtype
p157
VPRONOMINAL
p158
sVid
p159
I81
sa(dp160
VendIndex
p161
I15
sVanimacy
p162
VANIMATE
p163
sg6
I00
sVtext
p164
Vhe
p165
sVisRepresentativeMention
p166
I00
sVnumber
p167
VSINGULAR
p168
sg12
(lp169
sg14
NsVstartIndex
p170
I14
sVsentNum
p171
I9
sVgender
p172
VMALE
p173
sVposition
p174
(lp175
I9
aI6
asg21
g22
sVtype
p176
VPRONOMINAL
p177
sVid
p178
I88
sa(dp179
VendIndex
p180
I7
sVanimacy
p181
VANIMATE
p182
sg6
I00
sVtext
p183
Vhe
p184
sVisRepresentativeMention
p185
I00
sVnumber
p186
VSINGULAR
p187
sg12
(lp188
sg14
NsVstartIndex
p189
I6
sVsentNum
p190
I10
sVgender
p191
VMALE
p192
sVposition
p193
(lp194
I10
aI2
asg21
g22
sVtype
p195
VPRONOMINAL
p196
sVid
p197
I95
sa(dp198
VendIndex
p199
I2
sVanimacy
p200
VANIMATE
p201
sg6
I00
sVtext
p202
VHe
p203
sVisRepresentativeMention
p204
I00
sVnumber
p205
VSINGULAR
p206
sg12
(lp207
sg14
NsVstartIndex
p208
I1
sVsentNum
p209
I11
sVgender
p210
VMALE
p211
sVposition
p212
(lp213
I11
aI1
asg21
g22
sVtype
p214
VPRONOMINAL
p215
sVid
p216
I105
sa(dp217
VendIndex
p218
I4
sVanimacy
p219
VANIMATE
p220
sg6
I00
sVtext
p221
VPutin  on Tuesday
p222
sVisRepresentativeMention
p223
I01
sVnumber
p224
VSINGULAR
p225
sg12
(lp226
sg14
NsVstartIndex
p227
I1
sVsentNum
p228
I1
sVgender
p229
VMALE
p230
sVposition
p231
(lp232
I1
aI1
asg21
g22
sVtype
p233
VPROPER
p234
sVid
p235
I4
sa(dp236
VendIndex
p237
I2
sVanimacy
p238
VANIMATE
p239
sg6
I00
sVtext
p240
VPutin
p241
sVisRepresentativeMention
p242
I00
sVnumber
p243
VSINGULAR
p244
sg12
(lp245
S'surnames'
p246
asg14
NsVstartIndex
p247
I1
sVsentNum
p248
I3
sVgender
p249
VMALE
p250
sVposition
p251
(lp252
I3
aI1
asg21
g22
sVtype
p253
VPROPER
p254
sVid
p255
I30
sa(dp256
VendIndex
p257
I2
sVanimacy
p258
VANIMATE
p259
sg6
I00
sVtext
p260
VPutin
p261
sVisRepresentativeMention
p262
I00
sVnumber
p263
VSINGULAR
p264
sg12
(lp265
g246
asg14
NsVstartIndex
p266
I1
sVsentNum
p267
I9
sVgender
p268
VMALE
p269
sVposition
p270
(lp271
I9
aI1
asg21
g22
sVtype
p272
VPROPER
p273
sVid
p274
I83
sa(dp275
VendIndex
p276
I12
sVanimacy
p277
VANIMATE
p278
sg6
I00
sVtext
p279
VPutin
p280
sVisRepresentativeMention
p281
I00
sVnumber
p282
VSINGULAR
p283
sg12
(lp284
g246
asg14
NsVstartIndex
p285
I11
sVsentNum
p286
I12
sVgender
p287
VMALE
p288
sVposition
p289
(lp290
I12
aI2
asg21
g22
sVtype
p291
VPROPER
p292
sVid
p293
I117
sa.