(lp1
(dp2
VendIndex
p3
I19
sVanimacy
p4
VANIMATE
p5
sS'title'
p6
I00
sVtext
p7
Vhe
p8
sVisRepresentativeMention
p9
I00
sVnumber
p10
VSINGULAR
p11
sS'name_type'
p12
(lp13
sS'appositive'
p14
NsVstartIndex
p15
I18
sVsentNum
p16
I1
sVgender
p17
VMALE
p18
sVposition
p19
(lp20
I1
aI9
asS'syntax'
p21
S'np-subj'
p22
sVtype
p23
VPRONOMINAL
p24
sVid
p25
I9
sa(dp26
VendIndex
p27
I50
sVanimacy
p28
VANIMATE
p29
sg6
I00
sVtext
p30
Vhis
p31
sVisRepresentativeMention
p32
I00
sVnumber
p33
VSINGULAR
p34
sg12
(lp35
sg14
NsVstartIndex
p36
I49
sVsentNum
p37
I1
sVgender
p38
VMALE
p39
sVposition
p40
(lp41
I1
aI17
asg21
S'subj-det'
p42
sVtype
p43
VPRONOMINAL
p44
sVid
p45
I17
sa(dp46
VendIndex
p47
I2
sVanimacy
p48
VANIMATE
p49
sg6
I00
sVtext
p50
VHe
p51
sVisRepresentativeMention
p52
I00
sVnumber
p53
VSINGULAR
p54
sg12
(lp55
sg14
NsVstartIndex
p56
I1
sVsentNum
p57
I4
sVgender
p58
VMALE
p59
sVposition
p60
(lp61
I4
aI1
asg21
g22
sVtype
p62
VPRONOMINAL
p63
sVid
p64
I39
sa(dp65
VendIndex
p66
I14
sVanimacy
p67
VANIMATE
p68
sg6
I00
sVtext
p69
Vhe
p70
sVisRepresentativeMention
p71
I00
sVnumber
p72
VSINGULAR
p73
sg12
(lp74
sg14
NsVstartIndex
p75
I13
sVsentNum
p76
I7
sVgender
p77
VMALE
p78
sVposition
p79
(lp80
I7
aI2
asg21
g22
sVtype
p81
VPRONOMINAL
p82
sVid
p83
I68
sa(dp84
VendIndex
p85
I2
sVanimacy
p86
VANIMATE
p87
sg6
I00
sVtext
p88
VHe
p89
sVisRepresentativeMention
p90
I00
sVnumber
p91
VSINGULAR
p92
sg12
(lp93
sg14
NsVstartIndex
p94
I1
sVsentNum
p95
I8
sVgender
p96
VMALE
p97
sVposition
p98
(lp99
I8
aI1
asg21
g22
sVtype
p100
VPRONOMINAL
p101
sVid
p102
I76
sa(dp103
VendIndex
p104
I21
sVanimacy
p105
VANIMATE
p106
sg6
I00
sVtext
p107
Vhe
p108
sVisRepresentativeMention
p109
I00
sVnumber
p110
VSINGULAR
p111
sg12
(lp112
sg14
NsVstartIndex
p113
I20
sVsentNum
p114
I8
sVgender
p115
VMALE
p116
sVposition
p117
(lp118
I8
aI8
asg21
g22
sVtype
p119
VPRONOMINAL
p120
sVid
p121
I81
sa(dp122
VendIndex
p123
I15
sVanimacy
p124
VANIMATE
p125
sg6
I00
sVtext
p126
Vhe
p127
sVisRepresentativeMention
p128
I00
sVnumber
p129
VSINGULAR
p130
sg12
(lp131
sg14
NsVstartIndex
p132
I14
sVsentNum
p133
I9
sVgender
p134
VMALE
p135
sVposition
p136
(lp137
I9
aI6
asg21
g22
sVtype
p138
VPRONOMINAL
p139
sVid
p140
I88
sa(dp141
VendIndex
p142
I7
sVanimacy
p143
VANIMATE
p144
sg6
I00
sVtext
p145
Vhe
p146
sVisRepresentativeMention
p147
I00
sVnumber
p148
VSINGULAR
p149
sg12
(lp150
sg14
NsVstartIndex
p151
I6
sVsentNum
p152
I10
sVgender
p153
VMALE
p154
sVposition
p155
(lp156
I10
aI2
asg21
g22
sVtype
p157
VPRONOMINAL
p158
sVid
p159
I95
sa(dp160
VendIndex
p161
I2
sVanimacy
p162
VANIMATE
p163
sg6
I00
sVtext
p164
VHe
p165
sVisRepresentativeMention
p166
I00
sVnumber
p167
VSINGULAR
p168
sg12
(lp169
sg14
NsVstartIndex
p170
I1
sVsentNum
p171
I11
sVgender
p172
VMALE
p173
sVposition
p174
(lp175
I11
aI1
asg21
g22
sVtype
p176
VPRONOMINAL
p177
sVid
p178
I105
sa(dp179
VendIndex
p180
I5
sVanimacy
p181
VANIMATE
p182
sg6
I00
sVtext
p183
VVladimir Putin  on Tuesday
p184
sVisRepresentativeMention
p185
I01
sVnumber
p186
VSINGULAR
p187
sg12
(lp188
sg14
NsVstartIndex
p189
I1
sVsentNum
p190
I1
sVgender
p191
VMALE
p192
sVposition
p193
(lp194
I1
aI1
asg21
g22
sVtype
p195
VPROPER
p196
sVid
p197
I4
sa(dp198
VendIndex
p199
I33
sVanimacy
p200
VANIMATE
p201
sg6
I00
sVtext
p202
VPutin
p203
sVisRepresentativeMention
p204
I00
sVnumber
p205
VSINGULAR
p206
sg12
(lp207
S'surnames'
p208
asg14
NsVstartIndex
p209
I32
sVsentNum
p210
I2
sVgender
p211
VMALE
p212
sVposition
p213
(lp214
I2
aI9
asg21
g22
sVtype
p215
VPROPER
p216
sVid
p217
I22
sa(dp218
VendIndex
p219
I3
sVanimacy
p220
VANIMATE
p221
sg6
I00
sVtext
p222
VVladimir Putin
p223
sVisRepresentativeMention
p224
I00
sVnumber
p225
VSINGULAR
p226
sg12
(lp227
S'foaf_names'
p228
aS'dbp_names'
p229
asg14
NsVstartIndex
p230
I1
sVsentNum
p231
I3
sVgender
p232
VMALE
p233
sVposition
p234
(lp235
I3
aI1
asg21
g22
sVtype
p236
VPROPER
p237
sVid
p238
I30
sa(dp239
VendIndex
p240
I5
sVanimacy
p241
VANIMATE
p242
sg6
I00
sVtext
p243
VPutin
p244
sVisRepresentativeMention
p245
I00
sVnumber
p246
VSINGULAR
p247
sg12
(lp248
g208
asg14
NsVstartIndex
p249
I4
sVsentNum
p250
I6
sVgender
p251
VMALE
p252
sVposition
p253
(lp254
I6
aI2
asg21
g22
sVtype
p255
VPROPER
p256
sVid
p257
I59
sa(dp258
VendIndex
p259
I2
sVanimacy
p260
VANIMATE
p261
sg6
I00
sVtext
p262
VPutin
p263
sVisRepresentativeMention
p264
I00
sVnumber
p265
VSINGULAR
p266
sg12
(lp267
g208
asg14
NsVstartIndex
p268
I1
sVsentNum
p269
I9
sVgender
p270
VMALE
p271
sVposition
p272
(lp273
I9
aI1
asg21
g22
sVtype
p274
VPROPER
p275
sVid
p276
I83
sa(dp277
VendIndex
p278
I12
sVanimacy
p279
VANIMATE
p280
sg6
I00
sVtext
p281
VPutin
p282
sVisRepresentativeMention
p283
I00
sVnumber
p284
VSINGULAR
p285
sg12
(lp286
g208
asg14
NsVstartIndex
p287
I11
sVsentNum
p288
I12
sVgender
p289
VMALE
p290
sVposition
p291
(lp292
I12
aI2
asg21
g22
sVtype
p293
VPROPER
p294
sVid
p295
I117
sa.