(lp1
(dp2
VendIndex
p3
I21
sVanimacy
p4
VANIMATE
p5
sS'title'
p6
I00
sVtext
p7
Vhe
p8
sVisRepresentativeMention
p9
I00
sVnumber
p10
VSINGULAR
p11
sS'name_type'
p12
(lp13
sS'appositive'
p14
NsVstartIndex
p15
I20
sVsentNum
p16
I8
sVgender
p17
VMALE
p18
sVposition
p19
(lp20
I8
aI8
asS'syntax'
p21
S'np-subj'
p22
sVtype
p23
VPRONOMINAL
p24
sVid
p25
I82
sa(dp26
VendIndex
p27
I2
sVanimacy
p28
VANIMATE
p29
sg6
I00
sVtext
p30
VHe
p31
sVisRepresentativeMention
p32
I00
sVnumber
p33
VSINGULAR
p34
sg12
(lp35
sg14
NsVstartIndex
p36
I1
sVsentNum
p37
I9
sVgender
p38
VMALE
p39
sVposition
p40
(lp41
I9
aI1
asg21
g22
sVtype
p42
VPRONOMINAL
p43
sVid
p44
I85
sa(dp45
VendIndex
p46
I2
sVanimacy
p47
VANIMATE
p48
sg6
I00
sVtext
p49
VHe
p50
sVisRepresentativeMention
p51
I00
sVnumber
p52
VSINGULAR
p53
sg12
(lp54
sg14
NsVstartIndex
p55
I1
sVsentNum
p56
I11
sVgender
p57
VMALE
p58
sVposition
p59
(lp60
I11
aI1
asg21
g22
sVtype
p61
VPRONOMINAL
p62
sVid
p63
I104
sa(dp64
VendIndex
p65
I12
sVanimacy
p66
VANIMATE
p67
sg6
I00
sVtext
p68
Vhe
p69
sVisRepresentativeMention
p70
I00
sVnumber
p71
VSINGULAR
p72
sg12
(lp73
sg14
NsVstartIndex
p74
I11
sVsentNum
p75
I12
sVgender
p76
VMALE
p77
sVposition
p78
(lp79
I12
aI2
asg21
g22
sVtype
p80
VPRONOMINAL
p81
sVid
p82
I117
sa(dp83
VendIndex
p84
I5
sVanimacy
p85
VANIMATE
p86
sg6
I00
sVtext
p87
VVladimir Putin  on Tuesday
p88
sVisRepresentativeMention
p89
I01
sVnumber
p90
VSINGULAR
p91
sg12
(lp92
sg14
NsVstartIndex
p93
I1
sVsentNum
p94
I1
sVgender
p95
VMALE
p96
sVposition
p97
(lp98
I1
aI1
asg21
g22
sVtype
p99
VPROPER
p100
sVid
p101
I6
sa(dp102
VendIndex
p103
I19
sVanimacy
p104
VANIMATE
p105
sg6
I00
sVtext
p106
VPutin
p107
sVisRepresentativeMention
p108
I00
sVnumber
p109
VSINGULAR
p110
sg12
(lp111
S'surnames'
p112
asg14
NsVstartIndex
p113
I18
sVsentNum
p114
I1
sVgender
p115
VMALE
p116
sVposition
p117
(lp118
I1
aI9
asg21
g22
sVtype
p119
VPROPER
p120
sVid
p121
I4
sa(dp122
VendIndex
p123
I33
sVanimacy
p124
VANIMATE
p125
sg6
I00
sVtext
p126
VPutin
p127
sVisRepresentativeMention
p128
I00
sVnumber
p129
VSINGULAR
p130
sg12
(lp131
g112
asg14
NsVstartIndex
p132
I32
sVsentNum
p133
I2
sVgender
p134
VMALE
p135
sVposition
p136
(lp137
I2
aI9
asg21
g22
sVtype
p138
VPROPER
p139
sVid
p140
I22
sa(dp141
VendIndex
p142
I2
sVanimacy
p143
VANIMATE
p144
sg6
I00
sVtext
p145
VPutin
p146
sVisRepresentativeMention
p147
I00
sVnumber
p148
VSINGULAR
p149
sg12
(lp150
g112
asg14
NsVstartIndex
p151
I1
sVsentNum
p152
I3
sVgender
p153
VMALE
p154
sVposition
p155
(lp156
I3
aI1
asg21
g22
sVtype
p157
VPROPER
p158
sVid
p159
I30
sa(dp160
VendIndex
p161
I5
sVanimacy
p162
VANIMATE
p163
sg6
I00
sVtext
p164
VPutin
p165
sVisRepresentativeMention
p166
I00
sVnumber
p167
VSINGULAR
p168
sg12
(lp169
g112
asg14
NsVstartIndex
p170
I4
sVsentNum
p171
I6
sVgender
p172
VMALE
p173
sVposition
p174
(lp175
I6
aI2
asg21
g22
sVtype
p176
VPROPER
p177
sVid
p178
I59
sa(dp179
VendIndex
p180
I2
sVanimacy
p181
VANIMATE
p182
sg6
I00
sVtext
p183
VPutin
p184
sVisRepresentativeMention
p185
I00
sVnumber
p186
VSINGULAR
p187
sg12
(lp188
g112
asg14
NsVstartIndex
p189
I1
sVsentNum
p190
I8
sVgender
p191
VMALE
p192
sVposition
p193
(lp194
I8
aI1
asg21
g22
sVtype
p195
VPROPER
p196
sVid
p197
I74
sa.