(lp1
(dp2
VendIndex
p3
I28
sVanimacy
p4
VANIMATE
p5
sS'title'
p6
I00
sVtext
p7
Vhe
p8
sVisRepresentativeMention
p9
I00
sVnumber
p10
VSINGULAR
p11
sS'name_type'
p12
(lp13
sS'appositive'
p14
NsVstartIndex
p15
I27
sVsentNum
p16
I1
sVgender
p17
VMALE
p18
sVposition
p19
(lp20
I1
aI11
asS'syntax'
p21
S'np-subj'
p22
sVtype
p23
VPRONOMINAL
p24
sVid
p25
I11
sa(dp26
VendIndex
p27
I51
sVanimacy
p28
VANIMATE
p29
sg6
I00
sVtext
p30
Vhis
p31
sVisRepresentativeMention
p32
I00
sVnumber
p33
VSINGULAR
p34
sg12
(lp35
sg14
NsVstartIndex
p36
I50
sVsentNum
p37
I1
sVgender
p38
VMALE
p39
sVposition
p40
(lp41
I1
aI18
asg21
S'subj-det'
p42
sVtype
p43
VPRONOMINAL
p44
sVid
p45
I18
sa(dp46
VendIndex
p47
I2
sVanimacy
p48
VANIMATE
p49
sg6
I00
sVtext
p50
VHe
p51
sVisRepresentativeMention
p52
I00
sVnumber
p53
VSINGULAR
p54
sg12
(lp55
sg14
NsVstartIndex
p56
I1
sVsentNum
p57
I4
sVgender
p58
VMALE
p59
sVposition
p60
(lp61
I4
aI1
asg21
g22
sVtype
p62
VPRONOMINAL
p63
sVid
p64
I40
sa(dp65
VendIndex
p66
I21
sVanimacy
p67
VANIMATE
p68
sg6
I00
sVtext
p69
Vhe
p70
sVisRepresentativeMention
p71
I00
sVnumber
p72
VSINGULAR
p73
sg12
(lp74
sg14
NsVstartIndex
p75
I20
sVsentNum
p76
I8
sVgender
p77
VMALE
p78
sVposition
p79
(lp80
I8
aI8
asg21
g22
sVtype
p81
VPRONOMINAL
p82
sVid
p83
I82
sa(dp84
VendIndex
p85
I15
sVanimacy
p86
VANIMATE
p87
sg6
I00
sVtext
p88
Vhe
p89
sVisRepresentativeMention
p90
I00
sVnumber
p91
VSINGULAR
p92
sg12
(lp93
sg14
NsVstartIndex
p94
I14
sVsentNum
p95
I9
sVgender
p96
VMALE
p97
sVposition
p98
(lp99
I9
aI5
asg21
g22
sVtype
p100
VPRONOMINAL
p101
sVid
p102
I88
sa(dp103
VendIndex
p104
I2
sVanimacy
p105
VANIMATE
p106
sg6
I00
sVtext
p107
Vhe
p108
sVisRepresentativeMention
p109
I00
sVnumber
p110
VSINGULAR
p111
sg12
(lp112
sg14
NsVstartIndex
p113
I1
sVsentNum
p114
I11
sVgender
p115
VMALE
p116
sVposition
p117
(lp118
I11
aI1
asg21
g22
sVtype
p119
VPRONOMINAL
p120
sVid
p121
I104
sa(dp122
VendIndex
p123
I6
sVanimacy
p124
VANIMATE
p125
sg6
I00
sVtext
p126
VVladimir Vladimirovich Putin  on Tuesday
p127
sVisRepresentativeMention
p128
I01
sVnumber
p129
VSINGULAR
p130
sg12
(lp131
sg14
NsVstartIndex
p132
I1
sVsentNum
p133
I1
sVgender
p134
VMALE
p135
sVposition
p136
(lp137
I1
aI1
asg21
g22
sVtype
p138
VPROPER
p139
sVid
p140
I5
sa(dp141
VendIndex
p142
I20
sVanimacy
p143
VANIMATE
p144
sg6
I00
sVtext
p145
VPutin
p146
sVisRepresentativeMention
p147
I00
sVnumber
p148
VSINGULAR
p149
sg12
(lp150
S'surnames'
p151
asg14
NsVstartIndex
p152
I19
sVsentNum
p153
I1
sVgender
p154
VMALE
p155
sVposition
p156
(lp157
I1
aI9
asg21
g22
sVtype
p158
VPROPER
p159
sVid
p160
I4
sa(dp161
VendIndex
p162
I33
sVanimacy
p163
VANIMATE
p164
sg6
I00
sVtext
p165
VPutin
p166
sVisRepresentativeMention
p167
I00
sVnumber
p168
VSINGULAR
p169
sg12
(lp170
g151
asg14
NsVstartIndex
p171
I32
sVsentNum
p172
I2
sVgender
p173
VMALE
p174
sVposition
p175
(lp176
I2
aI9
asg21
g22
sVtype
p177
VPROPER
p178
sVid
p179
I23
sa(dp180
VendIndex
p181
I2
sVanimacy
p182
VANIMATE
p183
sg6
I00
sVtext
p184
VPutin
p185
sVisRepresentativeMention
p186
I00
sVnumber
p187
VSINGULAR
p188
sg12
(lp189
g151
asg14
NsVstartIndex
p190
I1
sVsentNum
p191
I3
sVgender
p192
VMALE
p193
sVposition
p194
(lp195
I3
aI1
asg21
g22
sVtype
p196
VPROPER
p197
sVid
p198
I31
sa(dp199
VendIndex
p200
I2
sVanimacy
p201
VANIMATE
p202
sg6
I00
sVtext
p203
VPutin
p204
sVisRepresentativeMention
p205
I00
sVnumber
p206
VSINGULAR
p207
sg12
(lp208
g151
asg14
NsVstartIndex
p209
I1
sVsentNum
p210
I8
sVgender
p211
VMALE
p212
sVposition
p213
(lp214
I8
aI1
asg21
g22
sVtype
p215
VPROPER
p216
sVid
p217
I74
sa(dp218
VendIndex
p219
I12
sVanimacy
p220
VANIMATE
p221
sg6
I00
sVtext
p222
VPutin
p223
sVisRepresentativeMention
p224
I00
sVnumber
p225
VSINGULAR
p226
sg12
(lp227
g151
asg14
NsVstartIndex
p228
I11
sVsentNum
p229
I12
sVgender
p230
VMALE
p231
sVposition
p232
(lp233
I12
aI2
asg21
g22
sVtype
p234
VPROPER
p235
sVid
p236
I116
sa.