(lp1
(dp2
VendIndex
p3
I19
sVanimacy
p4
VANIMATE
p5
sS'title'
p6
I00
sVtext
p7
Vhe
p8
sVisRepresentativeMention
p9
I00
sVnumber
p10
VSINGULAR
p11
sS'name_type'
p12
(lp13
sS'appositive'
p14
NsVstartIndex
p15
I18
sVsentNum
p16
I1
sVgender
p17
VMALE
p18
sVposition
p19
(lp20
I1
aI9
asS'syntax'
p21
S'np-subj'
p22
sVtype
p23
VPRONOMINAL
p24
sVid
p25
I9
sa(dp26
VendIndex
p27
I33
sVanimacy
p28
VANIMATE
p29
sg6
I00
sVtext
p30
Vhe
p31
sVisRepresentativeMention
p32
I00
sVnumber
p33
VSINGULAR
p34
sg12
(lp35
sg14
NsVstartIndex
p36
I32
sVsentNum
p37
I2
sVgender
p38
VMALE
p39
sVposition
p40
(lp41
I2
aI9
asg21
g22
sVtype
p42
VPRONOMINAL
p43
sVid
p44
I29
sa(dp45
VendIndex
p46
I2
sVanimacy
p47
VANIMATE
p48
sg6
I00
sVtext
p49
VHe
p50
sVisRepresentativeMention
p51
I00
sVnumber
p52
VSINGULAR
p53
sg12
(lp54
sg14
NsVstartIndex
p55
I1
sVsentNum
p56
I4
sVgender
p57
VMALE
p58
sVposition
p59
(lp60
I4
aI1
asg21
g22
sVtype
p61
VPRONOMINAL
p62
sVid
p63
I39
sa(dp64
VendIndex
p65
I2
sVanimacy
p66
VANIMATE
p67
sg6
I00
sVtext
p68
VHe
p69
sVisRepresentativeMention
p70
I00
sVnumber
p71
VSINGULAR
p72
sg12
(lp73
sg14
NsVstartIndex
p74
I1
sVsentNum
p75
I7
sVgender
p76
VMALE
p77
sVposition
p78
(lp79
I7
aI1
asg21
g22
sVtype
p80
VPRONOMINAL
p81
sVid
p82
I68
sa(dp83
VendIndex
p84
I14
sVanimacy
p85
VANIMATE
p86
sg6
I00
sVtext
p87
Vhe
p88
sVisRepresentativeMention
p89
I00
sVnumber
p90
VSINGULAR
p91
sg12
(lp92
sg14
NsVstartIndex
p93
I13
sVsentNum
p94
I7
sVgender
p95
VMALE
p96
sVposition
p97
(lp98
I7
aI3
asg21
g22
sVtype
p99
VPRONOMINAL
p100
sVid
p101
I70
sa(dp102
VendIndex
p103
I2
sVanimacy
p104
VANIMATE
p105
sg6
I00
sVtext
p106
VHe
p107
sVisRepresentativeMention
p108
I00
sVnumber
p109
VSINGULAR
p110
sg12
(lp111
sg14
NsVstartIndex
p112
I1
sVsentNum
p113
I8
sVgender
p114
VMALE
p115
sVposition
p116
(lp117
I8
aI1
asg21
g22
sVtype
p118
VPRONOMINAL
p119
sVid
p120
I78
sa(dp121
VendIndex
p122
I2
sVanimacy
p123
VANIMATE
p124
sg6
I00
sVtext
p125
VHe
p126
sVisRepresentativeMention
p127
I00
sVnumber
p128
VSINGULAR
p129
sg12
(lp130
sg14
NsVstartIndex
p131
I1
sVsentNum
p132
I9
sVgender
p133
VMALE
p134
sVposition
p135
(lp136
I9
aI1
asg21
g22
sVtype
p137
VPRONOMINAL
p138
sVid
p139
I85
sa(dp140
VendIndex
p141
I2
sVanimacy
p142
VANIMATE
p143
sg6
I00
sVtext
p144
VHe
p145
sVisRepresentativeMention
p146
I00
sVnumber
p147
VSINGULAR
p148
sg12
(lp149
sg14
NsVstartIndex
p150
I1
sVsentNum
p151
I11
sVgender
p152
VMALE
p153
sVposition
p154
(lp155
I11
aI1
asg21
g22
sVtype
p156
VPRONOMINAL
p157
sVid
p158
I105
sa(dp159
VendIndex
p160
I12
sVanimacy
p161
VANIMATE
p162
sg6
I00
sVtext
p163
Vhe
p164
sVisRepresentativeMention
p165
I00
sVnumber
p166
VSINGULAR
p167
sg12
(lp168
sg14
NsVstartIndex
p169
I11
sVsentNum
p170
I12
sVgender
p171
VMALE
p172
sVposition
p173
(lp174
I12
aI2
asg21
g22
sVtype
p175
VPRONOMINAL
p176
sVid
p177
I118
sa(dp178
VendIndex
p179
I5
sVanimacy
p180
VANIMATE
p181
sg6
I00
sVtext
p182
VVladimir Putin  on Tuesday
p183
sVisRepresentativeMention
p184
I01
sVnumber
p185
VSINGULAR
p186
sg12
(lp187
sg14
NsVstartIndex
p188
I1
sVsentNum
p189
I1
sVgender
p190
VMALE
p191
sVposition
p192
(lp193
I1
aI1
asg21
g22
sVtype
p194
VPROPER
p195
sVid
p196
I4
sa(dp197
VendIndex
p198
I2
sVanimacy
p199
VANIMATE
p200
sg6
I00
sVtext
p201
VPutin
p202
sVisRepresentativeMention
p203
I00
sVnumber
p204
VSINGULAR
p205
sg12
(lp206
S'surnames'
p207
asg14
NsVstartIndex
p208
I1
sVsentNum
p209
I3
sVgender
p210
VMALE
p211
sVposition
p212
(lp213
I3
aI1
asg21
g22
sVtype
p214
VPROPER
p215
sVid
p216
I30
sa(dp217
VendIndex
p218
I3
sVanimacy
p219
VANIMATE
p220
sg6
I00
sVtext
p221
VPutin's
p222
sVisRepresentativeMention
p223
I00
sVnumber
p224
VSINGULAR
p225
sg12
(lp226
g207
asg14
NsVstartIndex
p227
I1
sVsentNum
p228
I5
sVgender
p229
VMALE
p230
sVposition
p231
(lp232
I5
aI2
asg21
S'subj-det'
p233
sVtype
p234
VPROPER
p235
sVid
p236
I48
sa(dp237
VendIndex
p238
I5
sVanimacy
p239
VANIMATE
p240
sg6
I00
sVtext
p241
VPutin
p242
sVisRepresentativeMention
p243
I00
sVnumber
p244
VSINGULAR
p245
sg12
(lp246
g207
asg14
NsVstartIndex
p247
I4
sVsentNum
p248
I6
sVgender
p249
VMALE
p250
sVposition
p251
(lp252
I6
aI2
asg21
g22
sVtype
p253
VPROPER
p254
sVid
p255
I60
sa.