(lp1
(dp2
VendIndex
p3
I18
sVanimacy
p4
VANIMATE
p5
sS'title'
p6
I00
sVtext
p7
Vhe
p8
sVisRepresentativeMention
p9
I00
sVnumber
p10
VSINGULAR
p11
sS'name_type'
p12
(lp13
sS'appositive'
p14
NsVstartIndex
p15
I17
sVsentNum
p16
I1
sVgender
p17
VMALE
p18
sVposition
p19
(lp20
I1
aI9
asS'syntax'
p21
S'np-subj'
p22
sVtype
p23
VPRONOMINAL
p24
sVid
p25
I9
sa(dp26
VendIndex
p27
I33
sVanimacy
p28
VANIMATE
p29
sg6
I00
sVtext
p30
Vhe
p31
sVisRepresentativeMention
p32
I00
sVnumber
p33
VSINGULAR
p34
sg12
(lp35
sg14
NsVstartIndex
p36
I32
sVsentNum
p37
I2
sVgender
p38
VMALE
p39
sVposition
p40
(lp41
I2
aI9
asg21
g22
sVtype
p42
VPRONOMINAL
p43
sVid
p44
I28
sa(dp45
VendIndex
p46
I2
sVanimacy
p47
VANIMATE
p48
sg6
I00
sVtext
p49
VHe
p50
sVisRepresentativeMention
p51
I00
sVnumber
p52
VSINGULAR
p53
sg12
(lp54
sg14
NsVstartIndex
p55
I1
sVsentNum
p56
I3
sVgender
p57
VMALE
p58
sVposition
p59
(lp60
I3
aI1
asg21
g22
sVtype
p61
VPRONOMINAL
p62
sVid
p63
I29
sa(dp64
VendIndex
p65
I2
sVanimacy
p66
VANIMATE
p67
sg6
I00
sVtext
p68
VHe
p69
sVisRepresentativeMention
p70
I00
sVnumber
p71
VSINGULAR
p72
sg12
(lp73
sg14
NsVstartIndex
p74
I1
sVsentNum
p75
I4
sVgender
p76
VMALE
p77
sVposition
p78
(lp79
I4
aI1
asg21
g22
sVtype
p80
VPRONOMINAL
p81
sVid
p82
I38
sa(dp83
VendIndex
p84
I12
sVanimacy
p85
VANIMATE
p86
sg6
I00
sVtext
p87
Vhe
p88
sVisRepresentativeMention
p89
I00
sVnumber
p90
VSINGULAR
p91
sg12
(lp92
sg14
NsVstartIndex
p93
I11
sVsentNum
p94
I12
sVgender
p95
VMALE
p96
sVposition
p97
(lp98
I12
aI2
asg21
g22
sVtype
p99
VPRONOMINAL
p100
sVid
p101
I118
sa(dp102
VendIndex
p103
I4
sVanimacy
p104
VANIMATE
p105
sg6
I00
sVtext
p106
VPutin  on Tuesday
p107
sVisRepresentativeMention
p108
I01
sVnumber
p109
VSINGULAR
p110
sg12
(lp111
sg14
NsVstartIndex
p112
I1
sVsentNum
p113
I1
sVgender
p114
VMALE
p115
sVposition
p116
(lp117
I1
aI1
asg21
g22
sVtype
p118
VPROPER
p119
sVid
p120
I4
sa(dp121
VendIndex
p122
I2
sVanimacy
p123
VANIMATE
p124
sg6
I00
sVtext
p125
VPutin
p126
sVisRepresentativeMention
p127
I00
sVnumber
p128
VSINGULAR
p129
sg12
(lp130
S'surnames'
p131
asg14
NsVstartIndex
p132
I1
sVsentNum
p133
I11
sVgender
p134
VMALE
p135
sVposition
p136
(lp137
I11
aI1
asg21
g22
sVtype
p138
VPROPER
p139
sVid
p140
I100
sa.