(lp1
(dp2
VendIndex
p3
I10
sVanimacy
p4
VINANIMATE
p5
sS'title'
p6
I00
sVtext
p7
Vit
p8
sVisRepresentativeMention
p9
I00
sVnumber
p10
VSINGULAR
p11
sS'name_type'
p12
(lp13
sS'appositive'
p14
NsVstartIndex
p15
I9
sVsentNum
p16
I2
sVgender
p17
VNEUTRAL
p18
sVposition
p19
(lp20
I2
aI3
asS'syntax'
p21
S'np-subj'
p22
sVtype
p23
VPRONOMINAL
p24
sVid
p25
I25
sa(dp26
VendIndex
p27
I31
sVanimacy
p28
VANIMATE
p29
sg6
I00
sVtext
p30
Vhis
p31
sVisRepresentativeMention
p32
I00
sVnumber
p33
VSINGULAR
p34
sg12
(lp35
sg14
NsVstartIndex
p36
I30
sVsentNum
p37
I4
sVgender
p38
VMALE
p39
sVposition
p40
(lp41
I4
aI12
asg21
S'subj-det'
p42
sVtype
p43
VPRONOMINAL
p44
sVid
p45
I42
sa(dp46
VendIndex
p47
I38
sVanimacy
p48
VANIMATE
p49
sg6
I00
sVtext
p50
Vhis
p51
sVisRepresentativeMention
p52
I00
sVnumber
p53
VSINGULAR
p54
sg12
(lp55
sg14
NsVstartIndex
p56
I37
sVsentNum
p57
I4
sVgender
p58
VMALE
p59
sVposition
p60
(lp61
I4
aI14
asg21
g42
sVtype
p62
VPRONOMINAL
p63
sVid
p64
I44
sa(dp65
VendIndex
p66
I67
sVanimacy
p67
VANIMATE
p68
sg6
I00
sVtext
p69
Vhis
p70
sVisRepresentativeMention
p71
I00
sVnumber
p72
VSINGULAR
p73
sg12
(lp74
sg14
NsVstartIndex
p75
I66
sVsentNum
p76
I4
sVgender
p77
VMALE
p78
sVposition
p79
(lp80
I4
aI21
asg21
g42
sVtype
p81
VPRONOMINAL
p82
sVid
p83
I51
sa(dp84
VendIndex
p85
I29
sVanimacy
p86
VANIMATE
p87
sg6
I00
sVtext
p88
Vhe
p89
sVisRepresentativeMention
p90
I00
sVnumber
p91
VSINGULAR
p92
sg12
(lp93
sg14
NsVstartIndex
p94
I28
sVsentNum
p95
I1
sVgender
p96
VMALE
p97
sVposition
p98
(lp99
I1
aI12
asg21
g22
sVtype
p100
VPRONOMINAL
p101
sVid
p102
I12
sa(dp103
VendIndex
p104
I31
sVanimacy
p105
VANIMATE
p106
sg6
I00
sVtext
p107
Vhis
p108
sVisRepresentativeMention
p109
I00
sVnumber
p110
VSINGULAR
p111
sg12
(lp112
sg14
NsVstartIndex
p113
I30
sVsentNum
p114
I1
sVgender
p115
VMALE
p116
sVposition
p117
(lp118
I1
aI14
asg21
g42
sVtype
p119
VPRONOMINAL
p120
sVid
p121
I14
sa(dp122
VendIndex
p123
I27
sVanimacy
p124
VANIMATE
p125
sg6
I00
sVtext
p126
VAlito  too much of an ideologue for a seat on the Supreme Court
p127
sVisRepresentativeMention
p128
I00
sVnumber
p129
VSINGULAR
p130
sg12
(lp131
sg14
NsVstartIndex
p132
I14
sVsentNum
p133
I1
sVgender
p134
VMALE
p135
sVposition
p136
(lp137
I1
aI7
asg21
S'np-obj'
p138
sVtype
p139
VPROPER
p140
sVid
p141
I8
sa(dp142
VendIndex
p143
I13
sVanimacy
p144
VANIMATE
p145
sg6
I00
sVtext
p146
VAlito's
p147
sVisRepresentativeMention
p148
I00
sVnumber
p149
VSINGULAR
p150
sg12
(lp151
sg14
NsVstartIndex
p152
I11
sVsentNum
p153
I10
sVgender
p154
VMALE
p155
sVposition
p156
(lp157
I10
aI5
asg21
g42
sVtype
p158
VPROPER
p159
sVid
p160
I67
sa(dp161
VendIndex
p162
I8
sVanimacy
p163
VANIMATE
p164
sg6
I00
sVtext
p165
VAlito's
p166
sVisRepresentativeMention
p167
I00
sVnumber
p168
VSINGULAR
p169
sg12
(lp170
sg14
NsVstartIndex
p171
I6
sVsentNum
p172
I13
sVgender
p173
VMALE
p174
sVposition
p175
(lp176
I13
aI4
asg21
g42
sVtype
p177
VPROPER
p178
sVid
p179
I117
sa(dp180
VendIndex
p181
I15
sVanimacy
p182
VANIMATE
p183
sg6
I00
sVtext
p184
VAlito
p185
sVisRepresentativeMention
p186
I00
sVnumber
p187
VSINGULAR
p188
sg12
(lp189
sg14
NsVstartIndex
p190
I14
sVsentNum
p191
I15
sVgender
p192
VMALE
p193
sVposition
p194
(lp195
I15
aI5
asg21
g42
sVtype
p196
VPROPER
p197
sVid
p198
I126
sa(dp199
VendIndex
p200
I8
sVanimacy
p201
VANIMATE
p202
sg6
I00
sVtext
p203
VSamuel Alito
p204
sVisRepresentativeMention
p205
I01
sVnumber
p206
VSINGULAR
p207
sg12
(lp208
sg14
NsVstartIndex
p209
I6
sVsentNum
p210
I1
sVgender
p211
VMALE
p212
sVposition
p213
(lp214
I1
aI4
asg21
g42
sVtype
p215
VPROPER
p216
sVid
p217
I1
sa(dp218
VendIndex
p219
I24
sVanimacy
p220
VANIMATE
p221
sg6
I00
sVtext
p222
VAlito
p223
sVisRepresentativeMention
p224
I00
sVnumber
p225
VSINGULAR
p226
sg12
(lp227
sg14
NsVstartIndex
p228
I23
sVsentNum
p229
I2
sVgender
p230
VMALE
p231
sVposition
p232
(lp233
I2
aI6
asg21
g22
sVtype
p234
VPROPER
p235
sVid
p236
I22
sa(dp237
VendIndex
p238
I27
sVanimacy
p239
VANIMATE
p240
sg6
I00
sVtext
p241
VAlito
p242
sVisRepresentativeMention
p243
I00
sVnumber
p244
VSINGULAR
p245
sg12
(lp246
sg14
NsVstartIndex
p247
I26
sVsentNum
p248
I4
sVgender
p249
VMALE
p250
sVposition
p251
(lp252
I4
aI10
asg21
g22
sVtype
p253
VPROPER
p254
sVid
p255
I32
sa(dp256
VendIndex
p257
I26
sVanimacy
p258
VANIMATE
p259
sg6
I00
sVtext
p260
VAlito
p261
sVisRepresentativeMention
p262
I00
sVnumber
p263
VSINGULAR
p264
sg12
(lp265
sg14
NsVstartIndex
p266
I25
sVsentNum
p267
I5
sVgender
p268
VMALE
p269
sVposition
p270
(lp271
I5
aI6
asg21
g22
sVtype
p272
VPROPER
p273
sVid
p274
I53
sa.