(lp1
(dp2
VendIndex
p3
I57
sVanimacy
p4
VANIMATE
p5
sS'title'
p6
I00
sVtext
p7
Vhis
p8
sVisRepresentativeMention
p9
I00
sVnumber
p10
VSINGULAR
p11
sS'name_type'
p12
(lp13
sS'appositive'
p14
NsVstartIndex
p15
I56
sVsentNum
p16
I15
sVgender
p17
VMALE
p18
sVposition
p19
(lp20
I15
aI21
asS'syntax'
p21
S'subj-det'
p22
sVtype
p23
VPRONOMINAL
p24
sVid
p25
I147
sa(dp26
VendIndex
p27
I29
sVanimacy
p28
VANIMATE
p29
sg6
I00
sVtext
p30
VSamuel Alito
p31
sVisRepresentativeMention
p32
I01
sVnumber
p33
VSINGULAR
p34
sg12
(lp35
sg14
NsVstartIndex
p36
I27
sVsentNum
p37
I1
sVgender
p38
VMALE
p39
sVposition
p40
(lp41
I1
aI12
asg21
S'np-subj'
p42
sVtype
p43
VPROPER
p44
sVid
p45
I4
sa(dp46
VendIndex
p47
I24
sVanimacy
p48
VANIMATE
p49
sg6
I00
sVtext
p50
VAlito
p51
sVisRepresentativeMention
p52
I00
sVnumber
p53
VSINGULAR
p54
sg12
(lp55
sg14
NsVstartIndex
p56
I23
sVsentNum
p57
I2
sVgender
p58
VMALE
p59
sVposition
p60
(lp61
I2
aI6
asg21
g42
sVtype
p62
VPROPER
p63
sVid
p64
I22
sa(dp65
VendIndex
p66
I26
sVanimacy
p67
VANIMATE
p68
sg6
I00
sVtext
p69
VAlito
p70
sVisRepresentativeMention
p71
I00
sVnumber
p72
VSINGULAR
p73
sg12
(lp74
sg14
NsVstartIndex
p75
I25
sVsentNum
p76
I5
sVgender
p77
VMALE
p78
sVposition
p79
(lp80
I5
aI6
asg21
g42
sVtype
p81
VPROPER
p82
sVid
p83
I53
sa(dp84
VendIndex
p85
I9
sVanimacy
p86
VANIMATE
p87
sg6
I00
sVtext
p88
VAlito
p89
sVisRepresentativeMention
p90
I00
sVnumber
p91
VSINGULAR
p92
sg12
(lp93
sg14
NsVstartIndex
p94
I8
sVsentNum
p95
I12
sVgender
p96
VMALE
p97
sVposition
p98
(lp99
I12
aI3
asg21
g22
sVtype
p100
VPROPER
p101
sVid
p102
I94
sa(dp103
VendIndex
p104
I29
sVanimacy
p105
VANIMATE
p106
sg6
I00
sVtext
p107
VAlito's
p108
sVisRepresentativeMention
p109
I00
sVnumber
p110
VSINGULAR
p111
sg12
(lp112
sg14
NsVstartIndex
p113
I27
sVsentNum
p114
I12
sVgender
p115
VMALE
p116
sVposition
p117
(lp118
I12
aI14
asg21
g22
sVtype
p119
VPROPER
p120
sVid
p121
I97
sa(dp122
VendIndex
p123
I5
sVanimacy
p124
VANIMATE
p125
sg6
I00
sVtext
p126
VSamuel Alito
p127
sVisRepresentativeMention
p128
I00
sVnumber
p129
VSINGULAR
p130
sg12
(lp131
sg14
NsVstartIndex
p132
I3
sVsentNum
p133
I14
sVgender
p134
VMALE
p135
sVposition
p136
(lp137
I14
aI2
asg21
S'np-obj'
p138
sVtype
p139
VPROPER
p140
sVid
p141
I124
sa(dp142
VendIndex
p143
I15
sVanimacy
p144
VANIMATE
p145
sg6
I00
sVtext
p146
VAlito
p147
sVisRepresentativeMention
p148
I00
sVnumber
p149
VSINGULAR
p150
sg12
(lp151
sg14
NsVstartIndex
p152
I14
sVsentNum
p153
I15
sVgender
p154
VMALE
p155
sVposition
p156
(lp157
I15
aI5
asg21
g22
sVtype
p158
VPROPER
p159
sVid
p160
I128
sa(dp161
VendIndex
p162
I43
sVanimacy
p163
VANIMATE
p164
sg6
I00
sVtext
p165
VAlito's
p166
sVisRepresentativeMention
p167
I00
sVnumber
p168
VSINGULAR
p169
sg12
(lp170
sg14
NsVstartIndex
p171
I41
sVsentNum
p172
I15
sVgender
p173
VMALE
p174
sVposition
p175
(lp176
I15
aI17
asg21
g22
sVtype
p177
VPROPER
p178
sVid
p179
I133
sa.