(lp1
(dp2
VendIndex
p3
I15
sVanimacy
p4
VANIMATE
p5
sS'title'
p6
I00
sVtext
p7
VAlito
p8
sVisRepresentativeMention
p9
I00
sVnumber
p10
VSINGULAR
p11
sS'name_type'
p12
(lp13
sS'appositive'
p14
NsVstartIndex
p15
I14
sVsentNum
p16
I15
sVgender
p17
VMALE
p18
sVposition
p19
(lp20
I15
aI5
asS'syntax'
p21
S'subj-det'
p22
sVtype
p23
VPROPER
p24
sVid
p25
I115
sa.