(lp1
(dp2
VendIndex
p3
I31
sVanimacy
p4
VANIMATE
p5
sS'title'
p6
I00
sVtext
p7
Vhis
p8
sVisRepresentativeMention
p9
I00
sVnumber
p10
VSINGULAR
p11
sS'name_type'
p12
(lp13
sS'appositive'
p14
NsVstartIndex
p15
I30
sVsentNum
p16
I4
sVgender
p17
VMALE
p18
sVposition
p19
(lp20
I4
aI12
asS'syntax'
p21
S'subj-det'
p22
sVtype
p23
VPRONOMINAL
p24
sVid
p25
I42
sa(dp26
VendIndex
p27
I38
sVanimacy
p28
VANIMATE
p29
sg6
I00
sVtext
p30
Vhis
p31
sVisRepresentativeMention
p32
I00
sVnumber
p33
VSINGULAR
p34
sg12
(lp35
sg14
NsVstartIndex
p36
I37
sVsentNum
p37
I4
sVgender
p38
VMALE
p39
sVposition
p40
(lp41
I4
aI14
asg21
g22
sVtype
p42
VPRONOMINAL
p43
sVid
p44
I44
sa(dp45
VendIndex
p46
I66
sVanimacy
p47
VANIMATE
p48
sg6
I00
sVtext
p49
Vhis
p50
sVisRepresentativeMention
p51
I00
sVnumber
p52
VSINGULAR
p53
sg12
(lp54
sg14
NsVstartIndex
p55
I65
sVsentNum
p56
I4
sVgender
p57
VMALE
p58
sVposition
p59
(lp60
I4
aI21
asg21
g22
sVtype
p61
VPRONOMINAL
p62
sVid
p63
I51
sa(dp64
VendIndex
p65
I28
sVanimacy
p66
VANIMATE
p67
sg6
I00
sVtext
p68
VAlito
p69
sVisRepresentativeMention
p70
I01
sVnumber
p71
VSINGULAR
p72
sg12
(lp73
sg14
NsVstartIndex
p74
I27
sVsentNum
p75
I1
sVgender
p76
VMALE
p77
sVposition
p78
(lp79
I1
aI12
asg21
S'np-subj'
p80
sVtype
p81
VPROPER
p82
sVid
p83
I4
sa(dp84
VendIndex
p85
I24
sVanimacy
p86
VANIMATE
p87
sg6
I00
sVtext
p88
VAlito
p89
sVisRepresentativeMention
p90
I00
sVnumber
p91
VSINGULAR
p92
sg12
(lp93
sg14
NsVstartIndex
p94
I23
sVsentNum
p95
I2
sVgender
p96
VMALE
p97
sVposition
p98
(lp99
I2
aI6
asg21
g80
sVtype
p100
VPROPER
p101
sVid
p102
I22
sa(dp103
VendIndex
p104
I27
sVanimacy
p105
VANIMATE
p106
sg6
I00
sVtext
p107
VAlito
p108
sVisRepresentativeMention
p109
I00
sVnumber
p110
VSINGULAR
p111
sg12
(lp112
sg14
NsVstartIndex
p113
I26
sVsentNum
p114
I4
sVgender
p115
VMALE
p116
sVposition
p117
(lp118
I4
aI10
asg21
g80
sVtype
p119
VPROPER
p120
sVid
p121
I32
sa(dp122
VendIndex
p123
I26
sVanimacy
p124
VANIMATE
p125
sg6
I00
sVtext
p126
VAlito
p127
sVisRepresentativeMention
p128
I00
sVnumber
p129
VSINGULAR
p130
sg12
(lp131
sg14
NsVstartIndex
p132
I25
sVsentNum
p133
I5
sVgender
p134
VMALE
p135
sVposition
p136
(lp137
I5
aI6
asg21
g80
sVtype
p138
VPROPER
p139
sVid
p140
I53
sa(dp141
VendIndex
p142
I13
sVanimacy
p143
VANIMATE
p144
sg6
I00
sVtext
p145
VAlito's
p146
sVisRepresentativeMention
p147
I00
sVnumber
p148
VSINGULAR
p149
sg12
(lp150
sg14
NsVstartIndex
p151
I11
sVsentNum
p152
I10
sVgender
p153
VMALE
p154
sVposition
p155
(lp156
I10
aI5
asg21
g22
sVtype
p157
VPROPER
p158
sVid
p159
I67
sa(dp160
VendIndex
p161
I8
sVanimacy
p162
VANIMATE
p163
sg6
I00
sVtext
p164
VAlito's
p165
sVisRepresentativeMention
p166
I00
sVnumber
p167
VSINGULAR
p168
sg12
(lp169
sg14
NsVstartIndex
p170
I6
sVsentNum
p171
I13
sVgender
p172
VMALE
p173
sVposition
p174
(lp175
I13
aI4
asg21
g22
sVtype
p176
VPROPER
p177
sVid
p178
I117
sa(dp179
VendIndex
p180
I4
sVanimacy
p181
VANIMATE
p182
sg6
I00
sVtext
p183
VAlito
p184
sVisRepresentativeMention
p185
I00
sVnumber
p186
VSINGULAR
p187
sg12
(lp188
sg14
NsVstartIndex
p189
I3
sVsentNum
p190
I14
sVgender
p191
VMALE
p192
sVposition
p193
(lp194
I14
aI2
asg21
S'np-obj'
p195
sVtype
p196
VPROPER
p197
sVid
p198
I122
sa(dp199
VendIndex
p200
I15
sVanimacy
p201
VANIMATE
p202
sg6
I00
sVtext
p203
VAlito
p204
sVisRepresentativeMention
p205
I00
sVnumber
p206
VSINGULAR
p207
sg12
(lp208
sg14
NsVstartIndex
p209
I14
sVsentNum
p210
I15
sVgender
p211
VMALE
p212
sVposition
p213
(lp214
I15
aI5
asg21
g22
sVtype
p215
VPROPER
p216
sVid
p217
I126
sa.