(lp1
(dp2
VendIndex
p3
I6
sVanimacy
p4
VANIMATE
p5
sS'title'
p6
I00
sVtext
p7
Vhe
p8
sVisRepresentativeMention
p9
I00
sVnumber
p10
VSINGULAR
p11
sS'name_type'
p12
(lp13
sS'appositive'
p14
NsVstartIndex
p15
I5
sVsentNum
p16
I1
sVgender
p17
VMALE
p18
sVposition
p19
(lp20
I1
aI3
asS'syntax'
p21
S'np-subj'
p22
sVtype
p23
VPRONOMINAL
p24
sVid
p25
I7
sa(dp26
VendIndex
p27
I17
sVanimacy
p28
VANIMATE
p29
sg6
I00
sVtext
p30
Vhe
p31
sVisRepresentativeMention
p32
I00
sVnumber
p33
VSINGULAR
p34
sg12
(lp35
sg14
NsVstartIndex
p36
I16
sVsentNum
p37
I1
sVgender
p38
VMALE
p39
sVposition
p40
(lp41
I1
aI7
asg21
g22
sVtype
p42
VPRONOMINAL
p43
sVid
p44
I10
sa(dp45
VendIndex
p46
I9
sVanimacy
p47
VANIMATE
p48
sg6
I00
sVtext
p49
Vhe
p50
sVisRepresentativeMention
p51
I00
sVnumber
p52
VSINGULAR
p53
sg12
(lp54
sg14
NsVstartIndex
p55
I8
sVsentNum
p56
I3
sVgender
p57
VMALE
p58
sVposition
p59
(lp60
I3
aI6
asg21
g22
sVtype
p61
VPRONOMINAL
p62
sVid
p63
I32
sa(dp64
VendIndex
p65
I17
sVanimacy
p66
VANIMATE
p67
sg6
I00
sVtext
p68
Vhis
p69
sVisRepresentativeMention
p70
I00
sVnumber
p71
VSINGULAR
p72
sg12
(lp73
sg14
NsVstartIndex
p74
I16
sVsentNum
p75
I4
sVgender
p76
VMALE
p77
sVposition
p78
(lp79
I4
aI6
asg21
S'subj-det'
p80
sVtype
p81
VPRONOMINAL
p82
sVid
p83
I40
sa(dp84
VendIndex
p85
I23
sVanimacy
p86
VANIMATE
p87
sg6
I00
sVtext
p88
Vhe
p89
sVisRepresentativeMention
p90
I00
sVnumber
p91
VSINGULAR
p92
sg12
(lp93
sg14
NsVstartIndex
p94
I22
sVsentNum
p95
I4
sVgender
p96
VMALE
p97
sVposition
p98
(lp99
I4
aI8
asg21
g22
sVtype
p100
VPRONOMINAL
p101
sVid
p102
I42
sa(dp103
VendIndex
p104
I35
sVanimacy
p105
VANIMATE
p106
sg6
I00
sVtext
p107
Vhis
p108
sVisRepresentativeMention
p109
I00
sVnumber
p110
VSINGULAR
p111
sg12
(lp112
sg14
NsVstartIndex
p113
I34
sVsentNum
p114
I4
sVgender
p115
VMALE
p116
sVposition
p117
(lp118
I4
aI11
asg21
g80
sVtype
p119
VPRONOMINAL
p120
sVid
p121
I45
sa(dp122
VendIndex
p123
I4
sVanimacy
p124
VANIMATE
p125
sg6
I00
sVtext
p126
Vhis
p127
sVisRepresentativeMention
p128
I00
sVnumber
p129
VSINGULAR
p130
sg12
(lp131
sg14
NsVstartIndex
p132
I3
sVsentNum
p133
I7
sVgender
p134
VMALE
p135
sVposition
p136
(lp137
I7
aI3
asg21
g80
sVtype
p138
VPRONOMINAL
p139
sVid
p140
I61
sa(dp141
VendIndex
p142
I13
sVanimacy
p143
VANIMATE
p144
sg6
I00
sVtext
p145
Vhe
p146
sVisRepresentativeMention
p147
I00
sVnumber
p148
VSINGULAR
p149
sg12
(lp150
sg14
NsVstartIndex
p151
I12
sVsentNum
p152
I7
sVgender
p153
VMALE
p154
sVposition
p155
(lp156
I7
aI5
asg21
g22
sVtype
p157
VPRONOMINAL
p158
sVid
p159
I63
sa(dp160
VendIndex
p161
I26
sVanimacy
p162
VANIMATE
p163
sg6
I00
sVtext
p164
Vhe
p165
sVisRepresentativeMention
p166
I00
sVnumber
p167
VSINGULAR
p168
sg12
(lp169
sg14
NsVstartIndex
p170
I25
sVsentNum
p171
I18
sVgender
p172
VMALE
p173
sVposition
p174
(lp175
I18
aI9
asg21
g22
sVtype
p176
VPRONOMINAL
p177
sVid
p178
I139
sa(dp179
VendIndex
p180
I2
sVanimacy
p181
VANIMATE
p182
sg6
I00
sVtext
p183
VHe
p184
sVisRepresentativeMention
p185
I00
sVnumber
p186
VSINGULAR
p187
sg12
(lp188
sg14
NsVstartIndex
p189
I1
sVsentNum
p190
I20
sVgender
p191
VMALE
p192
sVposition
p193
(lp194
I20
aI1
asg21
g22
sVtype
p195
VPRONOMINAL
p196
sVid
p197
I146
sa(dp198
VendIndex
p199
I16
sVanimacy
p200
VANIMATE
p201
sg6
I00
sVtext
p202
Vhis
p203
sVisRepresentativeMention
p204
I00
sVnumber
p205
VSINGULAR
p206
sg12
(lp207
sg14
NsVstartIndex
p208
I15
sVsentNum
p209
I20
sVgender
p210
VMALE
p211
sVposition
p212
(lp213
I20
aI3
asg21
g80
sVtype
p214
VPRONOMINAL
p215
sVid
p216
I148
sa(dp217
VendIndex
p218
I2
sVanimacy
p219
VANIMATE
p220
sg6
I00
sVtext
p221
VHe
p222
sVisRepresentativeMention
p223
I00
sVnumber
p224
VSINGULAR
p225
sg12
(lp226
sg14
NsVstartIndex
p227
I1
sVsentNum
p228
I23
sVgender
p229
VMALE
p230
sVposition
p231
(lp232
I23
aI1
asg21
g22
sVtype
p233
VPRONOMINAL
p234
sVid
p235
I161
sa(dp236
VendIndex
p237
I3
sVanimacy
p238
VANIMATE
p239
sg6
I00
sVtext
p240
VWe
p241
sVisRepresentativeMention
p242
I00
sVnumber
p243
VPLURAL
p244
sg12
(lp245
sg14
NsVstartIndex
p246
I2
sVsentNum
p247
I25
sVgender
p248
VUNKNOWN
p249
sVposition
p250
(lp251
I25
aI1
asg21
g22
sVtype
p252
VPRONOMINAL
p253
sVid
p254
I182
sa(dp255
VendIndex
p256
I2
sVanimacy
p257
VANIMATE
p258
sg6
I00
sVtext
p259
VAnschutz
p260
sVisRepresentativeMention
p261
I00
sVnumber
p262
VSINGULAR
p263
sg12
(lp264
S'surnames'
p265
asg14
NsVstartIndex
p266
I1
sVsentNum
p267
I1
sVgender
p268
VMALE
p269
sVposition
p270
(lp271
I1
aI1
asg21
g22
sVtype
p272
VPROPER
p273
sVid
p274
I1
sa(dp275
VendIndex
p276
I2
sVanimacy
p277
VANIMATE
p278
sg6
I00
sVtext
p279
VAnschutz
p280
sVisRepresentativeMention
p281
I00
sVnumber
p282
VSINGULAR
p283
sg12
(lp284
g265
asg14
(dp285
VendIndex
p286
I10
sVanimacy
p287
VANIMATE
p288
sg6
I00
sVtext
p289
Van influential developer in downtown Los Angeles
p290
sVisRepresentativeMention
p291
I00
sVnumber
p292
VSINGULAR
p293
sg12
(lp294
sg14
NsVstartIndex
p295
I3
sVsentNum
p296
I2
sVgender
p297
VUNKNOWN
p298
sVposition
p299
(lp300
I2
aI4
asVtype
p301
VNOMINAL
p302
sVid
p303
I17
ssVstartIndex
p304
I1
sVsentNum
p305
I2
sVgender
p306
VMALE
p307
sVposition
p308
(lp309
I2
aI1
asg21
g22
sVtype
p310
VPROPER
p311
sVid
p312
I13
sa(dp313
VendIndex
p314
I22
sVanimacy
p315
VANIMATE
p316
sg6
I00
sVtext
p317
VAnschutz
p318
sVisRepresentativeMention
p319
I00
sVnumber
p320
VSINGULAR
p321
sg12
(lp322
g265
asg14
NsVstartIndex
p323
I21
sVsentNum
p324
I3
sVgender
p325
VMALE
p326
sVposition
p327
(lp328
I3
aI9
asg21
g22
sVtype
p329
VPROPER
p330
sVid
p331
I27
sa(dp332
VendIndex
p333
I9
sVanimacy
p334
VANIMATE
p335
sg6
I01
sVtext
p336
VMr. Anschutz
p337
sVisRepresentativeMention
p338
I01
sVnumber
p339
VSINGULAR
p340
sg12
(lp341
g265
asg14
NsVstartIndex
p342
I7
sVsentNum
p343
I4
sVgender
p344
VMALE
p345
sVposition
p346
(lp347
I4
aI3
asg21
S'np-obj'
p348
sVtype
p349
VPROPER
p350
sVid
p351
I37
sa(dp352
VendIndex
p353
I2
sVanimacy
p354
VANIMATE
p355
sg6
I00
sVtext
p356
VAnschutz
p357
sVisRepresentativeMention
p358
I00
sVnumber
p359
VSINGULAR
p360
sg12
(lp361
g265
asg14
NsVstartIndex
p362
I1
sVsentNum
p363
I5
sVgender
p364
VMALE
p365
sVposition
p366
(lp367
I5
aI1
asg21
g22
sVtype
p368
VPROPER
p369
sVid
p370
I47
sa(dp371
VendIndex
p372
I2
sVanimacy
p373
VANIMATE
p374
sg6
I00
sVtext
p375
VAnschutz
p376
sVisRepresentativeMention
p377
I00
sVnumber
p378
VSINGULAR
p379
sg12
(lp380
g265
asg14
NsVstartIndex
p381
I1
sVsentNum
p382
I7
sVgender
p383
VMALE
p384
sVposition
p385
(lp386
I7
aI1
asg21
g22
sVtype
p387
VPROPER
p388
sVid
p389
I59
sa(dp390
VendIndex
p391
I2
sVanimacy
p392
VANIMATE
p393
sg6
I00
sVtext
p394
VAnschutz
p395
sVisRepresentativeMention
p396
I00
sVnumber
p397
VSINGULAR
p398
sg12
(lp399
g265
asg14
NsVstartIndex
p400
I1
sVsentNum
p401
I18
sVgender
p402
VMALE
p403
sVposition
p404
(lp405
I18
aI1
asg21
g22
sVtype
p406
VPROPER
p407
sVid
p408
I131
sa(dp409
VendIndex
p410
I2
sVanimacy
p411
VANIMATE
p412
sg6
I00
sVtext
p413
VAnschutz
p414
sVisRepresentativeMention
p415
I00
sVnumber
p416
VSINGULAR
p417
sg12
(lp418
g265
asg14
NsVstartIndex
p419
I1
sVsentNum
p420
I24
sVgender
p421
VMALE
p422
sVposition
p423
(lp424
I24
aI1
asg21
g22
sVtype
p425
VPROPER
p426
sVid
p427
I169
sa.