(lp1
(dp2
VendIndex
p3
I8
sVanimacy
p4
VANIMATE
p5
sS'title'
p6
I00
sVtext
p7
Vhe
p8
sVisRepresentativeMention
p9
I00
sVnumber
p10
VSINGULAR
p11
sS'name_type'
p12
(lp13
sS'appositive'
p14
NsVstartIndex
p15
I7
sVsentNum
p16
I1
sVgender
p17
VMALE
p18
sVposition
p19
(lp20
I1
aI3
asS'syntax'
p21
S'np-subj'
p22
sVtype
p23
VPRONOMINAL
p24
sVid
p25
I7
sa(dp26
VendIndex
p27
I19
sVanimacy
p28
VANIMATE
p29
sg6
I00
sVtext
p30
Vhe
p31
sVisRepresentativeMention
p32
I00
sVnumber
p33
VSINGULAR
p34
sg12
(lp35
sg14
NsVstartIndex
p36
I18
sVsentNum
p37
I1
sVgender
p38
VMALE
p39
sVposition
p40
(lp41
I1
aI7
asg21
g22
sVtype
p42
VPRONOMINAL
p43
sVid
p44
I10
sa(dp45
VendIndex
p46
I22
sVanimacy
p47
VANIMATE
p48
sg6
I00
sVtext
p49
Vhe
p50
sVisRepresentativeMention
p51
I00
sVnumber
p52
VSINGULAR
p53
sg12
(lp54
sg14
NsVstartIndex
p55
I21
sVsentNum
p56
I3
sVgender
p57
VMALE
p58
sVposition
p59
(lp60
I3
aI7
asg21
g22
sVtype
p61
VPRONOMINAL
p62
sVid
p63
I33
sa(dp64
VendIndex
p65
I17
sVanimacy
p66
VANIMATE
p67
sg6
I00
sVtext
p68
Vhis
p69
sVisRepresentativeMention
p70
I00
sVnumber
p71
VSINGULAR
p72
sg12
(lp73
sg14
NsVstartIndex
p74
I16
sVsentNum
p75
I4
sVgender
p76
VMALE
p77
sVposition
p78
(lp79
I4
aI6
asg21
S'subj-det'
p80
sVtype
p81
VPRONOMINAL
p82
sVid
p83
I40
sa(dp84
VendIndex
p85
I23
sVanimacy
p86
VANIMATE
p87
sg6
I00
sVtext
p88
Vhe
p89
sVisRepresentativeMention
p90
I00
sVnumber
p91
VSINGULAR
p92
sg12
(lp93
sg14
NsVstartIndex
p94
I22
sVsentNum
p95
I4
sVgender
p96
VMALE
p97
sVposition
p98
(lp99
I4
aI8
asg21
g22
sVtype
p100
VPRONOMINAL
p101
sVid
p102
I42
sa(dp103
VendIndex
p104
I13
sVanimacy
p105
VANIMATE
p106
sg6
I00
sVtext
p107
Vhe
p108
sVisRepresentativeMention
p109
I00
sVnumber
p110
VSINGULAR
p111
sg12
(lp112
sg14
NsVstartIndex
p113
I12
sVsentNum
p114
I7
sVgender
p115
VMALE
p116
sVposition
p117
(lp118
I7
aI4
asg21
g22
sVtype
p119
VPRONOMINAL
p120
sVid
p121
I61
sa(dp122
VendIndex
p123
I26
sVanimacy
p124
VANIMATE
p125
sg6
I00
sVtext
p126
Vhe
p127
sVisRepresentativeMention
p128
I00
sVnumber
p129
VSINGULAR
p130
sg12
(lp131
sg14
NsVstartIndex
p132
I25
sVsentNum
p133
I18
sVgender
p134
VMALE
p135
sVposition
p136
(lp137
I18
aI9
asg21
g22
sVtype
p138
VPRONOMINAL
p139
sVid
p140
I138
sa(dp141
VendIndex
p142
I16
sVanimacy
p143
VANIMATE
p144
sg6
I00
sVtext
p145
Vhis
p146
sVisRepresentativeMention
p147
I00
sVnumber
p148
VSINGULAR
p149
sg12
(lp150
sg14
NsVstartIndex
p151
I15
sVsentNum
p152
I20
sVgender
p153
VMALE
p154
sVposition
p155
(lp156
I20
aI3
asg21
g80
sVtype
p157
VPRONOMINAL
p158
sVid
p159
I147
sa(dp160
VendIndex
p161
I6
sVanimacy
p162
VANIMATE
p163
sg6
I00
sVtext
p164
Vhis
p165
sVisRepresentativeMention
p166
I00
sVnumber
p167
VSINGULAR
p168
sg12
(lp169
sg14
NsVstartIndex
p170
I5
sVsentNum
p171
I25
sVgender
p172
VMALE
p173
sVposition
p174
(lp175
I25
aI4
asg21
g80
sVtype
p176
VPRONOMINAL
p177
sVid
p178
I184
sa(dp179
VendIndex
p180
I9
sVanimacy
p181
VANIMATE
p182
sg6
I00
sVtext
p183
Vhis
p184
sVisRepresentativeMention
p185
I00
sVnumber
p186
VSINGULAR
p187
sg12
(lp188
sg14
NsVstartIndex
p189
I8
sVsentNum
p190
I25
sVgender
p191
VMALE
p192
sVposition
p193
(lp194
I25
aI6
asg21
g80
sVtype
p195
VPRONOMINAL
p196
sVid
p197
I186
sa(dp198
VendIndex
p199
I12
sVanimacy
p200
VANIMATE
p201
sg6
I00
sVtext
p202
Vhis
p203
sVisRepresentativeMention
p204
I00
sVnumber
p205
VSINGULAR
p206
sg12
(lp207
sg14
NsVstartIndex
p208
I11
sVsentNum
p209
I25
sVgender
p210
VMALE
p211
sVposition
p212
(lp213
I25
aI8
asg21
g80
sVtype
p214
VPRONOMINAL
p215
sVid
p216
I188
sa(dp217
VendIndex
p218
I4
sVanimacy
p219
VANIMATE
p220
sg6
I00
sVtext
p221
VPhilip Frederick Anschutz
p222
sVisRepresentativeMention
p223
I01
sVnumber
p224
VSINGULAR
p225
sg12
(lp226
S'birthNames'
p227
asg14
NsVstartIndex
p228
I1
sVsentNum
p229
I1
sVgender
p230
VMALE
p231
sVposition
p232
(lp233
I1
aI1
asg21
g22
sVtype
p234
VPROPER
p235
sVid
p236
I1
sa(dp237
VendIndex
p238
I3
sVanimacy
p239
VANIMATE
p240
sg6
I00
sVtext
p241
VAnschutz
p242
sVisRepresentativeMention
p243
I00
sVnumber
p244
VSINGULAR
p245
sg12
(lp246
S'surnames'
p247
asg14
(dp248
VendIndex
p249
I11
sVanimacy
p250
VANIMATE
p251
sg6
I00
sVtext
p252
Van influential developer in downtown Los Angeles
p253
sVisRepresentativeMention
p254
I00
sVnumber
p255
VSINGULAR
p256
sg12
(lp257
sg14
NsVstartIndex
p258
I4
sVsentNum
p259
I2
sVgender
p260
VUNKNOWN
p261
sVposition
p262
(lp263
I2
aI5
asVtype
p264
VNOMINAL
p265
sVid
p266
I18
ssVstartIndex
p267
I2
sVsentNum
p268
I2
sVgender
p269
VMALE
p270
sVposition
p271
(lp272
I2
aI1
asg21
g22
sVtype
p273
VPROPER
p274
sVid
p275
I13
sa(dp276
VendIndex
p277
I9
sVanimacy
p278
VANIMATE
p279
sg6
I01
sVtext
p280
VMr. Anschutz
p281
sVisRepresentativeMention
p282
I00
sVnumber
p283
VSINGULAR
p284
sg12
(lp285
g247
asg14
NsVstartIndex
p286
I7
sVsentNum
p287
I4
sVgender
p288
VMALE
p289
sVposition
p290
(lp291
I4
aI3
asg21
S'np-obj'
p292
sVtype
p293
VPROPER
p294
sVid
p295
I37
sa(dp296
VendIndex
p297
I36
sVanimacy
p298
VANIMATE
p299
sg6
I00
sVtext
p300
VAnschutz's
p301
sVisRepresentativeMention
p302
I00
sVnumber
p303
VSINGULAR
p304
sg12
(lp305
g247
asg14
NsVstartIndex
p306
I34
sVsentNum
p307
I4
sVgender
p308
VMALE
p309
sVposition
p310
(lp311
I4
aI11
asg21
g80
sVtype
p312
VPROPER
p313
sVid
p314
I34
sa(dp315
VendIndex
p316
I2
sVanimacy
p317
VANIMATE
p318
sg6
I00
sVtext
p319
VAnschutz
p320
sVisRepresentativeMention
p321
I00
sVnumber
p322
VSINGULAR
p323
sg12
(lp324
g247
asg14
NsVstartIndex
p325
I1
sVsentNum
p326
I5
sVgender
p327
VMALE
p328
sVposition
p329
(lp330
I5
aI1
asg21
g22
sVtype
p331
VPROPER
p332
sVid
p333
I46
sa(dp334
VendIndex
p335
I2
sVanimacy
p336
VANIMATE
p337
sg6
I00
sVtext
p338
VAnschutz
p339
sVisRepresentativeMention
p340
I00
sVnumber
p341
VSINGULAR
p342
sg12
(lp343
g247
asg14
NsVstartIndex
p344
I1
sVsentNum
p345
I7
sVgender
p346
VMALE
p347
sVposition
p348
(lp349
I7
aI1
asg21
g22
sVtype
p350
VPROPER
p351
sVid
p352
I58
sa(dp353
VendIndex
p354
I3
sVanimacy
p355
VANIMATE
p356
sg6
I00
sVtext
p357
VAnschutz's
p358
sVisRepresentativeMention
p359
I00
sVnumber
p360
VSINGULAR
p361
sg12
(lp362
g247
asg14
NsVstartIndex
p363
I1
sVsentNum
p364
I12
sVgender
p365
VMALE
p366
sVposition
p367
(lp368
I12
aI2
asg21
g80
sVtype
p369
VPROPER
p370
sVid
p371
I90
sa(dp372
VendIndex
p373
I2
sVanimacy
p374
VANIMATE
p375
sg6
I00
sVtext
p376
VAnschutz
p377
sVisRepresentativeMention
p378
I00
sVnumber
p379
VSINGULAR
p380
sg12
(lp381
g247
asg14
NsVstartIndex
p382
I1
sVsentNum
p383
I18
sVgender
p384
VMALE
p385
sVposition
p386
(lp387
I18
aI1
asg21
g22
sVtype
p388
VPROPER
p389
sVid
p390
I130
sa(dp391
VendIndex
p392
I2
sVanimacy
p393
VANIMATE
p394
sg6
I00
sVtext
p395
VAnschutz
p396
sVisRepresentativeMention
p397
I00
sVnumber
p398
VSINGULAR
p399
sg12
(lp400
g247
asg14
NsVstartIndex
p401
I1
sVsentNum
p402
I20
sVgender
p403
VMALE
p404
sVposition
p405
(lp406
I20
aI1
asg21
g22
sVtype
p407
VPROPER
p408
sVid
p409
I144
sa(dp410
VendIndex
p411
I2
sVanimacy
p412
VANIMATE
p413
sg6
I00
sVtext
p414
VAnschutz
p415
sVisRepresentativeMention
p416
I00
sVnumber
p417
VSINGULAR
p418
sg12
(lp419
g247
asg14
NsVstartIndex
p420
I1
sVsentNum
p421
I23
sVgender
p422
VMALE
p423
sVposition
p424
(lp425
I23
aI1
asg21
g22
sVtype
p426
VPROPER
p427
sVid
p428
I157
sa(dp429
VendIndex
p430
I2
sVanimacy
p431
VANIMATE
p432
sg6
I00
sVtext
p433
VAnschutz
p434
sVisRepresentativeMention
p435
I00
sVnumber
p436
VSINGULAR
p437
sg12
(lp438
g247
asg14
NsVstartIndex
p439
I1
sVsentNum
p440
I24
sVgender
p441
VMALE
p442
sVposition
p443
(lp444
I24
aI1
asg21
g22
sVtype
p445
VPROPER
p446
sVid
p447
I168
sa.