(lp1
(dp2
VendIndex
p3
I27
sVanimacy
p4
VANIMATE
p5
sS'title'
p6
I00
sVtext
p7
Vhe
p8
sVisRepresentativeMention
p9
I00
sVnumber
p10
VSINGULAR
p11
sS'name_type'
p12
(lp13
sS'appositive'
p14
NsVstartIndex
p15
I26
sVsentNum
p16
I18
sVgender
p17
VMALE
p18
sVposition
p19
(lp20
I18
aI9
asS'syntax'
p21
S'np-subj'
p22
sVtype
p23
VPRONOMINAL
p24
sVid
p25
I136
sa(dp26
VendIndex
p27
I2
sVanimacy
p28
VANIMATE
p29
sg6
I00
sVtext
p30
VHe
p31
sVisRepresentativeMention
p32
I00
sVnumber
p33
VSINGULAR
p34
sg12
(lp35
sg14
NsVstartIndex
p36
I1
sVsentNum
p37
I20
sVgender
p38
VMALE
p39
sVposition
p40
(lp41
I20
aI1
asg21
g22
sVtype
p42
VPRONOMINAL
p43
sVid
p44
I143
sa(dp45
VendIndex
p46
I16
sVanimacy
p47
VANIMATE
p48
sg6
I00
sVtext
p49
Vhis
p50
sVisRepresentativeMention
p51
I00
sVnumber
p52
VSINGULAR
p53
sg12
(lp54
sg14
NsVstartIndex
p55
I15
sVsentNum
p56
I20
sVgender
p57
VMALE
p58
sVposition
p59
(lp60
I20
aI3
asg21
S'subj-det'
p61
sVtype
p62
VPRONOMINAL
p63
sVid
p64
I145
sa(dp65
VendIndex
p66
I2
sVanimacy
p67
VANIMATE
p68
sg6
I00
sVtext
p69
VHe
p70
sVisRepresentativeMention
p71
I00
sVnumber
p72
VSINGULAR
p73
sg12
(lp74
sg14
NsVstartIndex
p75
I1
sVsentNum
p76
I23
sVgender
p77
VMALE
p78
sVposition
p79
(lp80
I23
aI1
asg21
g22
sVtype
p81
VPRONOMINAL
p82
sVid
p83
I158
sa(dp84
VendIndex
p85
I6
sVanimacy
p86
VANIMATE
p87
sg6
I00
sVtext
p88
Vhis
p89
sVisRepresentativeMention
p90
I00
sVnumber
p91
VSINGULAR
p92
sg12
(lp93
sg14
NsVstartIndex
p94
I5
sVsentNum
p95
I25
sVgender
p96
VMALE
p97
sVposition
p98
(lp99
I25
aI4
asg21
g61
sVtype
p100
VPRONOMINAL
p101
sVid
p102
I182
sa(dp103
VendIndex
p104
I9
sVanimacy
p105
VANIMATE
p106
sg6
I00
sVtext
p107
Vhis
p108
sVisRepresentativeMention
p109
I00
sVnumber
p110
VSINGULAR
p111
sg12
(lp112
sg14
NsVstartIndex
p113
I8
sVsentNum
p114
I25
sVgender
p115
VMALE
p116
sVposition
p117
(lp118
I25
aI6
asg21
g61
sVtype
p119
VPRONOMINAL
p120
sVid
p121
I184
sa(dp122
VendIndex
p123
I12
sVanimacy
p124
VANIMATE
p125
sg6
I00
sVtext
p126
Vhis
p127
sVisRepresentativeMention
p128
I00
sVnumber
p129
VSINGULAR
p130
sg12
(lp131
sg14
NsVstartIndex
p132
I11
sVsentNum
p133
I25
sVgender
p134
VMALE
p135
sVposition
p136
(lp137
I25
aI8
asg21
g61
sVtype
p138
VPRONOMINAL
p139
sVid
p140
I186
sa(dp141
VendIndex
p142
I9
sVanimacy
p143
VANIMATE
p144
sg6
I00
sVtext
p145
Vhe
p146
sVisRepresentativeMention
p147
I00
sVnumber
p148
VSINGULAR
p149
sg12
(lp150
sg14
NsVstartIndex
p151
I8
sVsentNum
p152
I3
sVgender
p153
VMALE
p154
sVposition
p155
(lp156
I3
aI6
asg21
g22
sVtype
p157
VPRONOMINAL
p158
sVid
p159
I31
sa(dp160
VendIndex
p161
I17
sVanimacy
p162
VANIMATE
p163
sg6
I00
sVtext
p164
Vhis
p165
sVisRepresentativeMention
p166
I00
sVnumber
p167
VSINGULAR
p168
sg12
(lp169
sg14
NsVstartIndex
p170
I16
sVsentNum
p171
I4
sVgender
p172
VMALE
p173
sVposition
p174
(lp175
I4
aI6
asg21
g61
sVtype
p176
VPRONOMINAL
p177
sVid
p178
I41
sa(dp179
VendIndex
p180
I23
sVanimacy
p181
VANIMATE
p182
sg6
I00
sVtext
p183
Vhe
p184
sVisRepresentativeMention
p185
I00
sVnumber
p186
VSINGULAR
p187
sg12
(lp188
sg14
NsVstartIndex
p189
I22
sVsentNum
p190
I4
sVgender
p191
VMALE
p192
sVposition
p193
(lp194
I4
aI8
asg21
g22
sVtype
p195
VPRONOMINAL
p196
sVid
p197
I43
sa(dp198
VendIndex
p199
I8
sVanimacy
p200
VANIMATE
p201
sg6
I00
sVtext
p202
Vhe
p203
sVisRepresentativeMention
p204
I00
sVnumber
p205
VSINGULAR
p206
sg12
(lp207
sg14
NsVstartIndex
p208
I7
sVsentNum
p209
I1
sVgender
p210
VMALE
p211
sVposition
p212
(lp213
I1
aI3
asg21
g22
sVtype
p214
VPRONOMINAL
p215
sVid
p216
I7
sa(dp217
VendIndex
p218
I19
sVanimacy
p219
VANIMATE
p220
sg6
I00
sVtext
p221
Vhe
p222
sVisRepresentativeMention
p223
I00
sVnumber
p224
VSINGULAR
p225
sg12
(lp226
sg14
NsVstartIndex
p227
I18
sVsentNum
p228
I1
sVgender
p229
VMALE
p230
sVposition
p231
(lp232
I1
aI7
asg21
g22
sVtype
p233
VPRONOMINAL
p234
sVid
p235
I10
sa(dp236
VendIndex
p237
I9
sVanimacy
p238
VANIMATE
p239
sg6
I01
sVtext
p240
VMr. Anschutz
p241
sVisRepresentativeMention
p242
I00
sVnumber
p243
VSINGULAR
p244
sg12
(lp245
S'surnames'
p246
asg14
NsVstartIndex
p247
I7
sVsentNum
p248
I4
sVgender
p249
VMALE
p250
sVposition
p251
(lp252
I4
aI3
asg21
S'np-obj'
p253
sVtype
p254
VPROPER
p255
sVid
p256
I38
sa(dp257
VendIndex
p258
I21
sVanimacy
p259
VANIMATE
p260
sg6
I01
sVtext
p261
VMr. Anschutz
p262
sVisRepresentativeMention
p263
I00
sVnumber
p264
VSINGULAR
p265
sg12
(lp266
g246
asg14
NsVstartIndex
p267
I19
sVsentNum
p268
I6
sVgender
p269
VMALE
p270
sVposition
p271
(lp272
I6
aI5
asg21
g22
sVtype
p273
VPROPER
p274
sVid
p275
I56
sa(dp276
VendIndex
p277
I3
sVanimacy
p278
VANIMATE
p279
sg6
I01
sVtext
p280
VMr. Anschutz
p281
sVisRepresentativeMention
p282
I00
sVnumber
p283
VSINGULAR
p284
sg12
(lp285
g246
asg14
NsVstartIndex
p286
I1
sVsentNum
p287
I18
sVgender
p288
VMALE
p289
sVposition
p290
(lp291
I18
aI1
asg21
g22
sVtype
p292
VPROPER
p293
sVid
p294
I129
sa(dp295
VendIndex
p296
I3
sVanimacy
p297
VANIMATE
p298
sg6
I01
sVtext
p299
VMr. Anschutz
p300
sVisRepresentativeMention
p301
I00
sVnumber
p302
VSINGULAR
p303
sg12
(lp304
g246
asg14
NsVstartIndex
p305
I1
sVsentNum
p306
I24
sVgender
p307
VMALE
p308
sVposition
p309
(lp310
I24
aI1
asg21
g22
sVtype
p311
VPROPER
p312
sVid
p313
I168
sa(dp314
VendIndex
p315
I2
sVanimacy
p316
VANIMATE
p317
sg6
I00
sVtext
p318
VAnschutz
p319
sVisRepresentativeMention
p320
I01
sVnumber
p321
VSINGULAR
p322
sg12
(lp323
g246
asg14
(dp324
VendIndex
p325
I10
sVanimacy
p326
VANIMATE
p327
sg6
I00
sVtext
p328
Van influential developer in downtown Los Angeles
p329
sVisRepresentativeMention
p330
I00
sVnumber
p331
VSINGULAR
p332
sg12
(lp333
sg14
NsVstartIndex
p334
I3
sVsentNum
p335
I2
sVgender
p336
VUNKNOWN
p337
sVposition
p338
(lp339
I2
aI4
asVtype
p340
VNOMINAL
p341
sVid
p342
I17
ssVstartIndex
p343
I1
sVsentNum
p344
I2
sVgender
p345
VMALE
p346
sVposition
p347
(lp348
I2
aI1
asg21
g22
sVtype
p349
VPROPER
p350
sVid
p351
I13
sa(dp352
VendIndex
p353
I36
sVanimacy
p354
VANIMATE
p355
sg6
I00
sVtext
p356
VAnschutz
p357
sVisRepresentativeMention
p358
I00
sVnumber
p359
VSINGULAR
p360
sg12
(lp361
g246
asg14
NsVstartIndex
p362
I35
sVsentNum
p363
I4
sVgender
p364
VMALE
p365
sVposition
p366
(lp367
I4
aI11
asg21
g61
sVtype
p368
VPROPER
p369
sVid
p370
I35
sa(dp371
VendIndex
p372
I4
sVanimacy
p373
VANIMATE
p374
sg6
I00
sVtext
p375
VPhilip Frederick Anschut
p376
sVisRepresentativeMention
p377
I01
sVnumber
p378
VSINGULAR
p379
sg12
(lp380
S'birthNames'
p381
asg14
NsVstartIndex
p382
I1
sVsentNum
p383
I1
sVgender
p384
VMALE
p385
sVposition
p386
(lp387
I1
aI1
asg21
g22
sVtype
p388
VPROPER
p389
sVid
p390
I1
sa(dp391
VendIndex
p392
I4
sVanimacy
p393
VANIMATE
p394
sg6
I00
sVtext
p395
VPhilip Frederick Anschut
p396
sVisRepresentativeMention
p397
I00
sVnumber
p398
VSINGULAR
p399
sg12
(lp400
g381
asg14
NsVstartIndex
p401
I1
sVsentNum
p402
I5
sVgender
p403
VMALE
p404
sVposition
p405
(lp406
I5
aI1
asg21
g22
sVtype
p407
VPROPER
p408
sVid
p409
I47
sa.