(lp1
(dp2
VendIndex
p3
I6
sVanimacy
p4
VANIMATE
p5
sS'title'
p6
I00
sVtext
p7
Vhe
p8
sVisRepresentativeMention
p9
I00
sVnumber
p10
VSINGULAR
p11
sS'name_type'
p12
(lp13
sS'appositive'
p14
NsVstartIndex
p15
I5
sVsentNum
p16
I1
sVgender
p17
VMALE
p18
sVposition
p19
(lp20
I1
aI3
asS'syntax'
p21
S'np-subj'
p22
sVtype
p23
VPRONOMINAL
p24
sVid
p25
I7
sa(dp26
VendIndex
p27
I17
sVanimacy
p28
VANIMATE
p29
sg6
I00
sVtext
p30
Vhe
p31
sVisRepresentativeMention
p32
I00
sVnumber
p33
VSINGULAR
p34
sg12
(lp35
sg14
NsVstartIndex
p36
I16
sVsentNum
p37
I1
sVgender
p38
VMALE
p39
sVposition
p40
(lp41
I1
aI7
asg21
g22
sVtype
p42
VPRONOMINAL
p43
sVid
p44
I10
sa(dp45
VendIndex
p46
I10
sVanimacy
p47
VANIMATE
p48
sg6
I00
sVtext
p49
Vhe
p50
sVisRepresentativeMention
p51
I00
sVnumber
p52
VSINGULAR
p53
sg12
(lp54
sg14
NsVstartIndex
p55
I9
sVsentNum
p56
I3
sVgender
p57
VMALE
p58
sVposition
p59
(lp60
I3
aI6
asg21
g22
sVtype
p61
VPRONOMINAL
p62
sVid
p63
I32
sa(dp64
VendIndex
p65
I17
sVanimacy
p66
VANIMATE
p67
sg6
I00
sVtext
p68
Vhis
p69
sVisRepresentativeMention
p70
I00
sVnumber
p71
VSINGULAR
p72
sg12
(lp73
sg14
NsVstartIndex
p74
I16
sVsentNum
p75
I4
sVgender
p76
VMALE
p77
sVposition
p78
(lp79
I4
aI6
asg21
S'subj-det'
p80
sVtype
p81
VPRONOMINAL
p82
sVid
p83
I41
sa(dp84
VendIndex
p85
I23
sVanimacy
p86
VANIMATE
p87
sg6
I00
sVtext
p88
Vhe
p89
sVisRepresentativeMention
p90
I00
sVnumber
p91
VSINGULAR
p92
sg12
(lp93
sg14
NsVstartIndex
p94
I22
sVsentNum
p95
I4
sVgender
p96
VMALE
p97
sVposition
p98
(lp99
I4
aI8
asg21
g22
sVtype
p100
VPRONOMINAL
p101
sVid
p102
I43
sa(dp103
VendIndex
p104
I4
sVanimacy
p105
VANIMATE
p106
sg6
I00
sVtext
p107
Vhis
p108
sVisRepresentativeMention
p109
I00
sVnumber
p110
VSINGULAR
p111
sg12
(lp112
sg14
NsVstartIndex
p113
I3
sVsentNum
p114
I7
sVgender
p115
VMALE
p116
sVposition
p117
(lp118
I7
aI3
asg21
g80
sVtype
p119
VPRONOMINAL
p120
sVid
p121
I61
sa(dp122
VendIndex
p123
I2
sVanimacy
p124
VANIMATE
p125
sg6
I00
sVtext
p126
VHis
p127
sVisRepresentativeMention
p128
I00
sVnumber
p129
VSINGULAR
p130
sg12
(lp131
sg14
NsVstartIndex
p132
I1
sVsentNum
p133
I8
sVgender
p134
VMALE
p135
sVposition
p136
(lp137
I8
aI2
asg21
g80
sVtype
p138
VPRONOMINAL
p139
sVid
p140
I68
sa(dp141
VendIndex
p142
I2
sVanimacy
p143
VANIMATE
p144
sg6
I00
sVtext
p145
VHe
p146
sVisRepresentativeMention
p147
I00
sVnumber
p148
VSINGULAR
p149
sg12
(lp150
sg14
NsVstartIndex
p151
I1
sVsentNum
p152
I24
sVgender
p153
VMALE
p154
sVposition
p155
(lp156
I24
aI1
asg21
g22
sVtype
p157
VPRONOMINAL
p158
sVid
p159
I169
sa(dp160
VendIndex
p161
I3
sVanimacy
p162
VANIMATE
p163
sg6
I00
sVtext
p164
VWe
p165
sVisRepresentativeMention
p166
I00
sVnumber
p167
VPLURAL
p168
sg12
(lp169
sg14
NsVstartIndex
p170
I2
sVsentNum
p171
I25
sVgender
p172
VUNKNOWN
p173
sVposition
p174
(lp175
I25
aI1
asg21
g22
sVtype
p176
VPRONOMINAL
p177
sVid
p178
I180
sa(dp179
VendIndex
p180
I2
sVanimacy
p181
VANIMATE
p182
sg6
I00
sVtext
p183
VAnschutz
p184
sVisRepresentativeMention
p185
I00
sVnumber
p186
VSINGULAR
p187
sg12
(lp188
S'surnames'
p189
asg14
NsVstartIndex
p190
I1
sVsentNum
p191
I1
sVgender
p192
VMALE
p193
sVposition
p194
(lp195
I1
aI1
asg21
g22
sVtype
p196
VPROPER
p197
sVid
p198
I1
sa(dp199
VendIndex
p200
I2
sVanimacy
p201
VANIMATE
p202
sg6
I00
sVtext
p203
VAnschutz
p204
sVisRepresentativeMention
p205
I00
sVnumber
p206
VSINGULAR
p207
sg12
(lp208
g189
asg14
(dp209
VendIndex
p210
I10
sVanimacy
p211
VANIMATE
p212
sg6
I00
sVtext
p213
Van influential developer in downtown Los Angeles
p214
sVisRepresentativeMention
p215
I00
sVnumber
p216
VSINGULAR
p217
sg12
(lp218
sg14
NsVstartIndex
p219
I3
sVsentNum
p220
I2
sVgender
p221
VUNKNOWN
p222
sVposition
p223
(lp224
I2
aI4
asVtype
p225
VNOMINAL
p226
sVid
p227
I17
ssVstartIndex
p228
I1
sVsentNum
p229
I2
sVgender
p230
VMALE
p231
sVposition
p232
(lp233
I2
aI1
asg21
g22
sVtype
p234
VPROPER
p235
sVid
p236
I13
sa(dp237
VendIndex
p238
I23
sVanimacy
p239
VANIMATE
p240
sg6
I00
sVtext
p241
VAnschutz
p242
sVisRepresentativeMention
p243
I00
sVnumber
p244
VSINGULAR
p245
sg12
(lp246
g189
asg14
NsVstartIndex
p247
I22
sVsentNum
p248
I3
sVgender
p249
VMALE
p250
sVposition
p251
(lp252
I3
aI9
asg21
g22
sVtype
p253
VPROPER
p254
sVid
p255
I27
sa(dp256
VendIndex
p257
I9
sVanimacy
p258
VANIMATE
p259
sg6
I01
sVtext
p260
VMr. Anschutz
p261
sVisRepresentativeMention
p262
I01
sVnumber
p263
VSINGULAR
p264
sg12
(lp265
g189
asg14
NsVstartIndex
p266
I7
sVsentNum
p267
I4
sVgender
p268
VMALE
p269
sVposition
p270
(lp271
I4
aI3
asg21
S'np-obj'
p272
sVtype
p273
VPROPER
p274
sVid
p275
I38
sa(dp276
VendIndex
p277
I2
sVanimacy
p278
VANIMATE
p279
sg6
I00
sVtext
p280
VAnschutz
p281
sVisRepresentativeMention
p282
I00
sVnumber
p283
VSINGULAR
p284
sg12
(lp285
g189
asg14
NsVstartIndex
p286
I1
sVsentNum
p287
I5
sVgender
p288
VMALE
p289
sVposition
p290
(lp291
I5
aI1
asg21
g22
sVtype
p292
VPROPER
p293
sVid
p294
I47
sa(dp295
VendIndex
p296
I2
sVanimacy
p297
VANIMATE
p298
sg6
I00
sVtext
p299
VAnschutz
p300
sVisRepresentativeMention
p301
I00
sVnumber
p302
VSINGULAR
p303
sg12
(lp304
g189
asg14
NsVstartIndex
p305
I1
sVsentNum
p306
I7
sVgender
p307
VMALE
p308
sVposition
p309
(lp310
I7
aI1
asg21
g22
sVtype
p311
VPROPER
p312
sVid
p313
I59
sa(dp314
VendIndex
p315
I2
sVanimacy
p316
VANIMATE
p317
sg6
I00
sVtext
p318
VAnschutz
p319
sVisRepresentativeMention
p320
I00
sVnumber
p321
VSINGULAR
p322
sg12
(lp323
g189
asg14
NsVstartIndex
p324
I1
sVsentNum
p325
I12
sVgender
p326
VMALE
p327
sVposition
p328
(lp329
I12
aI2
asg21
g80
sVtype
p330
VPROPER
p331
sVid
p332
I92
sa(dp333
VendIndex
p334
I8
sVanimacy
p335
VANIMATE
p336
sg6
I00
sVtext
p337
VAnschutz
p338
sVisRepresentativeMention
p339
I00
sVnumber
p340
VSINGULAR
p341
sg12
(lp342
g189
asg14
NsVstartIndex
p343
I7
sVsentNum
p344
I14
sVgender
p345
VMALE
p346
sVposition
p347
(lp348
I14
aI3
asg21
g22
sVtype
p349
VPROPER
p350
sVid
p351
I106
sa(dp352
VendIndex
p353
I2
sVanimacy
p354
VANIMATE
p355
sg6
I00
sVtext
p356
VAnschutz
p357
sVisRepresentativeMention
p358
I00
sVnumber
p359
VSINGULAR
p360
sg12
(lp361
g189
asg14
NsVstartIndex
p362
I1
sVsentNum
p363
I18
sVgender
p364
VMALE
p365
sVposition
p366
(lp367
I18
aI1
asg21
g22
sVtype
p368
VPROPER
p369
sVid
p370
I131
sa(dp371
VendIndex
p372
I2
sVanimacy
p373
VANIMATE
p374
sg6
I00
sVtext
p375
VAnschutz
p376
sVisRepresentativeMention
p377
I00
sVnumber
p378
VSINGULAR
p379
sg12
(lp380
g189
asg14
NsVstartIndex
p381
I1
sVsentNum
p382
I20
sVgender
p383
VMALE
p384
sVposition
p385
(lp386
I20
aI1
asg21
g22
sVtype
p387
VPROPER
p388
sVid
p389
I144
sa(dp390
VendIndex
p391
I2
sVanimacy
p392
VANIMATE
p393
sg6
I00
sVtext
p394
VAnschutz
p395
sVisRepresentativeMention
p396
I00
sVnumber
p397
VSINGULAR
p398
sg12
(lp399
g189
asg14
NsVstartIndex
p400
I1
sVsentNum
p401
I23
sVgender
p402
VMALE
p403
sVposition
p404
(lp405
I23
aI1
asg21
g22
sVtype
p406
VPROPER
p407
sVid
p408
I156
sa.