(lp1
(dp2
VendIndex
p3
I6
sVanimacy
p4
VANIMATE
p5
sS'title'
p6
I00
sVtext
p7
Vhe
p8
sVisRepresentativeMention
p9
I00
sVnumber
p10
VSINGULAR
p11
sS'name_type'
p12
(lp13
sS'appositive'
p14
NsVstartIndex
p15
I5
sVsentNum
p16
I1
sVgender
p17
VMALE
p18
sVposition
p19
(lp20
I1
aI3
asS'syntax'
p21
S'np-subj'
p22
sVtype
p23
VPRONOMINAL
p24
sVid
p25
I7
sa(dp26
VendIndex
p27
I22
sVanimacy
p28
VANIMATE
p29
sg6
I00
sVtext
p30
Vhe
p31
sVisRepresentativeMention
p32
I00
sVnumber
p33
VSINGULAR
p34
sg12
(lp35
sg14
NsVstartIndex
p36
I21
sVsentNum
p37
I3
sVgender
p38
VMALE
p39
sVposition
p40
(lp41
I3
aI7
asg21
g22
sVtype
p42
VPRONOMINAL
p43
sVid
p44
I32
sa(dp45
VendIndex
p46
I17
sVanimacy
p47
VANIMATE
p48
sg6
I00
sVtext
p49
Vhis
p50
sVisRepresentativeMention
p51
I00
sVnumber
p52
VSINGULAR
p53
sg12
(lp54
sg14
NsVstartIndex
p55
I16
sVsentNum
p56
I4
sVgender
p57
VMALE
p58
sVposition
p59
(lp60
I4
aI6
asg21
S'subj-det'
p61
sVtype
p62
VPRONOMINAL
p63
sVid
p64
I39
sa(dp65
VendIndex
p66
I23
sVanimacy
p67
VANIMATE
p68
sg6
I00
sVtext
p69
Vhe
p70
sVisRepresentativeMention
p71
I00
sVnumber
p72
VSINGULAR
p73
sg12
(lp74
sg14
NsVstartIndex
p75
I22
sVsentNum
p76
I4
sVgender
p77
VMALE
p78
sVposition
p79
(lp80
I4
aI8
asg21
g22
sVtype
p81
VPRONOMINAL
p82
sVid
p83
I41
sa(dp84
VendIndex
p85
I26
sVanimacy
p86
VANIMATE
p87
sg6
I00
sVtext
p88
Vhe
p89
sVisRepresentativeMention
p90
I00
sVnumber
p91
VSINGULAR
p92
sg12
(lp93
sg14
NsVstartIndex
p94
I25
sVsentNum
p95
I18
sVgender
p96
VMALE
p97
sVposition
p98
(lp99
I18
aI9
asg21
g22
sVtype
p100
VPRONOMINAL
p101
sVid
p102
I134
sa(dp103
VendIndex
p104
I3
sVanimacy
p105
VANIMATE
p106
sg6
I00
sVtext
p107
VWe
p108
sVisRepresentativeMention
p109
I00
sVnumber
p110
VPLURAL
p111
sg12
(lp112
sg14
NsVstartIndex
p113
I2
sVsentNum
p114
I25
sVgender
p115
VUNKNOWN
p116
sVposition
p117
(lp118
I25
aI1
asg21
g22
sVtype
p119
VPRONOMINAL
p120
sVid
p121
I176
sa(dp122
VendIndex
p123
I2
sVanimacy
p124
VANIMATE
p125
sg6
I00
sVtext
p126
VAnschutz
p127
sVisRepresentativeMention
p128
I00
sVnumber
p129
VSINGULAR
p130
sg12
(lp131
S'surnames'
p132
asg14
NsVstartIndex
p133
I1
sVsentNum
p134
I1
sVgender
p135
VMALE
p136
sVposition
p137
(lp138
I1
aI1
asg21
g22
sVtype
p139
VPROPER
p140
sVid
p141
I1
sa(dp142
VendIndex
p143
I2
sVanimacy
p144
VANIMATE
p145
sg6
I00
sVtext
p146
VAnschutz
p147
sVisRepresentativeMention
p148
I00
sVnumber
p149
VSINGULAR
p150
sg12
(lp151
g132
asg14
(dp152
VendIndex
p153
I10
sVanimacy
p154
VANIMATE
p155
sg6
I00
sVtext
p156
Van influential developer in downtown Los Angeles
p157
sVisRepresentativeMention
p158
I00
sVnumber
p159
VSINGULAR
p160
sg12
(lp161
sg14
NsVstartIndex
p162
I3
sVsentNum
p163
I2
sVgender
p164
VUNKNOWN
p165
sVposition
p166
(lp167
I2
aI4
asVtype
p168
VNOMINAL
p169
sVid
p170
I17
ssVstartIndex
p171
I1
sVsentNum
p172
I2
sVgender
p173
VMALE
p174
sVposition
p175
(lp176
I2
aI1
asg21
g22
sVtype
p177
VPROPER
p178
sVid
p179
I13
sa(dp180
VendIndex
p181
I9
sVanimacy
p182
VANIMATE
p183
sg6
I00
sVtext
p184
Vthe Denver-based telecom company  Anschutz
p185
sVisRepresentativeMention
p186
I01
sVnumber
p187
VSINGULAR
p188
sg12
(lp189
sg14
NsVstartIndex
p190
I4
sVsentNum
p191
I3
sVgender
p192
VNEUTRAL
p193
sVposition
p194
(lp195
I3
aI3
asg21
g22
sVtype
p196
VPROPER
p197
sVid
p198
I29
sa(dp199
VendIndex
p200
I9
sVanimacy
p201
VANIMATE
p202
sg6
I01
sVtext
p203
VMr. Anschutz
p204
sVisRepresentativeMention
p205
I00
sVnumber
p206
VSINGULAR
p207
sg12
(lp208
g132
asg14
NsVstartIndex
p209
I7
sVsentNum
p210
I4
sVgender
p211
VMALE
p212
sVposition
p213
(lp214
I4
aI3
asg21
S'np-obj'
p215
sVtype
p216
VPROPER
p217
sVid
p218
I36
sa(dp219
VendIndex
p220
I36
sVanimacy
p221
VANIMATE
p222
sg6
I00
sVtext
p223
VAnschutz's
p224
sVisRepresentativeMention
p225
I00
sVnumber
p226
VSINGULAR
p227
sg12
(lp228
g132
asg14
NsVstartIndex
p229
I34
sVsentNum
p230
I4
sVgender
p231
VMALE
p232
sVposition
p233
(lp234
I4
aI11
asg21
g61
sVtype
p235
VPROPER
p236
sVid
p237
I33
sa(dp238
VendIndex
p239
I2
sVanimacy
p240
VANIMATE
p241
sg6
I00
sVtext
p242
VAnschutz
p243
sVisRepresentativeMention
p244
I00
sVnumber
p245
VSINGULAR
p246
sg12
(lp247
g132
asg14
NsVstartIndex
p248
I1
sVsentNum
p249
I5
sVgender
p250
VMALE
p251
sVposition
p252
(lp253
I5
aI1
asg21
g22
sVtype
p254
VPROPER
p255
sVid
p256
I45
sa(dp257
VendIndex
p258
I8
sVanimacy
p259
VANIMATE
p260
sg6
I00
sVtext
p261
VAnschutz
p262
sVisRepresentativeMention
p263
I00
sVnumber
p264
VSINGULAR
p265
sg12
(lp266
g132
asg14
NsVstartIndex
p267
I7
sVsentNum
p268
I14
sVgender
p269
VMALE
p270
sVposition
p271
(lp272
I14
aI3
asg21
g22
sVtype
p273
VPROPER
p274
sVid
p275
I101
sa(dp276
VendIndex
p277
I2
sVanimacy
p278
VANIMATE
p279
sg6
I00
sVtext
p280
VAnschutz
p281
sVisRepresentativeMention
p282
I00
sVnumber
p283
VSINGULAR
p284
sg12
(lp285
g132
asg14
NsVstartIndex
p286
I1
sVsentNum
p287
I18
sVgender
p288
VMALE
p289
sVposition
p290
(lp291
I18
aI1
asg21
g22
sVtype
p292
VPROPER
p293
sVid
p294
I126
sa(dp295
VendIndex
p296
I2
sVanimacy
p297
VANIMATE
p298
sg6
I00
sVtext
p299
VAnschutz
p300
sVisRepresentativeMention
p301
I00
sVnumber
p302
VSINGULAR
p303
sg12
(lp304
g132
asg14
NsVstartIndex
p305
I1
sVsentNum
p306
I20
sVgender
p307
VMALE
p308
sVposition
p309
(lp310
I20
aI1
asg21
g22
sVtype
p311
VPROPER
p312
sVid
p313
I140
sa(dp314
VendIndex
p315
I2
sVanimacy
p316
VANIMATE
p317
sg6
I00
sVtext
p318
VAnschutz
p319
sVisRepresentativeMention
p320
I00
sVnumber
p321
VSINGULAR
p322
sg12
(lp323
g132
asg14
NsVstartIndex
p324
I1
sVsentNum
p325
I23
sVgender
p326
VMALE
p327
sVposition
p328
(lp329
I23
aI1
asg21
g22
sVtype
p330
VPROPER
p331
sVid
p332
I152
sa(dp333
VendIndex
p334
I2
sVanimacy
p335
VANIMATE
p336
sg6
I00
sVtext
p337
VAnschutz
p338
sVisRepresentativeMention
p339
I00
sVnumber
p340
VSINGULAR
p341
sg12
(lp342
g132
asg14
NsVstartIndex
p343
I1
sVsentNum
p344
I24
sVgender
p345
VMALE
p346
sVposition
p347
(lp348
I24
aI1
asg21
g22
sVtype
p349
VPROPER
p350
sVid
p351
I163
sa.