(lp1
(dp2
VendIndex
p3
I12
sVanimacy
p4
VANIMATE
p5
sS'title'
p6
I00
sVtext
p7
Vhimself
p8
sVisRepresentativeMention
p9
I00
sVnumber
p10
VSINGULAR
p11
sS'name_type'
p12
(lp13
sS'appositive'
p14
NsVstartIndex
p15
I11
sVsentNum
p16
I16
sVgender
p17
VMALE
p18
sVposition
p19
(lp20
I16
aI4
asS'syntax'
p21
S'np-obj'
p22
sVtype
p23
VPRONOMINAL
p24
sVid
p25
I118
sa(dp26
VendIndex
p27
I5
sVanimacy
p28
VANIMATE
p29
sg6
I00
sVtext
p30
Vhe
p31
sVisRepresentativeMention
p32
I00
sVnumber
p33
VSINGULAR
p34
sg12
(lp35
sg14
NsVstartIndex
p36
I4
sVsentNum
p37
I17
sVgender
p38
VMALE
p39
sVposition
p40
(lp41
I17
aI2
asg21
S'np-subj'
p42
sVtype
p43
VPRONOMINAL
p44
sVid
p45
I120
sa(dp46
VendIndex
p47
I16
sVanimacy
p48
VANIMATE
p49
sg6
I00
sVtext
p50
Vhis
p51
sVisRepresentativeMention
p52
I00
sVnumber
p53
VSINGULAR
p54
sg12
(lp55
sg14
NsVstartIndex
p56
I15
sVsentNum
p57
I20
sVgender
p58
VMALE
p59
sVposition
p60
(lp61
I20
aI3
asg21
S'subj-det'
p62
sVtype
p63
VPRONOMINAL
p64
sVid
p65
I142
sa(dp66
VendIndex
p67
I6
sVanimacy
p68
VANIMATE
p69
sg6
I00
sVtext
p70
Vhis
p71
sVisRepresentativeMention
p72
I00
sVnumber
p73
VSINGULAR
p74
sg12
(lp75
sg14
NsVstartIndex
p76
I5
sVsentNum
p77
I25
sVgender
p78
VMALE
p79
sVposition
p80
(lp81
I25
aI4
asg21
g62
sVtype
p82
VPRONOMINAL
p83
sVid
p84
I179
sa(dp85
VendIndex
p86
I9
sVanimacy
p87
VANIMATE
p88
sg6
I00
sVtext
p89
Vhis
p90
sVisRepresentativeMention
p91
I00
sVnumber
p92
VSINGULAR
p93
sg12
(lp94
sg14
NsVstartIndex
p95
I8
sVsentNum
p96
I25
sVgender
p97
VMALE
p98
sVposition
p99
(lp100
I25
aI6
asg21
g62
sVtype
p101
VPRONOMINAL
p102
sVid
p103
I181
sa(dp104
VendIndex
p105
I12
sVanimacy
p106
VANIMATE
p107
sg6
I00
sVtext
p108
Vhis
p109
sVisRepresentativeMention
p110
I00
sVnumber
p111
VSINGULAR
p112
sg12
(lp113
sg14
NsVstartIndex
p114
I11
sVsentNum
p115
I25
sVgender
p116
VMALE
p117
sVposition
p118
(lp119
I25
aI8
asg21
g62
sVtype
p120
VPRONOMINAL
p121
sVid
p122
I183
sa(dp123
VendIndex
p124
I6
sVanimacy
p125
VANIMATE
p126
sg6
I00
sVtext
p127
Vhe
p128
sVisRepresentativeMention
p129
I00
sVnumber
p130
VSINGULAR
p131
sg12
(lp132
sg14
NsVstartIndex
p133
I5
sVsentNum
p134
I1
sVgender
p135
VMALE
p136
sVposition
p137
(lp138
I1
aI3
asg21
g42
sVtype
p139
VPRONOMINAL
p140
sVid
p141
I7
sa(dp142
VendIndex
p143
I17
sVanimacy
p144
VANIMATE
p145
sg6
I00
sVtext
p146
Vhe
p147
sVisRepresentativeMention
p148
I00
sVnumber
p149
VSINGULAR
p150
sg12
(lp151
sg14
NsVstartIndex
p152
I16
sVsentNum
p153
I1
sVgender
p154
VMALE
p155
sVposition
p156
(lp157
I1
aI7
asg21
g42
sVtype
p158
VPRONOMINAL
p159
sVid
p160
I10
sa(dp161
VendIndex
p162
I17
sVanimacy
p163
VANIMATE
p164
sg6
I00
sVtext
p165
Vhis
p166
sVisRepresentativeMention
p167
I00
sVnumber
p168
VSINGULAR
p169
sg12
(lp170
sg14
NsVstartIndex
p171
I16
sVsentNum
p172
I4
sVgender
p173
VMALE
p174
sVposition
p175
(lp176
I4
aI6
asg21
g62
sVtype
p177
VPRONOMINAL
p178
sVid
p179
I38
sa(dp180
VendIndex
p181
I23
sVanimacy
p182
VANIMATE
p183
sg6
I00
sVtext
p184
Vhe
p185
sVisRepresentativeMention
p186
I00
sVnumber
p187
VSINGULAR
p188
sg12
(lp189
sg14
NsVstartIndex
p190
I22
sVsentNum
p191
I4
sVgender
p192
VMALE
p193
sVposition
p194
(lp195
I4
aI8
asg21
g42
sVtype
p196
VPRONOMINAL
p197
sVid
p198
I40
sa(dp199
VendIndex
p200
I7
sVanimacy
p201
VANIMATE
p202
sg6
I00
sVtext
p203
VAnschutz  rarely grants on-the-record media interviews
p204
sVisRepresentativeMention
p205
I01
sVnumber
p206
VSINGULAR
p207
sg12
(lp208
sg14
NsVstartIndex
p209
I1
sVsentNum
p210
I16
sVgender
p211
VMALE
p212
sVposition
p213
(lp214
I16
aI1
asg21
g42
sVtype
p215
VPROPER
p216
sVid
p217
I115
sa(dp218
VendIndex
p219
I35
sVanimacy
p220
VANIMATE
p221
sg6
I00
sVtext
p222
VAnschutz
p223
sVisRepresentativeMention
p224
I00
sVnumber
p225
VSINGULAR
p226
sg12
(lp227
S'surnames'
p228
asg14
NsVstartIndex
p229
I34
sVsentNum
p230
I4
sVgender
p231
VMALE
p232
sVposition
p233
(lp234
I4
aI11
asg21
g62
sVtype
p235
VPROPER
p236
sVid
p237
I32
sa(dp238
VendIndex
p239
I2
sVanimacy
p240
VANIMATE
p241
sg6
I00
sVtext
p242
VAnschutz
p243
sVisRepresentativeMention
p244
I00
sVnumber
p245
VSINGULAR
p246
sg12
(lp247
g228
asg14
NsVstartIndex
p248
I1
sVsentNum
p249
I5
sVgender
p250
VMALE
p251
sVposition
p252
(lp253
I5
aI1
asg21
g42
sVtype
p254
VPROPER
p255
sVid
p256
I44
sa(dp257
VendIndex
p258
I20
sVanimacy
p259
VANIMATE
p260
sg6
I00
sVtext
p261
VAnschutz
p262
sVisRepresentativeMention
p263
I00
sVnumber
p264
VSINGULAR
p265
sg12
(lp266
g228
asg14
NsVstartIndex
p267
I19
sVsentNum
p268
I6
sVgender
p269
VMALE
p270
sVposition
p271
(lp272
I6
aI5
asg21
g42
sVtype
p273
VPROPER
p274
sVid
p275
I49
sa(dp276
VendIndex
p277
I2
sVanimacy
p278
VANIMATE
p279
sg6
I00
sVtext
p280
VAnschutz
p281
sVisRepresentativeMention
p282
I00
sVnumber
p283
VSINGULAR
p284
sg12
(lp285
g228
asg14
NsVstartIndex
p286
I1
sVsentNum
p287
I12
sVgender
p288
VMALE
p289
sVposition
p290
(lp291
I12
aI2
asg21
g62
sVtype
p292
VPROPER
p293
sVid
p294
I88
sa(dp295
VendIndex
p296
I2
sVanimacy
p297
VANIMATE
p298
sg6
I00
sVtext
p299
VAnschutz
p300
sVisRepresentativeMention
p301
I00
sVnumber
p302
VSINGULAR
p303
sg12
(lp304
g228
asg14
NsVstartIndex
p305
I1
sVsentNum
p306
I18
sVgender
p307
VMALE
p308
sVposition
p309
(lp310
I18
aI1
asg21
g42
sVtype
p311
VPROPER
p312
sVid
p313
I126
sa(dp314
VendIndex
p315
I2
sVanimacy
p316
VANIMATE
p317
sg6
I00
sVtext
p318
VAnschutz
p319
sVisRepresentativeMention
p320
I00
sVnumber
p321
VSINGULAR
p322
sg12
(lp323
g228
asg14
NsVstartIndex
p324
I1
sVsentNum
p325
I20
sVgender
p326
VMALE
p327
sVposition
p328
(lp329
I20
aI1
asg21
g42
sVtype
p330
VPROPER
p331
sVid
p332
I139
sa(dp333
VendIndex
p334
I2
sVanimacy
p335
VANIMATE
p336
sg6
I00
sVtext
p337
VAnschutz
p338
sVisRepresentativeMention
p339
I00
sVnumber
p340
VSINGULAR
p341
sg12
(lp342
g228
asg14
NsVstartIndex
p343
I1
sVsentNum
p344
I23
sVgender
p345
VMALE
p346
sVposition
p347
(lp348
I23
aI1
asg21
g42
sVtype
p349
VPROPER
p350
sVid
p351
I152
sa(dp352
VendIndex
p353
I2
sVanimacy
p354
VANIMATE
p355
sg6
I00
sVtext
p356
VAnschutz
p357
sVisRepresentativeMention
p358
I00
sVnumber
p359
VSINGULAR
p360
sg12
(lp361
g228
asg14
NsVstartIndex
p362
I1
sVsentNum
p363
I24
sVgender
p364
VMALE
p365
sVposition
p366
(lp367
I24
aI1
asg21
g42
sVtype
p368
VPROPER
p369
sVid
p370
I163
sa(dp371
VendIndex
p372
I2
sVanimacy
p373
VANIMATE
p374
sg6
I00
sVtext
p375
VAnschutz
p376
sVisRepresentativeMention
p377
I00
sVnumber
p378
VSINGULAR
p379
sg12
(lp380
g228
asg14
NsVstartIndex
p381
I1
sVsentNum
p382
I1
sVgender
p383
VMALE
p384
sVposition
p385
(lp386
I1
aI1
asg21
g42
sVtype
p387
VPROPER
p388
sVid
p389
I1
sa(dp390
VendIndex
p391
I2
sVanimacy
p392
VANIMATE
p393
sg6
I00
sVtext
p394
VAnschutz
p395
sVisRepresentativeMention
p396
I00
sVnumber
p397
VSINGULAR
p398
sg12
(lp399
g228
asg14
(dp400
VendIndex
p401
I10
sVanimacy
p402
VANIMATE
p403
sg6
I00
sVtext
p404
Van influential developer in downtown Los Angeles
p405
sVisRepresentativeMention
p406
I00
sVnumber
p407
VSINGULAR
p408
sg12
(lp409
sg14
NsVstartIndex
p410
I3
sVsentNum
p411
I2
sVgender
p412
VUNKNOWN
p413
sVposition
p414
(lp415
I2
aI4
asVtype
p416
VNOMINAL
p417
sVid
p418
I17
ssVstartIndex
p419
I1
sVsentNum
p420
I2
sVgender
p421
VMALE
p422
sVposition
p423
(lp424
I2
aI1
asg21
g42
sVtype
p425
VPROPER
p426
sVid
p427
I13
sa(dp428
VendIndex
p429
I9
sVanimacy
p430
VANIMATE
p431
sg6
I01
sVtext
p432
VMr. Anschutz
p433
sVisRepresentativeMention
p434
I01
sVnumber
p435
VSINGULAR
p436
sg12
(lp437
g228
asg14
NsVstartIndex
p438
I7
sVsentNum
p439
I4
sVgender
p440
VMALE
p441
sVposition
p442
(lp443
I4
aI3
asg21
g22
sVtype
p444
VPROPER
p445
sVid
p446
I35
sa.