(lp1
(dp2
VendIndex
p3
I19
sVanimacy
p4
VANIMATE
p5
sS'title'
p6
I00
sVtext
p7
Vhe
p8
sVisRepresentativeMention
p9
I00
sVnumber
p10
VSINGULAR
p11
sS'name_type'
p12
(lp13
sS'appositive'
p14
NsVstartIndex
p15
I18
sVsentNum
p16
I1
sVgender
p17
VMALE
p18
sVposition
p19
(lp20
I1
aI7
asS'syntax'
p21
S'np-subj'
p22
sVtype
p23
VPRONOMINAL
p24
sVid
p25
I10
sa(dp26
VendIndex
p27
I9
sVanimacy
p28
VANIMATE
p29
sg6
I00
sVtext
p30
Vhe
p31
sVisRepresentativeMention
p32
I00
sVnumber
p33
VSINGULAR
p34
sg12
(lp35
sg14
NsVstartIndex
p36
I8
sVsentNum
p37
I3
sVgender
p38
VMALE
p39
sVposition
p40
(lp41
I3
aI6
asg21
g22
sVtype
p42
VPRONOMINAL
p43
sVid
p44
I31
sa(dp45
VendIndex
p46
I22
sVanimacy
p47
VANIMATE
p48
sg6
I00
sVtext
p49
Vhe
p50
sVisRepresentativeMention
p51
I00
sVnumber
p52
VSINGULAR
p53
sg12
(lp54
sg14
NsVstartIndex
p55
I21
sVsentNum
p56
I3
sVgender
p57
VMALE
p58
sVposition
p59
(lp60
I3
aI9
asg21
g22
sVtype
p61
VPRONOMINAL
p62
sVid
p63
I34
sa(dp64
VendIndex
p65
I17
sVanimacy
p66
VANIMATE
p67
sg6
I00
sVtext
p68
Vhis
p69
sVisRepresentativeMention
p70
I00
sVnumber
p71
VSINGULAR
p72
sg12
(lp73
sg14
NsVstartIndex
p74
I16
sVsentNum
p75
I4
sVgender
p76
VMALE
p77
sVposition
p78
(lp79
I4
aI6
asg21
S'subj-det'
p80
sVtype
p81
VPRONOMINAL
p82
sVid
p83
I40
sa(dp84
VendIndex
p85
I23
sVanimacy
p86
VANIMATE
p87
sg6
I00
sVtext
p88
Vhe
p89
sVisRepresentativeMention
p90
I00
sVnumber
p91
VSINGULAR
p92
sg12
(lp93
sg14
NsVstartIndex
p94
I22
sVsentNum
p95
I4
sVgender
p96
VMALE
p97
sVposition
p98
(lp99
I4
aI8
asg21
g22
sVtype
p100
VPRONOMINAL
p101
sVid
p102
I42
sa(dp103
VendIndex
p104
I35
sVanimacy
p105
VANIMATE
p106
sg6
I00
sVtext
p107
Vhis
p108
sVisRepresentativeMention
p109
I00
sVnumber
p110
VSINGULAR
p111
sg12
(lp112
sg14
NsVstartIndex
p113
I34
sVsentNum
p114
I4
sVgender
p115
VMALE
p116
sVposition
p117
(lp118
I4
aI11
asg21
g80
sVtype
p119
VPRONOMINAL
p120
sVid
p121
I45
sa(dp122
VendIndex
p123
I26
sVanimacy
p124
VANIMATE
p125
sg6
I00
sVtext
p126
Vhe
p127
sVisRepresentativeMention
p128
I00
sVnumber
p129
VSINGULAR
p130
sg12
(lp131
sg14
NsVstartIndex
p132
I25
sVsentNum
p133
I18
sVgender
p134
VMALE
p135
sVposition
p136
(lp137
I18
aI9
asg21
g22
sVtype
p138
VPRONOMINAL
p139
sVid
p140
I140
sa(dp141
VendIndex
p142
I16
sVanimacy
p143
VANIMATE
p144
sg6
I00
sVtext
p145
Vhis
p146
sVisRepresentativeMention
p147
I00
sVnumber
p148
VSINGULAR
p149
sg12
(lp150
sg14
NsVstartIndex
p151
I15
sVsentNum
p152
I20
sVgender
p153
VMALE
p154
sVposition
p155
(lp156
I20
aI3
asg21
g80
sVtype
p157
VPRONOMINAL
p158
sVid
p159
I149
sa(dp160
VendIndex
p161
I3
sVanimacy
p162
VANIMATE
p163
sg6
I00
sVtext
p164
VWe
p165
sVisRepresentativeMention
p166
I00
sVnumber
p167
VPLURAL
p168
sg12
(lp169
sg14
NsVstartIndex
p170
I2
sVsentNum
p171
I25
sVgender
p172
VUNKNOWN
p173
sVposition
p174
(lp175
I25
aI1
asg21
g22
sVtype
p176
VPRONOMINAL
p177
sVid
p178
I183
sa(dp179
VendIndex
p180
I4
sVanimacy
p181
VANIMATE
p182
sg6
I00
sVtext
p183
VPhilip Frederick Anschutz
p184
sVisRepresentativeMention
p185
I01
sVnumber
p186
VSINGULAR
p187
sg12
(lp188
S'birthNames'
p189
asg14
NsVstartIndex
p190
I1
sVsentNum
p191
I1
sVgender
p192
VMALE
p193
sVposition
p194
(lp195
I1
aI1
asg21
g22
sVtype
p196
VPROPER
p197
sVid
p198
I1
sa(dp199
VendIndex
p200
I8
sVanimacy
p201
VANIMATE
p202
sg6
I00
sVtext
p203
VAnschutz
p204
sVisRepresentativeMention
p205
I00
sVnumber
p206
VSINGULAR
p207
sg12
(lp208
S'surnames'
p209
asg14
NsVstartIndex
p210
I7
sVsentNum
p211
I1
sVgender
p212
VMALE
p213
sVposition
p214
(lp215
I1
aI3
asg21
g22
sVtype
p216
VPROPER
p217
sVid
p218
I2
sa(dp219
VendIndex
p220
I2
sVanimacy
p221
VANIMATE
p222
sg6
I00
sVtext
p223
VAnschutz
p224
sVisRepresentativeMention
p225
I00
sVnumber
p226
VSINGULAR
p227
sg12
(lp228
g209
asg14
(dp229
VendIndex
p230
I10
sVanimacy
p231
VANIMATE
p232
sg6
I00
sVtext
p233
Van influential developer in downtown Los Angeles
p234
sVisRepresentativeMention
p235
I00
sVnumber
p236
VSINGULAR
p237
sg12
(lp238
sg14
NsVstartIndex
p239
I3
sVsentNum
p240
I2
sVgender
p241
VUNKNOWN
p242
sVposition
p243
(lp244
I2
aI4
asVtype
p245
VNOMINAL
p246
sVid
p247
I17
ssVstartIndex
p248
I1
sVsentNum
p249
I2
sVgender
p250
VMALE
p251
sVposition
p252
(lp253
I2
aI1
asg21
g22
sVtype
p254
VPROPER
p255
sVid
p256
I13
sa(dp257
VendIndex
p258
I9
sVanimacy
p259
VANIMATE
p260
sg6
I01
sVtext
p261
VMr. Anschutz
p262
sVisRepresentativeMention
p263
I00
sVnumber
p264
VSINGULAR
p265
sg12
(lp266
g209
asg14
NsVstartIndex
p267
I7
sVsentNum
p268
I4
sVgender
p269
VMALE
p270
sVposition
p271
(lp272
I4
aI3
asg21
S'np-obj'
p273
sVtype
p274
VPROPER
p275
sVid
p276
I37
sa(dp277
VendIndex
p278
I3
sVanimacy
p279
VANIMATE
p280
sg6
I00
sVtext
p281
VAnschutz
p282
sVisRepresentativeMention
p283
I00
sVnumber
p284
VSINGULAR
p285
sg12
(lp286
g209
asg14
NsVstartIndex
p287
I2
sVsentNum
p288
I5
sVgender
p289
VMALE
p290
sVposition
p291
(lp292
I5
aI1
asg21
g22
sVtype
p293
VPROPER
p294
sVid
p295
I47
sa(dp296
VendIndex
p297
I20
sVanimacy
p298
VANIMATE
p299
sg6
I00
sVtext
p300
VAnschutz
p301
sVisRepresentativeMention
p302
I00
sVnumber
p303
VSINGULAR
p304
sg12
(lp305
g209
asg14
NsVstartIndex
p306
I19
sVsentNum
p307
I6
sVgender
p308
VMALE
p309
sVposition
p310
(lp311
I6
aI5
asg21
g22
sVtype
p312
VPROPER
p313
sVid
p314
I53
sa(dp315
VendIndex
p316
I8
sVanimacy
p317
VANIMATE
p318
sg6
I00
sVtext
p319
VAnschutz
p320
sVisRepresentativeMention
p321
I00
sVnumber
p322
VSINGULAR
p323
sg12
(lp324
g209
asg14
NsVstartIndex
p325
I7
sVsentNum
p326
I14
sVgender
p327
VMALE
p328
sVposition
p329
(lp330
I14
aI3
asg21
g22
sVtype
p331
VPROPER
p332
sVid
p333
I105
sa(dp334
VendIndex
p335
I2
sVanimacy
p336
VANIMATE
p337
sg6
I00
sVtext
p338
VAnschutz
p339
sVisRepresentativeMention
p340
I00
sVnumber
p341
VSINGULAR
p342
sg12
(lp343
g209
asg14
NsVstartIndex
p344
I1
sVsentNum
p345
I18
sVgender
p346
VMALE
p347
sVposition
p348
(lp349
I18
aI1
asg21
g22
sVtype
p350
VPROPER
p351
sVid
p352
I132
sa(dp353
VendIndex
p354
I2
sVanimacy
p355
VANIMATE
p356
sg6
I00
sVtext
p357
VAnschutz
p358
sVisRepresentativeMention
p359
I00
sVnumber
p360
VSINGULAR
p361
sg12
(lp362
g209
asg14
NsVstartIndex
p363
I1
sVsentNum
p364
I20
sVgender
p365
VMALE
p366
sVposition
p367
(lp368
I20
aI1
asg21
g22
sVtype
p369
VPROPER
p370
sVid
p371
I146
sa(dp372
VendIndex
p373
I2
sVanimacy
p374
VANIMATE
p375
sg6
I00
sVtext
p376
VAnschutz
p377
sVisRepresentativeMention
p378
I00
sVnumber
p379
VSINGULAR
p380
sg12
(lp381
g209
asg14
NsVstartIndex
p382
I1
sVsentNum
p383
I23
sVgender
p384
VMALE
p385
sVposition
p386
(lp387
I23
aI1
asg21
g22
sVtype
p388
VPROPER
p389
sVid
p390
I159
sa(dp391
VendIndex
p392
I3
sVanimacy
p393
VANIMATE
p394
sg6
I01
sVtext
p395
VMr. Anschutz
p396
sVisRepresentativeMention
p397
I00
sVnumber
p398
VSINGULAR
p399
sg12
(lp400
g209
asg14
NsVstartIndex
p401
I1
sVsentNum
p402
I24
sVgender
p403
VMALE
p404
sVposition
p405
(lp406
I24
aI1
asg21
g22
sVtype
p407
VPROPER
p408
sVid
p409
I172
sa.