(lp1
(dp2
VendIndex
p3
I6
sVanimacy
p4
VANIMATE
p5
sS'title'
p6
I00
sVtext
p7
Vhe
p8
sVisRepresentativeMention
p9
I00
sVnumber
p10
VSINGULAR
p11
sS'name_type'
p12
(lp13
sS'appositive'
p14
NsVstartIndex
p15
I5
sVsentNum
p16
I1
sVgender
p17
VMALE
p18
sVposition
p19
(lp20
I1
aI3
asS'syntax'
p21
S'np-subj'
p22
sVtype
p23
VPRONOMINAL
p24
sVid
p25
I7
sa(dp26
VendIndex
p27
I17
sVanimacy
p28
VANIMATE
p29
sg6
I00
sVtext
p30
Vhe
p31
sVisRepresentativeMention
p32
I00
sVnumber
p33
VSINGULAR
p34
sg12
(lp35
sg14
NsVstartIndex
p36
I16
sVsentNum
p37
I1
sVgender
p38
VMALE
p39
sVposition
p40
(lp41
I1
aI7
asg21
g22
sVtype
p42
VPRONOMINAL
p43
sVid
p44
I10
sa(dp45
VendIndex
p46
I17
sVanimacy
p47
VANIMATE
p48
sg6
I00
sVtext
p49
Vhis
p50
sVisRepresentativeMention
p51
I00
sVnumber
p52
VSINGULAR
p53
sg12
(lp54
sg14
NsVstartIndex
p55
I16
sVsentNum
p56
I4
sVgender
p57
VMALE
p58
sVposition
p59
(lp60
I4
aI6
asg21
S'subj-det'
p61
sVtype
p62
VPRONOMINAL
p63
sVid
p64
I39
sa(dp65
VendIndex
p66
I23
sVanimacy
p67
VANIMATE
p68
sg6
I00
sVtext
p69
Vhe
p70
sVisRepresentativeMention
p71
I00
sVnumber
p72
VSINGULAR
p73
sg12
(lp74
sg14
NsVstartIndex
p75
I22
sVsentNum
p76
I4
sVgender
p77
VMALE
p78
sVposition
p79
(lp80
I4
aI8
asg21
g22
sVtype
p81
VPRONOMINAL
p82
sVid
p83
I41
sa(dp84
VendIndex
p85
I4
sVanimacy
p86
VANIMATE
p87
sg6
I00
sVtext
p88
Vhis
p89
sVisRepresentativeMention
p90
I00
sVnumber
p91
VSINGULAR
p92
sg12
(lp93
sg14
NsVstartIndex
p94
I3
sVsentNum
p95
I7
sVgender
p96
VMALE
p97
sVposition
p98
(lp99
I7
aI3
asg21
g61
sVtype
p100
VPRONOMINAL
p101
sVid
p102
I59
sa(dp103
VendIndex
p104
I13
sVanimacy
p105
VANIMATE
p106
sg6
I00
sVtext
p107
Vhe
p108
sVisRepresentativeMention
p109
I00
sVnumber
p110
VSINGULAR
p111
sg12
(lp112
sg14
NsVstartIndex
p113
I12
sVsentNum
p114
I7
sVgender
p115
VMALE
p116
sVposition
p117
(lp118
I7
aI5
asg21
g22
sVtype
p119
VPRONOMINAL
p120
sVid
p121
I61
sa(dp122
VendIndex
p123
I26
sVanimacy
p124
VANIMATE
p125
sg6
I00
sVtext
p126
Vhe
p127
sVisRepresentativeMention
p128
I00
sVnumber
p129
VSINGULAR
p130
sg12
(lp131
sg14
NsVstartIndex
p132
I25
sVsentNum
p133
I18
sVgender
p134
VMALE
p135
sVposition
p136
(lp137
I18
aI9
asg21
g22
sVtype
p138
VPRONOMINAL
p139
sVid
p140
I137
sa(dp141
VendIndex
p142
I16
sVanimacy
p143
VANIMATE
p144
sg6
I00
sVtext
p145
Vhis
p146
sVisRepresentativeMention
p147
I00
sVnumber
p148
VSINGULAR
p149
sg12
(lp150
sg14
NsVstartIndex
p151
I15
sVsentNum
p152
I20
sVgender
p153
VMALE
p154
sVposition
p155
(lp156
I20
aI3
asg21
g61
sVtype
p157
VPRONOMINAL
p158
sVid
p159
I146
sa(dp160
VendIndex
p161
I3
sVanimacy
p162
VANIMATE
p163
sg6
I00
sVtext
p164
VWe
p165
sVisRepresentativeMention
p166
I00
sVnumber
p167
VPLURAL
p168
sg12
(lp169
sg14
NsVstartIndex
p170
I2
sVsentNum
p171
I25
sVgender
p172
VUNKNOWN
p173
sVposition
p174
(lp175
I25
aI1
asg21
g22
sVtype
p176
VPRONOMINAL
p177
sVid
p178
I180
sa(dp179
VendIndex
p180
I2
sVanimacy
p181
VANIMATE
p182
sg6
I00
sVtext
p183
VAnschutz
p184
sVisRepresentativeMention
p185
I00
sVnumber
p186
VSINGULAR
p187
sg12
(lp188
S'surnames'
p189
asg14
NsVstartIndex
p190
I1
sVsentNum
p191
I1
sVgender
p192
VMALE
p193
sVposition
p194
(lp195
I1
aI1
asg21
g22
sVtype
p196
VPROPER
p197
sVid
p198
I1
sa(dp199
VendIndex
p200
I2
sVanimacy
p201
VANIMATE
p202
sg6
I00
sVtext
p203
VAnschutz
p204
sVisRepresentativeMention
p205
I00
sVnumber
p206
VSINGULAR
p207
sg12
(lp208
g189
asg14
(dp209
VendIndex
p210
I10
sVanimacy
p211
VANIMATE
p212
sg6
I00
sVtext
p213
Van influential developer in downtown Los Angeles
p214
sVisRepresentativeMention
p215
I00
sVnumber
p216
VSINGULAR
p217
sg12
(lp218
sg14
NsVstartIndex
p219
I3
sVsentNum
p220
I2
sVgender
p221
VUNKNOWN
p222
sVposition
p223
(lp224
I2
aI4
asVtype
p225
VNOMINAL
p226
sVid
p227
I17
ssVstartIndex
p228
I1
sVsentNum
p229
I2
sVgender
p230
VMALE
p231
sVposition
p232
(lp233
I2
aI1
asg21
g22
sVtype
p234
VPROPER
p235
sVid
p236
I13
sa(dp237
VendIndex
p238
I9
sVanimacy
p239
VANIMATE
p240
sg6
I00
sVtext
p241
Vthe Denver-based telecom company  Anschutz
p242
sVisRepresentativeMention
p243
I01
sVnumber
p244
VSINGULAR
p245
sg12
(lp246
sg14
NsVstartIndex
p247
I4
sVsentNum
p248
I3
sVgender
p249
VNEUTRAL
p250
sVposition
p251
(lp252
I3
aI3
asg21
g22
sVtype
p253
VPROPER
p254
sVid
p255
I30
sa(dp256
VendIndex
p257
I22
sVanimacy
p258
VANIMATE
p259
sg6
I00
sVtext
p260
VAnschutz
p261
sVisRepresentativeMention
p262
I00
sVnumber
p263
VSINGULAR
p264
sg12
(lp265
g189
asg14
NsVstartIndex
p266
I21
sVsentNum
p267
I3
sVgender
p268
VMALE
p269
sVposition
p270
(lp271
I3
aI7
asg21
g22
sVtype
p272
VPROPER
p273
sVid
p274
I27
sa(dp275
VendIndex
p276
I9
sVanimacy
p277
VANIMATE
p278
sg6
I01
sVtext
p279
VMr. Anschutz
p280
sVisRepresentativeMention
p281
I00
sVnumber
p282
VSINGULAR
p283
sg12
(lp284
g189
asg14
NsVstartIndex
p285
I7
sVsentNum
p286
I4
sVgender
p287
VMALE
p288
sVposition
p289
(lp290
I4
aI3
asg21
S'np-obj'
p291
sVtype
p292
VPROPER
p293
sVid
p294
I36
sa(dp295
VendIndex
p296
I2
sVanimacy
p297
VANIMATE
p298
sg6
I00
sVtext
p299
VAnschutz
p300
sVisRepresentativeMention
p301
I00
sVnumber
p302
VSINGULAR
p303
sg12
(lp304
g189
asg14
NsVstartIndex
p305
I1
sVsentNum
p306
I5
sVgender
p307
VMALE
p308
sVposition
p309
(lp310
I5
aI1
asg21
g22
sVtype
p311
VPROPER
p312
sVid
p313
I45
sa(dp314
VendIndex
p315
I20
sVanimacy
p316
VANIMATE
p317
sg6
I00
sVtext
p318
VAnschutz
p319
sVisRepresentativeMention
p320
I00
sVnumber
p321
VSINGULAR
p322
sg12
(lp323
g189
asg14
NsVstartIndex
p324
I19
sVsentNum
p325
I6
sVgender
p326
VMALE
p327
sVposition
p328
(lp329
I6
aI5
asg21
g22
sVtype
p330
VPROPER
p331
sVid
p332
I50
sa(dp333
VendIndex
p334
I2
sVanimacy
p335
VANIMATE
p336
sg6
I00
sVtext
p337
VAnschutz
p338
sVisRepresentativeMention
p339
I00
sVnumber
p340
VSINGULAR
p341
sg12
(lp342
g189
asg14
NsVstartIndex
p343
I1
sVsentNum
p344
I7
sVgender
p345
VMALE
p346
sVposition
p347
(lp348
I7
aI1
asg21
g22
sVtype
p349
VPROPER
p350
sVid
p351
I57
sa(dp352
VendIndex
p353
I8
sVanimacy
p354
VANIMATE
p355
sg6
I00
sVtext
p356
VAnschutz
p357
sVisRepresentativeMention
p358
I00
sVnumber
p359
VSINGULAR
p360
sg12
(lp361
g189
asg14
NsVstartIndex
p362
I7
sVsentNum
p363
I14
sVgender
p364
VMALE
p365
sVposition
p366
(lp367
I14
aI3
asg21
g22
sVtype
p368
VPROPER
p369
sVid
p370
I104
sa(dp371
VendIndex
p372
I5
sVanimacy
p373
VANIMATE
p374
sg6
I00
sVtext
p375
VThe last time  Anschutz
p376
sVisRepresentativeMention
p377
I00
sVnumber
p378
VSINGULAR
p379
sg12
(lp380
sg14
NsVstartIndex
p381
I1
sVsentNum
p382
I17
sVgender
p383
VNEUTRAL
p384
sVposition
p385
(lp386
I17
aI1
asg21
g22
sVtype
p387
VPROPER
p388
sVid
p389
I123
sa(dp390
VendIndex
p391
I2
sVanimacy
p392
VANIMATE
p393
sg6
I00
sVtext
p394
VAnschutz
p395
sVisRepresentativeMention
p396
I00
sVnumber
p397
VSINGULAR
p398
sg12
(lp399
g189
asg14
NsVstartIndex
p400
I1
sVsentNum
p401
I18
sVgender
p402
VMALE
p403
sVposition
p404
(lp405
I18
aI1
asg21
g22
sVtype
p406
VPROPER
p407
sVid
p408
I129
sa(dp409
VendIndex
p410
I2
sVanimacy
p411
VANIMATE
p412
sg6
I00
sVtext
p413
VAnschutz
p414
sVisRepresentativeMention
p415
I00
sVnumber
p416
VSINGULAR
p417
sg12
(lp418
g189
asg14
NsVstartIndex
p419
I1
sVsentNum
p420
I20
sVgender
p421
VMALE
p422
sVposition
p423
(lp424
I20
aI1
asg21
g22
sVtype
p425
VPROPER
p426
sVid
p427
I143
sa(dp428
VendIndex
p429
I2
sVanimacy
p430
VANIMATE
p431
sg6
I00
sVtext
p432
VAnschutz
p433
sVisRepresentativeMention
p434
I00
sVnumber
p435
VSINGULAR
p436
sg12
(lp437
g189
asg14
NsVstartIndex
p438
I1
sVsentNum
p439
I23
sVgender
p440
VMALE
p441
sVposition
p442
(lp443
I23
aI1
asg21
g22
sVtype
p444
VPROPER
p445
sVid
p446
I156
sa(dp447
VendIndex
p448
I2
sVanimacy
p449
VANIMATE
p450
sg6
I00
sVtext
p451
VAnschutz
p452
sVisRepresentativeMention
p453
I00
sVnumber
p454
VSINGULAR
p455
sg12
(lp456
g189
asg14
NsVstartIndex
p457
I1
sVsentNum
p458
I24
sVgender
p459
VMALE
p460
sVposition
p461
(lp462
I24
aI1
asg21
g22
sVtype
p463
VPROPER
p464
sVid
p465
I167
sa.