(lp1
(dp2
VendIndex
p3
I18
sVanimacy
p4
VANIMATE
p5
sS'title'
p6
I00
sVtext
p7
Vhe
p8
sVisRepresentativeMention
p9
I00
sVnumber
p10
VSINGULAR
p11
sS'name_type'
p12
(lp13
sS'appositive'
p14
NsVstartIndex
p15
I17
sVsentNum
p16
I1
sVgender
p17
VMALE
p18
sVposition
p19
(lp20
I1
aI6
asS'syntax'
p21
S'np-subj'
p22
sVtype
p23
VPRONOMINAL
p24
sVid
p25
I9
sa(dp26
VendIndex
p27
I9
sVanimacy
p28
VANIMATE
p29
sg6
I00
sVtext
p30
Vhe
p31
sVisRepresentativeMention
p32
I00
sVnumber
p33
VSINGULAR
p34
sg12
(lp35
sg14
NsVstartIndex
p36
I8
sVsentNum
p37
I3
sVgender
p38
VMALE
p39
sVposition
p40
(lp41
I3
aI6
asg21
g22
sVtype
p42
VPRONOMINAL
p43
sVid
p44
I31
sa(dp45
VendIndex
p46
I17
sVanimacy
p47
VANIMATE
p48
sg6
I00
sVtext
p49
Vhis
p50
sVisRepresentativeMention
p51
I00
sVnumber
p52
VSINGULAR
p53
sg12
(lp54
sg14
NsVstartIndex
p55
I16
sVsentNum
p56
I4
sVgender
p57
VMALE
p58
sVposition
p59
(lp60
I4
aI6
asg21
S'subj-det'
p61
sVtype
p62
VPRONOMINAL
p63
sVid
p64
I39
sa(dp65
VendIndex
p66
I23
sVanimacy
p67
VANIMATE
p68
sg6
I00
sVtext
p69
Vhe
p70
sVisRepresentativeMention
p71
I00
sVnumber
p72
VSINGULAR
p73
sg12
(lp74
sg14
NsVstartIndex
p75
I22
sVsentNum
p76
I4
sVgender
p77
VMALE
p78
sVposition
p79
(lp80
I4
aI8
asg21
g22
sVtype
p81
VPRONOMINAL
p82
sVid
p83
I41
sa(dp84
VendIndex
p85
I4
sVanimacy
p86
VANIMATE
p87
sg6
I00
sVtext
p88
Vhis
p89
sVisRepresentativeMention
p90
I00
sVnumber
p91
VSINGULAR
p92
sg12
(lp93
sg14
NsVstartIndex
p94
I3
sVsentNum
p95
I7
sVgender
p96
VMALE
p97
sVposition
p98
(lp99
I7
aI3
asg21
g61
sVtype
p100
VPRONOMINAL
p101
sVid
p102
I59
sa(dp103
VendIndex
p104
I13
sVanimacy
p105
VANIMATE
p106
sg6
I00
sVtext
p107
Vhe
p108
sVisRepresentativeMention
p109
I00
sVnumber
p110
VSINGULAR
p111
sg12
(lp112
sg14
NsVstartIndex
p113
I12
sVsentNum
p114
I7
sVgender
p115
VMALE
p116
sVposition
p117
(lp118
I7
aI5
asg21
g22
sVtype
p119
VPRONOMINAL
p120
sVid
p121
I61
sa(dp122
VendIndex
p123
I26
sVanimacy
p124
VANIMATE
p125
sg6
I00
sVtext
p126
Vhe
p127
sVisRepresentativeMention
p128
I00
sVnumber
p129
VSINGULAR
p130
sg12
(lp131
sg14
NsVstartIndex
p132
I25
sVsentNum
p133
I18
sVgender
p134
VMALE
p135
sVposition
p136
(lp137
I18
aI9
asg21
g22
sVtype
p138
VPRONOMINAL
p139
sVid
p140
I138
sa(dp141
VendIndex
p142
I16
sVanimacy
p143
VANIMATE
p144
sg6
I00
sVtext
p145
Vhis
p146
sVisRepresentativeMention
p147
I00
sVnumber
p148
VSINGULAR
p149
sg12
(lp150
sg14
NsVstartIndex
p151
I15
sVsentNum
p152
I20
sVgender
p153
VMALE
p154
sVposition
p155
(lp156
I20
aI3
asg21
g61
sVtype
p157
VPRONOMINAL
p158
sVid
p159
I147
sa(dp160
VendIndex
p161
I2
sVanimacy
p162
VANIMATE
p163
sg6
I00
sVtext
p164
VHe
p165
sVisRepresentativeMention
p166
I00
sVnumber
p167
VSINGULAR
p168
sg12
(lp169
sg14
NsVstartIndex
p170
I1
sVsentNum
p171
I23
sVgender
p172
VMALE
p173
sVposition
p174
(lp175
I23
aI1
asg21
g22
sVtype
p176
VPRONOMINAL
p177
sVid
p178
I160
sa(dp179
VendIndex
p180
I6
sVanimacy
p181
VANIMATE
p182
sg6
I00
sVtext
p183
Vhis
p184
sVisRepresentativeMention
p185
I00
sVnumber
p186
VSINGULAR
p187
sg12
(lp188
sg14
NsVstartIndex
p189
I5
sVsentNum
p190
I25
sVgender
p191
VMALE
p192
sVposition
p193
(lp194
I25
aI4
asg21
g61
sVtype
p195
VPRONOMINAL
p196
sVid
p197
I184
sa(dp198
VendIndex
p199
I9
sVanimacy
p200
VANIMATE
p201
sg6
I00
sVtext
p202
Vhis
p203
sVisRepresentativeMention
p204
I00
sVnumber
p205
VSINGULAR
p206
sg12
(lp207
sg14
NsVstartIndex
p208
I8
sVsentNum
p209
I25
sVgender
p210
VMALE
p211
sVposition
p212
(lp213
I25
aI6
asg21
g61
sVtype
p214
VPRONOMINAL
p215
sVid
p216
I186
sa(dp217
VendIndex
p218
I12
sVanimacy
p219
VANIMATE
p220
sg6
I00
sVtext
p221
Vhis
p222
sVisRepresentativeMention
p223
I00
sVnumber
p224
VSINGULAR
p225
sg12
(lp226
sg14
NsVstartIndex
p227
I11
sVsentNum
p228
I25
sVgender
p229
VMALE
p230
sVposition
p231
(lp232
I25
aI8
asg21
g61
sVtype
p233
VPRONOMINAL
p234
sVid
p235
I188
sa(dp236
VendIndex
p237
I5
sVanimacy
p238
VANIMATE
p239
sg6
I00
sVtext
p240
VThe last time  Anschutz
p241
sVisRepresentativeMention
p242
I01
sVnumber
p243
VSINGULAR
p244
sg12
(lp245
sg14
NsVstartIndex
p246
I1
sVsentNum
p247
I17
sVgender
p248
VNEUTRAL
p249
sVposition
p250
(lp251
I17
aI1
asg21
g22
sVtype
p252
VPROPER
p253
sVid
p254
I124
sa(dp255
VendIndex
p256
I7
sVanimacy
p257
VANIMATE
p258
sg6
I00
sVtext
p259
VPhillip Anschutz
p260
sVisRepresentativeMention
p261
I01
sVnumber
p262
VSINGULAR
p263
sg12
(lp264
S'foaf_names'
p265
aS'dbp_names'
p266
asg14
NsVstartIndex
p267
I5
sVsentNum
p268
I1
sVgender
p269
VMALE
p270
sVposition
p271
(lp272
I1
aI2
asg21
g22
sVtype
p273
VPROPER
p274
sVid
p275
I1
sa(dp276
VendIndex
p277
I2
sVanimacy
p278
VANIMATE
p279
sg6
I00
sVtext
p280
VAnschutz
p281
sVisRepresentativeMention
p282
I00
sVnumber
p283
VSINGULAR
p284
sg12
(lp285
S'surnames'
p286
asg14
(dp287
VendIndex
p288
I10
sVanimacy
p289
VANIMATE
p290
sg6
I00
sVtext
p291
Van influential developer in downtown Los Angeles
p292
sVisRepresentativeMention
p293
I00
sVnumber
p294
VSINGULAR
p295
sg12
(lp296
sg14
NsVstartIndex
p297
I3
sVsentNum
p298
I2
sVgender
p299
VUNKNOWN
p300
sVposition
p301
(lp302
I2
aI4
asVtype
p303
VNOMINAL
p304
sVid
p305
I16
ssVstartIndex
p306
I1
sVsentNum
p307
I2
sVgender
p308
VMALE
p309
sVposition
p310
(lp311
I2
aI1
asg21
g22
sVtype
p312
VPROPER
p313
sVid
p314
I12
sa(dp315
VendIndex
p316
I22
sVanimacy
p317
VANIMATE
p318
sg6
I00
sVtext
p319
VAnschutz
p320
sVisRepresentativeMention
p321
I00
sVnumber
p322
VSINGULAR
p323
sg12
(lp324
g286
asg14
NsVstartIndex
p325
I21
sVsentNum
p326
I3
sVgender
p327
VMALE
p328
sVposition
p329
(lp330
I3
aI9
asg21
g22
sVtype
p331
VPROPER
p332
sVid
p333
I26
sa(dp334
VendIndex
p335
I9
sVanimacy
p336
VANIMATE
p337
sg6
I01
sVtext
p338
VMr. Anschutz
p339
sVisRepresentativeMention
p340
I00
sVnumber
p341
VSINGULAR
p342
sg12
(lp343
g286
asg14
NsVstartIndex
p344
I7
sVsentNum
p345
I4
sVgender
p346
VMALE
p347
sVposition
p348
(lp349
I4
aI3
asg21
S'np-obj'
p350
sVtype
p351
VPROPER
p352
sVid
p353
I36
sa(dp354
VendIndex
p355
I2
sVanimacy
p356
VANIMATE
p357
sg6
I00
sVtext
p358
VAnschutz
p359
sVisRepresentativeMention
p360
I00
sVnumber
p361
VSINGULAR
p362
sg12
(lp363
g286
asg14
NsVstartIndex
p364
I1
sVsentNum
p365
I5
sVgender
p366
VMALE
p367
sVposition
p368
(lp369
I5
aI1
asg21
g22
sVtype
p370
VPROPER
p371
sVid
p372
I45
sa(dp373
VendIndex
p374
I2
sVanimacy
p375
VANIMATE
p376
sg6
I00
sVtext
p377
VAnschutz
p378
sVisRepresentativeMention
p379
I00
sVnumber
p380
VSINGULAR
p381
sg12
(lp382
g286
asg14
NsVstartIndex
p383
I1
sVsentNum
p384
I7
sVgender
p385
VMALE
p386
sVposition
p387
(lp388
I7
aI1
asg21
g22
sVtype
p389
VPROPER
p390
sVid
p391
I57
sa(dp392
VendIndex
p393
I8
sVanimacy
p394
VANIMATE
p395
sg6
I00
sVtext
p396
VAnschutz
p397
sVisRepresentativeMention
p398
I00
sVnumber
p399
VSINGULAR
p400
sg12
(lp401
g286
asg14
NsVstartIndex
p402
I7
sVsentNum
p403
I14
sVgender
p404
VMALE
p405
sVposition
p406
(lp407
I14
aI3
asg21
g22
sVtype
p408
VPROPER
p409
sVid
p410
I104
sa(dp411
VendIndex
p412
I2
sVanimacy
p413
VANIMATE
p414
sg6
I00
sVtext
p415
VAnschutz
p416
sVisRepresentativeMention
p417
I00
sVnumber
p418
VSINGULAR
p419
sg12
(lp420
g286
asg14
NsVstartIndex
p421
I1
sVsentNum
p422
I18
sVgender
p423
VMALE
p424
sVposition
p425
(lp426
I18
aI1
asg21
g22
sVtype
p427
VPROPER
p428
sVid
p429
I130
sa(dp430
VendIndex
p431
I2
sVanimacy
p432
VANIMATE
p433
sg6
I00
sVtext
p434
VAnschutz
p435
sVisRepresentativeMention
p436
I00
sVnumber
p437
VSINGULAR
p438
sg12
(lp439
g286
asg14
NsVstartIndex
p440
I1
sVsentNum
p441
I20
sVgender
p442
VMALE
p443
sVposition
p444
(lp445
I20
aI1
asg21
g22
sVtype
p446
VPROPER
p447
sVid
p448
I144
sa(dp449
VendIndex
p450
I2
sVanimacy
p451
VANIMATE
p452
sg6
I00
sVtext
p453
VAnschutz
p454
sVisRepresentativeMention
p455
I00
sVnumber
p456
VSINGULAR
p457
sg12
(lp458
g286
asg14
NsVstartIndex
p459
I1
sVsentNum
p460
I24
sVgender
p461
VMALE
p462
sVposition
p463
(lp464
I24
aI1
asg21
g22
sVtype
p465
VPROPER
p466
sVid
p467
I168
sa.