(lp1
(dp2
VendIndex
p3
I8
sVanimacy
p4
VANIMATE
p5
sS'title'
p6
I00
sVtext
p7
Vhe
p8
sVisRepresentativeMention
p9
I00
sVnumber
p10
VSINGULAR
p11
sS'name_type'
p12
(lp13
sS'appositive'
p14
NsVstartIndex
p15
I7
sVsentNum
p16
I1
sVgender
p17
VMALE
p18
sVposition
p19
(lp20
I1
aI3
asS'syntax'
p21
S'np-subj'
p22
sVtype
p23
VPRONOMINAL
p24
sVid
p25
I7
sa(dp26
VendIndex
p27
I19
sVanimacy
p28
VANIMATE
p29
sg6
I00
sVtext
p30
Vhe
p31
sVisRepresentativeMention
p32
I00
sVnumber
p33
VSINGULAR
p34
sg12
(lp35
sg14
NsVstartIndex
p36
I18
sVsentNum
p37
I1
sVgender
p38
VMALE
p39
sVposition
p40
(lp41
I1
aI7
asg21
g22
sVtype
p42
VPRONOMINAL
p43
sVid
p44
I10
sa(dp45
VendIndex
p46
I9
sVanimacy
p47
VANIMATE
p48
sg6
I00
sVtext
p49
Vhe
p50
sVisRepresentativeMention
p51
I00
sVnumber
p52
VSINGULAR
p53
sg12
(lp54
sg14
NsVstartIndex
p55
I8
sVsentNum
p56
I3
sVgender
p57
VMALE
p58
sVposition
p59
(lp60
I3
aI6
asg21
g22
sVtype
p61
VPRONOMINAL
p62
sVid
p63
I32
sa(dp64
VendIndex
p65
I17
sVanimacy
p66
VANIMATE
p67
sg6
I00
sVtext
p68
Vhis
p69
sVisRepresentativeMention
p70
I00
sVnumber
p71
VSINGULAR
p72
sg12
(lp73
sg14
NsVstartIndex
p74
I16
sVsentNum
p75
I4
sVgender
p76
VMALE
p77
sVposition
p78
(lp79
I4
aI6
asg21
S'subj-det'
p80
sVtype
p81
VPRONOMINAL
p82
sVid
p83
I40
sa(dp84
VendIndex
p85
I23
sVanimacy
p86
VANIMATE
p87
sg6
I00
sVtext
p88
Vhe
p89
sVisRepresentativeMention
p90
I00
sVnumber
p91
VSINGULAR
p92
sg12
(lp93
sg14
NsVstartIndex
p94
I22
sVsentNum
p95
I4
sVgender
p96
VMALE
p97
sVposition
p98
(lp99
I4
aI8
asg21
g22
sVtype
p100
VPRONOMINAL
p101
sVid
p102
I42
sa(dp103
VendIndex
p104
I35
sVanimacy
p105
VANIMATE
p106
sg6
I00
sVtext
p107
Vhis
p108
sVisRepresentativeMention
p109
I00
sVnumber
p110
VSINGULAR
p111
sg12
(lp112
sg14
NsVstartIndex
p113
I34
sVsentNum
p114
I4
sVgender
p115
VMALE
p116
sVposition
p117
(lp118
I4
aI11
asg21
g80
sVtype
p119
VPRONOMINAL
p120
sVid
p121
I45
sa(dp122
VendIndex
p123
I2
sVanimacy
p124
VANIMATE
p125
sg6
I00
sVtext
p126
VHis
p127
sVisRepresentativeMention
p128
I00
sVnumber
p129
VSINGULAR
p130
sg12
(lp131
sg14
NsVstartIndex
p132
I1
sVsentNum
p133
I12
sVgender
p134
VMALE
p135
sVposition
p136
(lp137
I12
aI2
asg21
g80
sVtype
p138
VPRONOMINAL
p139
sVid
p140
I94
sa(dp141
VendIndex
p142
I26
sVanimacy
p143
VANIMATE
p144
sg6
I00
sVtext
p145
Vhe
p146
sVisRepresentativeMention
p147
I00
sVnumber
p148
VSINGULAR
p149
sg12
(lp150
sg14
NsVstartIndex
p151
I25
sVsentNum
p152
I18
sVgender
p153
VMALE
p154
sVposition
p155
(lp156
I18
aI9
asg21
g22
sVtype
p157
VPRONOMINAL
p158
sVid
p159
I139
sa(dp160
VendIndex
p161
I16
sVanimacy
p162
VANIMATE
p163
sg6
I00
sVtext
p164
Vhis
p165
sVisRepresentativeMention
p166
I00
sVnumber
p167
VSINGULAR
p168
sg12
(lp169
sg14
NsVstartIndex
p170
I15
sVsentNum
p171
I20
sVgender
p172
VMALE
p173
sVposition
p174
(lp175
I20
aI3
asg21
g80
sVtype
p176
VPRONOMINAL
p177
sVid
p178
I148
sa(dp179
VendIndex
p180
I2
sVanimacy
p181
VANIMATE
p182
sg6
I00
sVtext
p183
VHe
p184
sVisRepresentativeMention
p185
I00
sVnumber
p186
VSINGULAR
p187
sg12
(lp188
sg14
NsVstartIndex
p189
I1
sVsentNum
p190
I24
sVgender
p191
VMALE
p192
sVposition
p193
(lp194
I24
aI1
asg21
g22
sVtype
p195
VPRONOMINAL
p196
sVid
p197
I171
sa(dp198
VendIndex
p199
I6
sVanimacy
p200
VANIMATE
p201
sg6
I00
sVtext
p202
Vhis
p203
sVisRepresentativeMention
p204
I00
sVnumber
p205
VSINGULAR
p206
sg12
(lp207
sg14
NsVstartIndex
p208
I5
sVsentNum
p209
I25
sVgender
p210
VMALE
p211
sVposition
p212
(lp213
I25
aI4
asg21
g80
sVtype
p214
VPRONOMINAL
p215
sVid
p216
I185
sa(dp217
VendIndex
p218
I9
sVanimacy
p219
VANIMATE
p220
sg6
I00
sVtext
p221
Vhis
p222
sVisRepresentativeMention
p223
I00
sVnumber
p224
VSINGULAR
p225
sg12
(lp226
sg14
NsVstartIndex
p227
I8
sVsentNum
p228
I25
sVgender
p229
VMALE
p230
sVposition
p231
(lp232
I25
aI6
asg21
g80
sVtype
p233
VPRONOMINAL
p234
sVid
p235
I187
sa(dp236
VendIndex
p237
I12
sVanimacy
p238
VANIMATE
p239
sg6
I00
sVtext
p240
Vhis
p241
sVisRepresentativeMention
p242
I00
sVnumber
p243
VSINGULAR
p244
sg12
(lp245
sg14
NsVstartIndex
p246
I11
sVsentNum
p247
I25
sVgender
p248
VMALE
p249
sVposition
p250
(lp251
I25
aI8
asg21
g80
sVtype
p252
VPRONOMINAL
p253
sVid
p254
I189
sa(dp255
VendIndex
p256
I5
sVanimacy
p257
VANIMATE
p258
sg6
I00
sVtext
p259
VThe last time  Anschutz
p260
sVisRepresentativeMention
p261
I01
sVnumber
p262
VSINGULAR
p263
sg12
(lp264
sg14
NsVstartIndex
p265
I1
sVsentNum
p266
I17
sVgender
p267
VNEUTRAL
p268
sVposition
p269
(lp270
I17
aI1
asg21
g22
sVtype
p271
VPROPER
p272
sVid
p273
I125
sa(dp274
VendIndex
p275
I4
sVanimacy
p276
VANIMATE
p277
sg6
I00
sVtext
p278
VPhilip Frederick Anschutz
p279
sVisRepresentativeMention
p280
I01
sVnumber
p281
VSINGULAR
p282
sg12
(lp283
S'birthNames'
p284
asg14
NsVstartIndex
p285
I1
sVsentNum
p286
I1
sVgender
p287
VMALE
p288
sVposition
p289
(lp290
I1
aI1
asg21
g22
sVtype
p291
VPROPER
p292
sVid
p293
I1
sa(dp294
VendIndex
p295
I2
sVanimacy
p296
VANIMATE
p297
sg6
I00
sVtext
p298
VAnschutz
p299
sVisRepresentativeMention
p300
I00
sVnumber
p301
VSINGULAR
p302
sg12
(lp303
S'surnames'
p304
asg14
(dp305
VendIndex
p306
I10
sVanimacy
p307
VANIMATE
p308
sg6
I00
sVtext
p309
Van influential developer in downtown Los Angeles
p310
sVisRepresentativeMention
p311
I00
sVnumber
p312
VSINGULAR
p313
sg12
(lp314
sg14
NsVstartIndex
p315
I3
sVsentNum
p316
I2
sVgender
p317
VUNKNOWN
p318
sVposition
p319
(lp320
I2
aI4
asVtype
p321
VNOMINAL
p322
sVid
p323
I17
ssVstartIndex
p324
I1
sVsentNum
p325
I2
sVgender
p326
VMALE
p327
sVposition
p328
(lp329
I2
aI1
asg21
g22
sVtype
p330
VPROPER
p331
sVid
p332
I13
sa(dp333
VendIndex
p334
I22
sVanimacy
p335
VANIMATE
p336
sg6
I00
sVtext
p337
VAnschutz
p338
sVisRepresentativeMention
p339
I00
sVnumber
p340
VSINGULAR
p341
sg12
(lp342
g304
asg14
NsVstartIndex
p343
I21
sVsentNum
p344
I3
sVgender
p345
VMALE
p346
sVposition
p347
(lp348
I3
aI9
asg21
g22
sVtype
p349
VPROPER
p350
sVid
p351
I27
sa(dp352
VendIndex
p353
I9
sVanimacy
p354
VANIMATE
p355
sg6
I01
sVtext
p356
VMr. Anschutz
p357
sVisRepresentativeMention
p358
I00
sVnumber
p359
VSINGULAR
p360
sg12
(lp361
g304
asg14
NsVstartIndex
p362
I7
sVsentNum
p363
I4
sVgender
p364
VMALE
p365
sVposition
p366
(lp367
I4
aI3
asg21
S'np-obj'
p368
sVtype
p369
VPROPER
p370
sVid
p371
I37
sa(dp372
VendIndex
p373
I2
sVanimacy
p374
VANIMATE
p375
sg6
I00
sVtext
p376
VAnschutz
p377
sVisRepresentativeMention
p378
I00
sVnumber
p379
VSINGULAR
p380
sg12
(lp381
g304
asg14
NsVstartIndex
p382
I1
sVsentNum
p383
I5
sVgender
p384
VMALE
p385
sVposition
p386
(lp387
I5
aI1
asg21
g22
sVtype
p388
VPROPER
p389
sVid
p390
I47
sa(dp391
VendIndex
p392
I20
sVanimacy
p393
VANIMATE
p394
sg6
I00
sVtext
p395
VAnschutz
p396
sVisRepresentativeMention
p397
I00
sVnumber
p398
VSINGULAR
p399
sg12
(lp400
g304
asg14
NsVstartIndex
p401
I19
sVsentNum
p402
I6
sVgender
p403
VMALE
p404
sVposition
p405
(lp406
I6
aI5
asg21
g22
sVtype
p407
VPROPER
p408
sVid
p409
I52
sa(dp410
VendIndex
p411
I3
sVanimacy
p412
VANIMATE
p413
sg6
I00
sVtext
p414
VAnschutz'
p415
sVisRepresentativeMention
p416
I00
sVnumber
p417
VSINGULAR
p418
sg12
(lp419
g304
asg14
NsVstartIndex
p420
I1
sVsentNum
p421
I10
sVgender
p422
VMALE
p423
sVposition
p424
(lp425
I10
aI2
asg21
g80
sVtype
p426
VPROPER
p427
sVid
p428
I80
sa(dp429
VendIndex
p430
I8
sVanimacy
p431
VANIMATE
p432
sg6
I00
sVtext
p433
VAnschutz
p434
sVisRepresentativeMention
p435
I00
sVnumber
p436
VSINGULAR
p437
sg12
(lp438
g304
asg14
NsVstartIndex
p439
I7
sVsentNum
p440
I14
sVgender
p441
VMALE
p442
sVposition
p443
(lp444
I14
aI3
asg21
g22
sVtype
p445
VPROPER
p446
sVid
p447
I107
sa(dp448
VendIndex
p449
I2
sVanimacy
p450
VANIMATE
p451
sg6
I00
sVtext
p452
VAnschutz
p453
sVisRepresentativeMention
p454
I00
sVnumber
p455
VSINGULAR
p456
sg12
(lp457
g304
asg14
NsVstartIndex
p458
I1
sVsentNum
p459
I18
sVgender
p460
VMALE
p461
sVposition
p462
(lp463
I18
aI1
asg21
g22
sVtype
p464
VPROPER
p465
sVid
p466
I131
sa(dp467
VendIndex
p468
I2
sVanimacy
p469
VANIMATE
p470
sg6
I00
sVtext
p471
VAnschutz
p472
sVisRepresentativeMention
p473
I00
sVnumber
p474
VSINGULAR
p475
sg12
(lp476
g304
asg14
NsVstartIndex
p477
I1
sVsentNum
p478
I20
sVgender
p479
VMALE
p480
sVposition
p481
(lp482
I20
aI1
asg21
g22
sVtype
p483
VPROPER
p484
sVid
p485
I145
sa(dp486
VendIndex
p487
I2
sVanimacy
p488
VANIMATE
p489
sg6
I00
sVtext
p490
VAnschutz
p491
sVisRepresentativeMention
p492
I00
sVnumber
p493
VSINGULAR
p494
sg12
(lp495
g304
asg14
NsVstartIndex
p496
I1
sVsentNum
p497
I23
sVgender
p498
VMALE
p499
sVposition
p500
(lp501
I23
aI1
asg21
g22
sVtype
p502
VPROPER
p503
sVid
p504
I158
sa.