(lp1
(dp2
VendIndex
p3
I8
sVanimacy
p4
VANIMATE
p5
sS'title'
p6
I00
sVtext
p7
Vhe
p8
sVisRepresentativeMention
p9
I00
sVnumber
p10
VSINGULAR
p11
sS'name_type'
p12
(lp13
sS'appositive'
p14
NsVstartIndex
p15
I7
sVsentNum
p16
I1
sVgender
p17
VMALE
p18
sVposition
p19
(lp20
I1
aI3
asS'syntax'
p21
S'np-subj'
p22
sVtype
p23
VPRONOMINAL
p24
sVid
p25
I7
sa(dp26
VendIndex
p27
I22
sVanimacy
p28
VANIMATE
p29
sg6
I00
sVtext
p30
Vhe
p31
sVisRepresentativeMention
p32
I00
sVnumber
p33
VSINGULAR
p34
sg12
(lp35
sg14
NsVstartIndex
p36
I21
sVsentNum
p37
I3
sVgender
p38
VMALE
p39
sVposition
p40
(lp41
I3
aI7
asg21
g22
sVtype
p42
VPRONOMINAL
p43
sVid
p44
I32
sa(dp45
VendIndex
p46
I17
sVanimacy
p47
VANIMATE
p48
sg6
I00
sVtext
p49
Vhis
p50
sVisRepresentativeMention
p51
I00
sVnumber
p52
VSINGULAR
p53
sg12
(lp54
sg14
NsVstartIndex
p55
I16
sVsentNum
p56
I4
sVgender
p57
VMALE
p58
sVposition
p59
(lp60
I4
aI6
asg21
S'subj-det'
p61
sVtype
p62
VPRONOMINAL
p63
sVid
p64
I38
sa(dp65
VendIndex
p66
I23
sVanimacy
p67
VANIMATE
p68
sg6
I00
sVtext
p69
Vhe
p70
sVisRepresentativeMention
p71
I00
sVnumber
p72
VSINGULAR
p73
sg12
(lp74
sg14
NsVstartIndex
p75
I22
sVsentNum
p76
I4
sVgender
p77
VMALE
p78
sVposition
p79
(lp80
I4
aI8
asg21
g22
sVtype
p81
VPRONOMINAL
p82
sVid
p83
I40
sa(dp84
VendIndex
p85
I35
sVanimacy
p86
VANIMATE
p87
sg6
I00
sVtext
p88
Vhis
p89
sVisRepresentativeMention
p90
I00
sVnumber
p91
VSINGULAR
p92
sg12
(lp93
sg14
NsVstartIndex
p94
I34
sVsentNum
p95
I4
sVgender
p96
VMALE
p97
sVposition
p98
(lp99
I4
aI11
asg21
g61
sVtype
p100
VPRONOMINAL
p101
sVid
p102
I43
sa(dp103
VendIndex
p104
I26
sVanimacy
p105
VANIMATE
p106
sg6
I00
sVtext
p107
Vhe
p108
sVisRepresentativeMention
p109
I00
sVnumber
p110
VSINGULAR
p111
sg12
(lp112
sg14
NsVstartIndex
p113
I25
sVsentNum
p114
I18
sVgender
p115
VMALE
p116
sVposition
p117
(lp118
I18
aI9
asg21
g22
sVtype
p119
VPRONOMINAL
p120
sVid
p121
I136
sa(dp122
VendIndex
p123
I2
sVanimacy
p124
VANIMATE
p125
sg6
I00
sVtext
p126
VHe
p127
sVisRepresentativeMention
p128
I00
sVnumber
p129
VSINGULAR
p130
sg12
(lp131
sg14
NsVstartIndex
p132
I1
sVsentNum
p133
I20
sVgender
p134
VMALE
p135
sVposition
p136
(lp137
I20
aI1
asg21
g22
sVtype
p138
VPRONOMINAL
p139
sVid
p140
I143
sa(dp141
VendIndex
p142
I2
sVanimacy
p143
VANIMATE
p144
sg6
I00
sVtext
p145
VHe
p146
sVisRepresentativeMention
p147
I00
sVnumber
p148
VSINGULAR
p149
sg12
(lp150
sg14
NsVstartIndex
p151
I1
sVsentNum
p152
I23
sVgender
p153
VMALE
p154
sVposition
p155
(lp156
I23
aI1
asg21
g22
sVtype
p157
VPRONOMINAL
p158
sVid
p159
I158
sa(dp160
VendIndex
p161
I6
sVanimacy
p162
VANIMATE
p163
sg6
I00
sVtext
p164
Vhis
p165
sVisRepresentativeMention
p166
I00
sVnumber
p167
VSINGULAR
p168
sg12
(lp169
sg14
NsVstartIndex
p170
I5
sVsentNum
p171
I25
sVgender
p172
VMALE
p173
sVposition
p174
(lp175
I25
aI4
asg21
g61
sVtype
p176
VPRONOMINAL
p177
sVid
p178
I182
sa(dp179
VendIndex
p180
I9
sVanimacy
p181
VANIMATE
p182
sg6
I00
sVtext
p183
Vhis
p184
sVisRepresentativeMention
p185
I00
sVnumber
p186
VSINGULAR
p187
sg12
(lp188
sg14
NsVstartIndex
p189
I8
sVsentNum
p190
I25
sVgender
p191
VMALE
p192
sVposition
p193
(lp194
I25
aI6
asg21
g61
sVtype
p195
VPRONOMINAL
p196
sVid
p197
I184
sa(dp198
VendIndex
p199
I12
sVanimacy
p200
VANIMATE
p201
sg6
I00
sVtext
p202
Vhis
p203
sVisRepresentativeMention
p204
I00
sVnumber
p205
VSINGULAR
p206
sg12
(lp207
sg14
NsVstartIndex
p208
I11
sVsentNum
p209
I25
sVgender
p210
VMALE
p211
sVposition
p212
(lp213
I25
aI8
asg21
g61
sVtype
p214
VPRONOMINAL
p215
sVid
p216
I186
sa(dp217
VendIndex
p218
I9
sVanimacy
p219
VANIMATE
p220
sg6
I00
sVtext
p221
Vthe Denver-based telecom company  Anschutz
p222
sVisRepresentativeMention
p223
I01
sVnumber
p224
VSINGULAR
p225
sg12
(lp226
sg14
NsVstartIndex
p227
I4
sVsentNum
p228
I3
sVgender
p229
VNEUTRAL
p230
sVposition
p231
(lp232
I3
aI3
asg21
g22
sVtype
p233
VPROPER
p234
sVid
p235
I29
sa(dp236
VendIndex
p237
I4
sVanimacy
p238
VANIMATE
p239
sg6
I00
sVtext
p240
VPhilip Frederick Anschutz
p241
sVisRepresentativeMention
p242
I01
sVnumber
p243
VSINGULAR
p244
sg12
(lp245
S'birthNames'
p246
asg14
NsVstartIndex
p247
I1
sVsentNum
p248
I1
sVgender
p249
VMALE
p250
sVposition
p251
(lp252
I1
aI1
asg21
g22
sVtype
p253
VPROPER
p254
sVid
p255
I1
sa(dp256
VendIndex
p257
I20
sVanimacy
p258
VANIMATE
p259
sg6
I01
sVtext
p260
VMr. Anschutz
p261
sVisRepresentativeMention
p262
I00
sVnumber
p263
VSINGULAR
p264
sg12
(lp265
S'surnames'
p266
asg14
NsVstartIndex
p267
I18
sVsentNum
p268
I1
sVgender
p269
VMALE
p270
sVposition
p271
(lp272
I1
aI7
asg21
g22
sVtype
p273
VPROPER
p274
sVid
p275
I10
sa(dp276
VendIndex
p277
I2
sVanimacy
p278
VANIMATE
p279
sg6
I00
sVtext
p280
VAnschutz
p281
sVisRepresentativeMention
p282
I00
sVnumber
p283
VSINGULAR
p284
sg12
(lp285
g266
asg14
(dp286
VendIndex
p287
I10
sVanimacy
p288
VANIMATE
p289
sg6
I00
sVtext
p290
Van influential developer in downtown Los Angeles
p291
sVisRepresentativeMention
p292
I00
sVnumber
p293
VSINGULAR
p294
sg12
(lp295
sg14
NsVstartIndex
p296
I3
sVsentNum
p297
I2
sVgender
p298
VUNKNOWN
p299
sVposition
p300
(lp301
I2
aI4
asVtype
p302
VNOMINAL
p303
sVid
p304
I17
ssVstartIndex
p305
I1
sVsentNum
p306
I2
sVgender
p307
VMALE
p308
sVposition
p309
(lp310
I2
aI1
asg21
g22
sVtype
p311
VPROPER
p312
sVid
p313
I13
sa(dp314
VendIndex
p315
I9
sVanimacy
p316
VANIMATE
p317
sg6
I01
sVtext
p318
VMr. Anschutz
p319
sVisRepresentativeMention
p320
I00
sVnumber
p321
VSINGULAR
p322
sg12
(lp323
g266
asg14
NsVstartIndex
p324
I7
sVsentNum
p325
I4
sVgender
p326
VMALE
p327
sVposition
p328
(lp329
I4
aI3
asg21
S'np-obj'
p330
sVtype
p331
VPROPER
p332
sVid
p333
I35
sa(dp334
VendIndex
p335
I4
sVanimacy
p336
VANIMATE
p337
sg6
I00
sVtext
p338
VPhilip Frederick Anschutz
p339
sVisRepresentativeMention
p340
I00
sVnumber
p341
VSINGULAR
p342
sg12
(lp343
g246
asg14
NsVstartIndex
p344
I1
sVsentNum
p345
I5
sVgender
p346
VMALE
p347
sVposition
p348
(lp349
I5
aI1
asg21
g22
sVtype
p350
VPROPER
p351
sVid
p352
I45
sa(dp353
VendIndex
p354
I2
sVanimacy
p355
VANIMATE
p356
sg6
I00
sVtext
p357
VAnschutz
p358
sVisRepresentativeMention
p359
I00
sVnumber
p360
VSINGULAR
p361
sg12
(lp362
g266
asg14
NsVstartIndex
p363
I1
sVsentNum
p364
I12
sVgender
p365
VMALE
p366
sVposition
p367
(lp368
I12
aI2
asg21
g61
sVtype
p369
VPROPER
p370
sVid
p371
I89
sa(dp372
VendIndex
p373
I2
sVanimacy
p374
VANIMATE
p375
sg6
I00
sVtext
p376
VAnschutz
p377
sVisRepresentativeMention
p378
I00
sVnumber
p379
VSINGULAR
p380
sg12
(lp381
g266
asg14
NsVstartIndex
p382
I1
sVsentNum
p383
I18
sVgender
p384
VMALE
p385
sVposition
p386
(lp387
I18
aI1
asg21
g22
sVtype
p388
VPROPER
p389
sVid
p390
I128
sa(dp391
VendIndex
p392
I2
sVanimacy
p393
VANIMATE
p394
sg6
I00
sVtext
p395
VPhilip
p396
sVisRepresentativeMention
p397
I00
sVnumber
p398
VSINGULAR
p399
sg12
(lp400
S'givenNames'
p401
asg14
NsVstartIndex
p402
I1
sVsentNum
p403
I24
sVgender
p404
VMALE
p405
sVposition
p406
(lp407
I24
aI1
asg21
g22
sVtype
p408
VPROPER
p409
sVid
p410
I166
sa.