(lp1
(dp2
VendIndex
p3
I17
sVanimacy
p4
VANIMATE
p5
sS'title'
p6
I00
sVtext
p7
Vhis
p8
sVisRepresentativeMention
p9
I00
sVnumber
p10
VSINGULAR
p11
sS'name_type'
p12
(lp13
sS'appositive'
p14
NsVstartIndex
p15
I16
sVsentNum
p16
I4
sVgender
p17
VMALE
p18
sVposition
p19
(lp20
I4
aI6
asS'syntax'
p21
S'subj-det'
p22
sVtype
p23
VPRONOMINAL
p24
sVid
p25
I41
sa(dp26
VendIndex
p27
I23
sVanimacy
p28
VANIMATE
p29
sg6
I00
sVtext
p30
Vhe
p31
sVisRepresentativeMention
p32
I00
sVnumber
p33
VSINGULAR
p34
sg12
(lp35
sg14
NsVstartIndex
p36
I22
sVsentNum
p37
I4
sVgender
p38
VMALE
p39
sVposition
p40
(lp41
I4
aI8
asg21
S'np-subj'
p42
sVtype
p43
VPRONOMINAL
p44
sVid
p45
I43
sa(dp46
VendIndex
p47
I17
sVanimacy
p48
VANIMATE
p49
sg6
I00
sVtext
p50
Vhis
p51
sVisRepresentativeMention
p52
I00
sVnumber
p53
VSINGULAR
p54
sg12
(lp55
sg14
NsVstartIndex
p56
I16
sVsentNum
p57
I20
sVgender
p58
VMALE
p59
sVposition
p60
(lp61
I20
aI3
asg21
g22
sVtype
p62
VPRONOMINAL
p63
sVid
p64
I146
sa(dp65
VendIndex
p66
I2
sVanimacy
p67
VANIMATE
p68
sg6
I00
sVtext
p69
VHe
p70
sVisRepresentativeMention
p71
I00
sVnumber
p72
VSINGULAR
p73
sg12
(lp74
sg14
NsVstartIndex
p75
I1
sVsentNum
p76
I23
sVgender
p77
VMALE
p78
sVposition
p79
(lp80
I23
aI1
asg21
g42
sVtype
p81
VPRONOMINAL
p82
sVid
p83
I159
sa(dp84
VendIndex
p85
I6
sVanimacy
p86
VANIMATE
p87
sg6
I00
sVtext
p88
Vhis
p89
sVisRepresentativeMention
p90
I00
sVnumber
p91
VSINGULAR
p92
sg12
(lp93
sg14
NsVstartIndex
p94
I5
sVsentNum
p95
I25
sVgender
p96
VMALE
p97
sVposition
p98
(lp99
I25
aI4
asg21
g22
sVtype
p100
VPRONOMINAL
p101
sVid
p102
I183
sa(dp103
VendIndex
p104
I9
sVanimacy
p105
VANIMATE
p106
sg6
I00
sVtext
p107
Vhis
p108
sVisRepresentativeMention
p109
I00
sVnumber
p110
VSINGULAR
p111
sg12
(lp112
sg14
NsVstartIndex
p113
I8
sVsentNum
p114
I25
sVgender
p115
VMALE
p116
sVposition
p117
(lp118
I25
aI6
asg21
g22
sVtype
p119
VPRONOMINAL
p120
sVid
p121
I185
sa(dp122
VendIndex
p123
I12
sVanimacy
p124
VANIMATE
p125
sg6
I00
sVtext
p126
Vhis
p127
sVisRepresentativeMention
p128
I00
sVnumber
p129
VSINGULAR
p130
sg12
(lp131
sg14
NsVstartIndex
p132
I11
sVsentNum
p133
I25
sVgender
p134
VMALE
p135
sVposition
p136
(lp137
I25
aI8
asg21
g22
sVtype
p138
VPRONOMINAL
p139
sVid
p140
I187
sa(dp141
VendIndex
p142
I8
sVanimacy
p143
VANIMATE
p144
sg6
I00
sVtext
p145
Vhe
p146
sVisRepresentativeMention
p147
I00
sVnumber
p148
VSINGULAR
p149
sg12
(lp150
sg14
NsVstartIndex
p151
I7
sVsentNum
p152
I1
sVgender
p153
VMALE
p154
sVposition
p155
(lp156
I1
aI3
asg21
g42
sVtype
p157
VPRONOMINAL
p158
sVid
p159
I7
sa(dp160
VendIndex
p161
I9
sVanimacy
p162
VANIMATE
p163
sg6
I00
sVtext
p164
Vhe
p165
sVisRepresentativeMention
p166
I00
sVnumber
p167
VSINGULAR
p168
sg12
(lp169
sg14
NsVstartIndex
p170
I8
sVsentNum
p171
I3
sVgender
p172
VMALE
p173
sVposition
p174
(lp175
I3
aI6
asg21
g42
sVtype
p176
VPRONOMINAL
p177
sVid
p178
I31
sa(dp179
VendIndex
p180
I27
sVanimacy
p181
VANIMATE
p182
sg6
I00
sVtext
p183
Vhe
p184
sVisRepresentativeMention
p185
I00
sVnumber
p186
VSINGULAR
p187
sg12
(lp188
sg14
NsVstartIndex
p189
I26
sVsentNum
p190
I18
sVgender
p191
VMALE
p192
sVposition
p193
(lp194
I18
aI9
asg21
g42
sVtype
p195
VPRONOMINAL
p196
sVid
p197
I137
sa(dp198
VendIndex
p199
I20
sVanimacy
p200
VANIMATE
p201
sg6
I01
sVtext
p202
VMr Anschutz
p203
sVisRepresentativeMention
p204
I01
sVnumber
p205
VSINGULAR
p206
sg12
(lp207
S'surnames'
p208
asg14
NsVstartIndex
p209
I18
sVsentNum
p210
I1
sVgender
p211
VMALE
p212
sVposition
p213
(lp214
I1
aI7
asg21
g42
sVtype
p215
VPROPER
p216
sVid
p217
I10
sa(dp218
VendIndex
p219
I23
sVanimacy
p220
VANIMATE
p221
sg6
I01
sVtext
p222
VMr Anschutz
p223
sVisRepresentativeMention
p224
I00
sVnumber
p225
VSINGULAR
p226
sg12
(lp227
g208
asg14
NsVstartIndex
p228
I21
sVsentNum
p229
I3
sVgender
p230
VMALE
p231
sVposition
p232
(lp233
I3
aI9
asg21
g42
sVtype
p234
VPROPER
p235
sVid
p236
I34
sa(dp237
VendIndex
p238
I9
sVanimacy
p239
VANIMATE
p240
sg6
I01
sVtext
p241
VMr. Anschutz
p242
sVisRepresentativeMention
p243
I00
sVnumber
p244
VSINGULAR
p245
sg12
(lp246
g208
asg14
NsVstartIndex
p247
I7
sVsentNum
p248
I4
sVgender
p249
VMALE
p250
sVposition
p251
(lp252
I4
aI3
asg21
S'np-obj'
p253
sVtype
p254
VPROPER
p255
sVid
p256
I38
sa(dp257
VendIndex
p258
I3
sVanimacy
p259
VANIMATE
p260
sg6
I01
sVtext
p261
VMr Anschutz
p262
sVisRepresentativeMention
p263
I00
sVnumber
p264
VSINGULAR
p265
sg12
(lp266
g208
asg14
NsVstartIndex
p267
I1
sVsentNum
p268
I20
sVgender
p269
VMALE
p270
sVposition
p271
(lp272
I20
aI1
asg21
g42
sVtype
p273
VPROPER
p274
sVid
p275
I144
sa(dp276
VendIndex
p277
I3
sVanimacy
p278
VANIMATE
p279
sg6
I01
sVtext
p280
VMr Anschutz
p281
sVisRepresentativeMention
p282
I00
sVnumber
p283
VSINGULAR
p284
sg12
(lp285
g208
asg14
NsVstartIndex
p286
I1
sVsentNum
p287
I24
sVgender
p288
VMALE
p289
sVposition
p290
(lp291
I24
aI1
asg21
g42
sVtype
p292
VPROPER
p293
sVid
p294
I169
sa(dp295
VendIndex
p296
I4
sVanimacy
p297
VANIMATE
p298
sg6
I00
sVtext
p299
VPhilip Frederick Anschutz
p300
sVisRepresentativeMention
p301
I01
sVnumber
p302
VSINGULAR
p303
sg12
(lp304
S'birthNames'
p305
asg14
NsVstartIndex
p306
I1
sVsentNum
p307
I1
sVgender
p308
VMALE
p309
sVposition
p310
(lp311
I1
aI1
asg21
g42
sVtype
p312
VPROPER
p313
sVid
p314
I1
sa(dp315
VendIndex
p316
I3
sVanimacy
p317
VANIMATE
p318
sg6
I00
sVtext
p319
VPhilip  Anschutz
p320
sVisRepresentativeMention
p321
I00
sVnumber
p322
VSINGULAR
p323
sg12
(lp324
S'foaf_names'
p325
aS'dbp_names'
p326
asg14
(dp327
VendIndex
p328
I11
sVanimacy
p329
VANIMATE
p330
sg6
I00
sVtext
p331
Van influential developer in downtown Los Angeles
p332
sVisRepresentativeMention
p333
I00
sVnumber
p334
VSINGULAR
p335
sg12
(lp336
sg14
NsVstartIndex
p337
I4
sVsentNum
p338
I2
sVgender
p339
VUNKNOWN
p340
sVposition
p341
(lp342
I2
aI4
asVtype
p343
VNOMINAL
p344
sVid
p345
I17
ssVstartIndex
p346
I1
sVsentNum
p347
I2
sVgender
p348
VMALE
p349
sVposition
p350
(lp351
I2
aI1
asg21
g42
sVtype
p352
VPROPER
p353
sVid
p354
I13
sa(dp355
VendIndex
p356
I38
sVanimacy
p357
VANIMATE
p358
sg6
I00
sVtext
p359
VPhilip Frederick Anschutz's
p360
sVisRepresentativeMention
p361
I00
sVnumber
p362
VSINGULAR
p363
sg12
(lp364
g305
asg14
NsVstartIndex
p365
I34
sVsentNum
p366
I4
sVgender
p367
VMALE
p368
sVposition
p369
(lp370
I4
aI11
asg21
g22
sVtype
p371
VPROPER
p372
sVid
p373
I35
sa(dp374
VendIndex
p375
I3
sVanimacy
p376
VANIMATE
p377
sg6
I00
sVtext
p378
VPhilip  Anschutz
p379
sVisRepresentativeMention
p380
I00
sVnumber
p381
VSINGULAR
p382
sg12
(lp383
g325
ag326
asg14
NsVstartIndex
p384
I1
sVsentNum
p385
I5
sVgender
p386
VMALE
p387
sVposition
p388
(lp389
I5
aI1
asg21
g42
sVtype
p390
VPROPER
p391
sVid
p392
I47
sa(dp393
VendIndex
p394
I3
sVanimacy
p395
VANIMATE
p396
sg6
I00
sVtext
p397
VPhilip Anschutz
p398
sVisRepresentativeMention
p399
I00
sVnumber
p400
VSINGULAR
p401
sg12
(lp402
g325
ag326
asg14
NsVstartIndex
p403
I1
sVsentNum
p404
I18
sVgender
p405
VMALE
p406
sVposition
p407
(lp408
I18
aI1
asg21
g42
sVtype
p409
VPROPER
p410
sVid
p411
I129
sa.