(lp1
(dp2
VendIndex
p3
I8
sVanimacy
p4
VANIMATE
p5
sS'title'
p6
I00
sVtext
p7
Vher
p8
sVisRepresentativeMention
p9
I00
sVnumber
p10
VSINGULAR
p11
sS'name_type'
p12
(lp13
sS'appositive'
p14
NsVstartIndex
p15
I7
sVsentNum
p16
I7
sVgender
p17
VFEMALE
p18
sVposition
p19
(lp20
I7
aI4
asS'syntax'
p21
S'subj-det'
p22
sVtype
p23
VPRONOMINAL
p24
sVid
p25
I51
sa(dp26
VendIndex
p27
I19
sVanimacy
p28
VANIMATE
p29
sg6
I00
sVtext
p30
Vshe
p31
sVisRepresentativeMention
p32
I00
sVnumber
p33
VSINGULAR
p34
sg12
(lp35
sg14
NsVstartIndex
p36
I18
sVsentNum
p37
I7
sVgender
p38
VFEMALE
p39
sVposition
p40
(lp41
I7
aI8
asg21
S'np-subj'
p42
sVtype
p43
VPRONOMINAL
p44
sVid
p45
I54
sa(dp46
VendIndex
p47
I21
sVanimacy
p48
VANIMATE
p49
sg6
I00
sVtext
p50
Vher
p51
sVisRepresentativeMention
p52
I00
sVnumber
p53
VSINGULAR
p54
sg12
(lp55
sg14
NsVstartIndex
p56
I20
sVsentNum
p57
I7
sVgender
p58
VFEMALE
p59
sVposition
p60
(lp61
I7
aI10
asg21
g22
sVtype
p62
VPRONOMINAL
p63
sVid
p64
I56
sa(dp65
VendIndex
p66
I9
sVanimacy
p67
VANIMATE
p68
sg6
I00
sVtext
p69
Vshe
p70
sVisRepresentativeMention
p71
I00
sVnumber
p72
VSINGULAR
p73
sg12
(lp74
sg14
NsVstartIndex
p75
I8
sVsentNum
p76
I8
sVgender
p77
VFEMALE
p78
sVposition
p79
(lp80
I8
aI3
asg21
g42
sVtype
p81
VPRONOMINAL
p82
sVid
p83
I61
sa(dp84
VendIndex
p85
I5
sVanimacy
p86
VANIMATE
p87
sg6
I00
sVtext
p88
Vshe
p89
sVisRepresentativeMention
p90
I00
sVnumber
p91
VSINGULAR
p92
sg12
(lp93
sg14
NsVstartIndex
p94
I4
sVsentNum
p95
I14
sVgender
p96
VFEMALE
p97
sVposition
p98
(lp99
I14
aI1
asg21
g42
sVtype
p100
VPRONOMINAL
p101
sVid
p102
I91
sa(dp103
VendIndex
p104
I2
sVanimacy
p105
VANIMATE
p106
sg6
I00
sVtext
p107
VHer
p108
sVisRepresentativeMention
p109
I00
sVnumber
p110
VSINGULAR
p111
sg12
(lp112
sg14
NsVstartIndex
p113
I1
sVsentNum
p114
I15
sVgender
p115
VFEMALE
p116
sVposition
p117
(lp118
I15
aI2
asg21
g22
sVtype
p119
VPRONOMINAL
p120
sVid
p121
I98
sa(dp122
VendIndex
p123
I6
sVanimacy
p124
VANIMATE
p125
sg6
I00
sVtext
p126
Vher
p127
sVisRepresentativeMention
p128
I00
sVnumber
p129
VSINGULAR
p130
sg12
(lp131
sg14
NsVstartIndex
p132
I5
sVsentNum
p133
I16
sVgender
p134
VFEMALE
p135
sVposition
p136
(lp137
I16
aI4
asg21
g22
sVtype
p138
VPRONOMINAL
p139
sVid
p140
I104
sa(dp141
VendIndex
p142
I22
sVanimacy
p143
VANIMATE
p144
sg6
I00
sVtext
p145
Vher
p146
sVisRepresentativeMention
p147
I00
sVnumber
p148
VSINGULAR
p149
sg12
(lp150
sg14
NsVstartIndex
p151
I21
sVsentNum
p152
I18
sVgender
p153
VFEMALE
p154
sVposition
p155
(lp156
I18
aI7
asg21
g22
sVtype
p157
VPRONOMINAL
p158
sVid
p159
I122
sa(dp160
VendIndex
p161
I2
sVanimacy
p162
VANIMATE
p163
sg6
I00
sVtext
p164
VShe
p165
sVisRepresentativeMention
p166
I00
sVnumber
p167
VSINGULAR
p168
sg12
(lp169
sg14
NsVstartIndex
p170
I1
sVsentNum
p171
I19
sVgender
p172
VFEMALE
p173
sVposition
p174
(lp175
I19
aI1
asg21
g42
sVtype
p176
VPRONOMINAL
p177
sVid
p178
I127
sa(dp179
VendIndex
p180
I4
sVanimacy
p181
VANIMATE
p182
sg6
I00
sVtext
p183
Vher
p184
sVisRepresentativeMention
p185
I00
sVnumber
p186
VSINGULAR
p187
sg12
(lp188
sg14
NsVstartIndex
p189
I3
sVsentNum
p190
I19
sVgender
p191
VFEMALE
p192
sVposition
p193
(lp194
I19
aI3
asg21
g22
sVtype
p195
VPRONOMINAL
p196
sVid
p197
I129
sa(dp198
VendIndex
p199
I10
sVanimacy
p200
VANIMATE
p201
sg6
I00
sVtext
p202
Vshe
p203
sVisRepresentativeMention
p204
I00
sVnumber
p205
VSINGULAR
p206
sg12
(lp207
sg14
NsVstartIndex
p208
I9
sVsentNum
p209
I19
sVgender
p210
VFEMALE
p211
sVposition
p212
(lp213
I19
aI5
asg21
g42
sVtype
p214
VPRONOMINAL
p215
sVid
p216
I130
sa(dp217
VendIndex
p218
I6
sVanimacy
p219
VANIMATE
p220
sg6
I00
sVtext
p221
Vshe
p222
sVisRepresentativeMention
p223
I00
sVnumber
p224
VSINGULAR
p225
sg12
(lp226
sg14
NsVstartIndex
p227
I5
sVsentNum
p228
I20
sVgender
p229
VFEMALE
p230
sVposition
p231
(lp232
I20
aI2
asg21
g42
sVtype
p233
VPRONOMINAL
p234
sVid
p235
I137
sa(dp236
VendIndex
p237
I10
sVanimacy
p238
VANIMATE
p239
sg6
I00
sVtext
p240
Vher
p241
sVisRepresentativeMention
p242
I00
sVnumber
p243
VSINGULAR
p244
sg12
(lp245
sg14
NsVstartIndex
p246
I9
sVsentNum
p247
I20
sVgender
p248
VFEMALE
p249
sVposition
p250
(lp251
I20
aI4
asg21
g22
sVtype
p252
VPRONOMINAL
p253
sVid
p254
I139
sa(dp255
VendIndex
p256
I2
sVanimacy
p257
VANIMATE
p258
sg6
I00
sVtext
p259
VShe
p260
sVisRepresentativeMention
p261
I00
sVnumber
p262
VSINGULAR
p263
sg12
(lp264
sg14
NsVstartIndex
p265
I1
sVsentNum
p266
I21
sVgender
p267
VFEMALE
p268
sVposition
p269
(lp270
I21
aI1
asg21
g42
sVtype
p271
VPRONOMINAL
p272
sVid
p273
I145
sa(dp274
VendIndex
p275
I7
sVanimacy
p276
VANIMATE
p277
sg6
I00
sVtext
p278
Vher
p279
sVisRepresentativeMention
p280
I00
sVnumber
p281
VSINGULAR
p282
sg12
(lp283
sg14
NsVstartIndex
p284
I6
sVsentNum
p285
I21
sVgender
p286
VFEMALE
p287
sVposition
p288
(lp289
I21
aI5
asg21
g22
sVtype
p290
VPRONOMINAL
p291
sVid
p292
I149
sa(dp293
VendIndex
p294
I29
sVanimacy
p295
VANIMATE
p296
sg6
I00
sVtext
p297
Vhis
p298
sVisRepresentativeMention
p299
I00
sVnumber
p300
VSINGULAR
p301
sg12
(lp302
sg14
NsVstartIndex
p303
I28
sVsentNum
p304
I1
sVgender
p305
VMALE
p306
sVposition
p307
(lp308
I1
aI9
asg21
g22
sVtype
p309
VPRONOMINAL
p310
sVid
p311
I10
sa(dp312
VendIndex
p313
I6
sVanimacy
p314
VANIMATE
p315
sg6
I00
sVtext
p316
VPhyllis
p317
sVisRepresentativeMention
p318
I01
sVnumber
p319
VSINGULAR
p320
sg12
(lp321
S'givenNames'
p322
asg14
NsVstartIndex
p323
I5
sVsentNum
p324
I4
sVgender
p325
VFEMALE
p326
sVposition
p327
(lp328
I4
aI2
asg21
S'np-obj'
p329
sVtype
p330
VPROPER
p331
sVid
p332
I27
sa(dp333
VendIndex
p334
I18
sVanimacy
p335
VANIMATE
p336
sg6
I00
sVtext
p337
VEastwood's
p338
sVisRepresentativeMention
p339
I00
sVnumber
p340
VSINGULAR
p341
sg12
(lp342
sg14
NsVstartIndex
p343
I16
sVsentNum
p344
I5
sVgender
p345
VMALE
p346
sVposition
p347
(lp348
I5
aI5
asg21
g22
sVtype
p349
VPROPER
p350
sVid
p351
I33
sa(dp352
VendIndex
p353
I2
sVanimacy
p354
VANIMATE
p355
sg6
I00
sVtext
p356
VHuffman
p357
sVisRepresentativeMention
p358
I00
sVnumber
p359
VSINGULAR
p360
sg12
(lp361
S'surnames'
p362
asg14
(dp363
VendIndex
p364
I26
sVanimacy
p365
VANIMATE
p366
sg6
I00
sVtext
p367
Va veteran casting director  who has  long collaboration with filmmaker Clint Eastwood included work on ``Unforgiven'' and ``Million Dollar Baby
p368
sVisRepresentativeMention
p369
I00
sVnumber
p370
VSINGULAR
p371
sg12
(lp372
sg14
NsVstartIndex
p373
I3
sVsentNum
p374
I1
sVgender
p375
VMALE
p376
sVposition
p377
(lp378
I1
aI3
asVtype
p379
VNOMINAL
p380
sVid
p381
I5
ssVstartIndex
p382
I1
sVsentNum
p383
I1
sVgender
p384
VMALE
p385
sVposition
p386
(lp387
I1
aI1
asg21
g42
sVtype
p388
VPROPER
p389
sVid
p390
I1
sa(dp391
VendIndex
p392
I13
sVanimacy
p393
VANIMATE
p394
sg6
I00
sVtext
p395
VDavid Huffman
p396
sVisRepresentativeMention
p397
I00
sVnumber
p398
VSINGULAR
p399
sg12
(lp400
sg14
NsVstartIndex
p401
I11
sVsentNum
p402
I7
sVgender
p403
VMALE
p404
sVposition
p405
(lp406
I7
aI5
asg21
g22
sVtype
p407
VPROPER
p408
sVid
p409
I46
sa(dp410
VendIndex
p411
I2
sVanimacy
p412
VANIMATE
p413
sg6
I00
sVtext
p414
VHuffman
p415
sVisRepresentativeMention
p416
I00
sVnumber
p417
VSINGULAR
p418
sg12
(lp419
g362
asg14
NsVstartIndex
p420
I1
sVsentNum
p421
I8
sVgender
p422
VMALE
p423
sVposition
p424
(lp425
I8
aI1
asg21
g42
sVtype
p426
VPROPER
p427
sVid
p428
I58
sa(dp429
VendIndex
p430
I2
sVanimacy
p431
VANIMATE
p432
sg6
I00
sVtext
p433
VHuffman
p434
sVisRepresentativeMention
p435
I00
sVnumber
p436
VSINGULAR
p437
sg12
(lp438
g362
asg14
NsVstartIndex
p439
I1
sVsentNum
p440
I13
sVgender
p441
VMALE
p442
sVposition
p443
(lp444
I13
aI1
asg21
g42
sVtype
p445
VPROPER
p446
sVid
p447
I86
sa(dp448
VendIndex
p449
I2
sVanimacy
p450
VANIMATE
p451
sg6
I00
sVtext
p452
VHuffman
p453
sVisRepresentativeMention
p454
I00
sVnumber
p455
VSINGULAR
p456
sg12
(lp457
g362
asg14
NsVstartIndex
p458
I1
sVsentNum
p459
I18
sVgender
p460
VMALE
p461
sVposition
p462
(lp463
I18
aI1
asg21
g42
sVtype
p464
VPROPER
p465
sVid
p466
I116
sa(dp467
VendIndex
p468
I2
sVanimacy
p469
VANIMATE
p470
sg6
I00
sVtext
p471
VHuffman
p472
sVisRepresentativeMention
p473
I00
sVnumber
p474
VSINGULAR
p475
sg12
(lp476
g362
asg14
NsVstartIndex
p477
I1
sVsentNum
p478
I20
sVgender
p479
VMALE
p480
sVposition
p481
(lp482
I20
aI1
asg21
g42
sVtype
p483
VPROPER
p484
sVid
p485
I135
sa(dp486
VendIndex
p487
I11
sVanimacy
p488
VANIMATE
p489
sg6
I00
sVtext
p490
VGrace Grennan
p491
sVisRepresentativeMention
p492
I01
sVnumber
p493
VSINGULAR
p494
sg12
(lp495
sg14
NsVstartIndex
p496
I9
sVsentNum
p497
I21
sVgender
p498
VFEMALE
p499
sVposition
p500
(lp501
I21
aI6
asg21
g22
sVtype
p502
VPROPER
p503
sVid
p504
I142
sa(dp505
VendIndex
p506
I17
sVanimacy
p507
VANIMATE
p508
sg6
I00
sVtext
p509
VChris Grennan
p510
sVisRepresentativeMention
p511
I01
sVnumber
p512
VSINGULAR
p513
sg12
(lp514
sg14
NsVstartIndex
p515
I15
sVsentNum
p516
I21
sVgender
p517
VMALE
p518
sVposition
p519
(lp520
I21
aI9
asg21
g22
sVtype
p521
VPROPER
p522
sVid
p523
I143
sa.