(lp1
(dp2
VendIndex
p3
I19
sVanimacy
p4
VANIMATE
p5
sS'title'
p6
I00
sVtext
p7
Vshe
p8
sVisRepresentativeMention
p9
I00
sVnumber
p10
VSINGULAR
p11
sS'name_type'
p12
(lp13
sS'appositive'
p14
NsVstartIndex
p15
I18
sVsentNum
p16
I6
sVgender
p17
VFEMALE
p18
sVposition
p19
(lp20
I6
aI6
asS'syntax'
p21
S'np-subj'
p22
sVtype
p23
VPRONOMINAL
p24
sVid
p25
I44
sa(dp26
VendIndex
p27
I8
sVanimacy
p28
VANIMATE
p29
sg6
I00
sVtext
p30
Vher
p31
sVisRepresentativeMention
p32
I00
sVnumber
p33
VSINGULAR
p34
sg12
(lp35
sg14
NsVstartIndex
p36
I7
sVsentNum
p37
I7
sVgender
p38
VFEMALE
p39
sVposition
p40
(lp41
I7
aI4
asg21
S'subj-det'
p42
sVtype
p43
VPRONOMINAL
p44
sVid
p45
I52
sa(dp46
VendIndex
p47
I19
sVanimacy
p48
VANIMATE
p49
sg6
I00
sVtext
p50
VShe
p51
sVisRepresentativeMention
p52
I00
sVnumber
p53
VSINGULAR
p54
sg12
(lp55
sg14
NsVstartIndex
p56
I18
sVsentNum
p57
I7
sVgender
p58
VFEMALE
p59
sVposition
p60
(lp61
I7
aI8
asg21
g22
sVtype
p62
VPRONOMINAL
p63
sVid
p64
I55
sa(dp65
VendIndex
p66
I21
sVanimacy
p67
VANIMATE
p68
sg6
I00
sVtext
p69
Vher
p70
sVisRepresentativeMention
p71
I00
sVnumber
p72
VSINGULAR
p73
sg12
(lp74
sg14
NsVstartIndex
p75
I20
sVsentNum
p76
I7
sVgender
p77
VFEMALE
p78
sVposition
p79
(lp80
I7
aI10
asg21
g42
sVtype
p81
VPRONOMINAL
p82
sVid
p83
I57
sa(dp84
VendIndex
p85
I3
sVanimacy
p86
VANIMATE
p87
sg6
I00
sVtext
p88
Vshe
p89
sVisRepresentativeMention
p90
I00
sVnumber
p91
VSINGULAR
p92
sg12
(lp93
sg14
NsVstartIndex
p94
I2
sVsentNum
p95
I8
sVgender
p96
VFEMALE
p97
sVposition
p98
(lp99
I8
aI1
asg21
g22
sVtype
p100
VPRONOMINAL
p101
sVid
p102
I61
sa(dp103
VendIndex
p104
I10
sVanimacy
p105
VANIMATE
p106
sg6
I00
sVtext
p107
Vshe
p108
sVisRepresentativeMention
p109
I00
sVnumber
p110
VSINGULAR
p111
sg12
(lp112
sg14
NsVstartIndex
p113
I9
sVsentNum
p114
I8
sVgender
p115
VFEMALE
p116
sVposition
p117
(lp118
I8
aI3
asg21
g22
sVtype
p119
VPRONOMINAL
p120
sVid
p121
I62
sa(dp122
VendIndex
p123
I2
sVanimacy
p124
VANIMATE
p125
sg6
I00
sVtext
p126
VShe
p127
sVisRepresentativeMention
p128
I00
sVnumber
p129
VSINGULAR
p130
sg12
(lp131
sg14
NsVstartIndex
p132
I1
sVsentNum
p133
I2
sVgender
p134
VFEMALE
p135
sVposition
p136
(lp137
I2
aI1
asg21
g22
sVtype
p138
VPRONOMINAL
p139
sVid
p140
I17
sa(dp141
VendIndex
p142
I5
sVanimacy
p143
VANIMATE
p144
sg6
I00
sVtext
p145
Vshe
p146
sVisRepresentativeMention
p147
I00
sVnumber
p148
VSINGULAR
p149
sg12
(lp150
sg14
NsVstartIndex
p151
I4
sVsentNum
p152
I14
sVgender
p153
VFEMALE
p154
sVposition
p155
(lp156
I14
aI1
asg21
g22
sVtype
p157
VPRONOMINAL
p158
sVid
p159
I92
sa(dp160
VendIndex
p161
I2
sVanimacy
p162
VANIMATE
p163
sg6
I00
sVtext
p164
VHer
p165
sVisRepresentativeMention
p166
I00
sVnumber
p167
VSINGULAR
p168
sg12
(lp169
sg14
NsVstartIndex
p170
I1
sVsentNum
p171
I15
sVgender
p172
VFEMALE
p173
sVposition
p174
(lp175
I15
aI2
asg21
g42
sVtype
p176
VPRONOMINAL
p177
sVid
p178
I99
sa(dp179
VendIndex
p180
I6
sVanimacy
p181
VANIMATE
p182
sg6
I00
sVtext
p183
VHer
p184
sVisRepresentativeMention
p185
I00
sVnumber
p186
VSINGULAR
p187
sg12
(lp188
sg14
NsVstartIndex
p189
I5
sVsentNum
p190
I16
sVgender
p191
VFEMALE
p192
sVposition
p193
(lp194
I16
aI4
asg21
g42
sVtype
p195
VPRONOMINAL
p196
sVid
p197
I105
sa(dp198
VendIndex
p199
I6
sVanimacy
p200
VANIMATE
p201
sg6
I00
sVtext
p202
Vshe
p203
sVisRepresentativeMention
p204
I00
sVnumber
p205
VSINGULAR
p206
sg12
(lp207
sg14
NsVstartIndex
p208
I5
sVsentNum
p209
I18
sVgender
p210
VFEMALE
p211
sVposition
p212
(lp213
I18
aI1
asg21
g22
sVtype
p214
VPRONOMINAL
p215
sVid
p216
I118
sa(dp217
VendIndex
p218
I4
sVanimacy
p219
VANIMATE
p220
sg6
I00
sVtext
p221
Vshe
p222
sVisRepresentativeMention
p223
I00
sVnumber
p224
VSINGULAR
p225
sg12
(lp226
sg14
NsVstartIndex
p227
I3
sVsentNum
p228
I19
sVgender
p229
VFEMALE
p230
sVposition
p231
(lp232
I19
aI1
asg21
g22
sVtype
p233
VPRONOMINAL
p234
sVid
p235
I126
sa(dp236
VendIndex
p237
I6
sVanimacy
p238
VANIMATE
p239
sg6
I00
sVtext
p240
Vher
p241
sVisRepresentativeMention
p242
I00
sVnumber
p243
VSINGULAR
p244
sg12
(lp245
sg14
NsVstartIndex
p246
I5
sVsentNum
p247
I19
sVgender
p248
VFEMALE
p249
sVposition
p250
(lp251
I19
aI3
asg21
g42
sVtype
p252
VPRONOMINAL
p253
sVid
p254
I128
sa(dp255
VendIndex
p256
I2
sVanimacy
p257
VANIMATE
p258
sg6
I00
sVtext
p259
VShe
p260
sVisRepresentativeMention
p261
I00
sVnumber
p262
VSINGULAR
p263
sg12
(lp264
sg14
NsVstartIndex
p265
I1
sVsentNum
p266
I20
sVgender
p267
VFEMALE
p268
sVposition
p269
(lp270
I20
aI1
asg21
g22
sVtype
p271
VPRONOMINAL
p272
sVid
p273
I135
sa(dp274
VendIndex
p275
I10
sVanimacy
p276
VANIMATE
p277
sg6
I00
sVtext
p278
Vher
p279
sVisRepresentativeMention
p280
I00
sVnumber
p281
VSINGULAR
p282
sg12
(lp283
sg14
NsVstartIndex
p284
I9
sVsentNum
p285
I20
sVgender
p286
VFEMALE
p287
sVposition
p288
(lp289
I20
aI3
asg21
g42
sVtype
p290
VPRONOMINAL
p291
sVid
p292
I137
sa(dp293
VendIndex
p294
I8
sVanimacy
p295
VANIMATE
p296
sg6
I00
sVtext
p297
Vher
p298
sVisRepresentativeMention
p299
I00
sVnumber
p300
VSINGULAR
p301
sg12
(lp302
sg14
NsVstartIndex
p303
I7
sVsentNum
p304
I21
sVgender
p305
VFEMALE
p306
sVposition
p307
(lp308
I21
aI5
asg21
g42
sVtype
p309
VPRONOMINAL
p310
sVid
p311
I147
sa(dp312
VendIndex
p313
I9
sVanimacy
p314
VANIMATE
p315
sg6
I00
sVtext
p316
VHuffman
p317
sVisRepresentativeMention
p318
I00
sVnumber
p319
VSINGULAR
p320
sg12
(lp321
S'surnames'
p322
asg14
NsVstartIndex
p323
I8
sVsentNum
p324
I3
sVgender
p325
VMALE
p326
sVposition
p327
(lp328
I3
aI4
asg21
S'np-obj'
p329
sVtype
p330
VPROPER
p331
sVid
p332
I19
sa(dp333
VendIndex
p334
I13
sVanimacy
p335
VANIMATE
p336
sg6
I00
sVtext
p337
VDavid Huffman
p338
sVisRepresentativeMention
p339
I00
sVnumber
p340
VSINGULAR
p341
sg12
(lp342
sg14
NsVstartIndex
p343
I11
sVsentNum
p344
I7
sVgender
p345
VMALE
p346
sVposition
p347
(lp348
I7
aI5
asg21
g42
sVtype
p349
VPROPER
p350
sVid
p351
I47
sa(dp352
VendIndex
p353
I9
sVanimacy
p354
VANIMATE
p355
sg6
I00
sVtext
p356
VHuffman
p357
sVisRepresentativeMention
p358
I00
sVnumber
p359
VSINGULAR
p360
sg12
(lp361
g322
asg14
NsVstartIndex
p362
I8
sVsentNum
p363
I9
sVgender
p364
VMALE
p365
sVposition
p366
(lp367
I9
aI3
asg21
g22
sVtype
p368
VPROPER
p369
sVid
p370
I66
sa(dp371
VendIndex
p372
I10
sVanimacy
p373
VANIMATE
p374
sg6
I00
sVtext
p375
Vthe Bronx, N.Y.,  Miss Huffman
p376
sVisRepresentativeMention
p377
I01
sVnumber
p378
VSINGULAR
p379
sg12
(lp380
sg14
NsVstartIndex
p381
I3
sVsentNum
p382
I6
sVgender
p383
VFEMALE
p384
sVposition
p385
(lp386
I6
aI1
asg21
g42
sVtype
p387
VPROPER
p388
sVid
p389
I43
sa(dp390
VendIndex
p391
I3
sVanimacy
p392
VANIMATE
p393
sg6
I00
sVtext
p394
VPhyllis Huffman
p395
sVisRepresentativeMention
p396
I01
sVnumber
p397
VSINGULAR
p398
sg12
(lp399
S'foaf_names'
p400
aS'dbp_names'
p401
asg14
NsVstartIndex
p402
I1
sVsentNum
p403
I1
sVgender
p404
VFEMALE
p405
sVposition
p406
(lp407
I1
aI1
asg21
g22
sVtype
p408
VPROPER
p409
sVid
p410
I1
sa(dp411
VendIndex
p412
I6
sVanimacy
p413
VANIMATE
p414
sg6
I00
sVtext
p415
VPhyllis
p416
sVisRepresentativeMention
p417
I00
sVnumber
p418
VSINGULAR
p419
sg12
(lp420
S'givenNames'
p421
asg14
NsVstartIndex
p422
I5
sVsentNum
p423
I4
sVgender
p424
VFEMALE
p425
sVposition
p426
(lp427
I4
aI2
asg21
g329
sVtype
p428
VPROPER
p429
sVid
p430
I27
sa(dp431
VendIndex
p432
I3
sVanimacy
p433
VANIMATE
p434
sg6
I00
sVtext
p435
VPhyllis Huffman
p436
sVisRepresentativeMention
p437
I00
sVnumber
p438
VSINGULAR
p439
sg12
(lp440
g400
ag401
asg14
NsVstartIndex
p441
I1
sVsentNum
p442
I13
sVgender
p443
VFEMALE
p444
sVposition
p445
(lp446
I13
aI1
asg21
g22
sVtype
p447
VPROPER
p448
sVid
p449
I87
sa(dp450
VendIndex
p451
I3
sVanimacy
p452
VANIMATE
p453
sg6
I00
sVtext
p454
VPhyllis Huffman
p455
sVisRepresentativeMention
p456
I00
sVnumber
p457
VSINGULAR
p458
sg12
(lp459
g400
ag401
asg14
NsVstartIndex
p460
I1
sVsentNum
p461
I21
sVgender
p462
VFEMALE
p463
sVposition
p464
(lp465
I21
aI1
asg21
g22
sVtype
p466
VPROPER
p467
sVid
p468
I140
sa(dp469
VendIndex
p470
I18
sVanimacy
p471
VANIMATE
p472
sg6
I00
sVtext
p473
VChris Grennan
p474
sVisRepresentativeMention
p475
I01
sVnumber
p476
VSINGULAR
p477
sg12
(lp478
sg14
NsVstartIndex
p479
I16
sVsentNum
p480
I21
sVgender
p481
VMALE
p482
sVposition
p483
(lp484
I21
aI9
asg21
g42
sVtype
p485
VPROPER
p486
sVid
p487
I142
sa(dp488
VendIndex
p489
I12
sVanimacy
p490
VANIMATE
p491
sg6
I00
sVtext
p492
VGrace Grennan
p493
sVisRepresentativeMention
p494
I01
sVnumber
p495
VSINGULAR
p496
sg12
(lp497
sg14
NsVstartIndex
p498
I10
sVsentNum
p499
I21
sVgender
p500
VFEMALE
p501
sVposition
p502
(lp503
I21
aI6
asg21
g42
sVtype
p504
VPROPER
p505
sVid
p506
I141
sa.