(lp1
(dp2
VendIndex
p3
I18
sVanimacy
p4
VANIMATE
p5
sS'title'
p6
I00
sVtext
p7
Vhe
p8
sVisRepresentativeMention
p9
I00
sVnumber
p10
VSINGULAR
p11
sS'name_type'
p12
(lp13
sS'appositive'
p14
NsVstartIndex
p15
I17
sVsentNum
p16
I6
sVgender
p17
VMALE
p18
sVposition
p19
(lp20
I6
aI6
asS'syntax'
p21
S'np-subj'
p22
sVtype
p23
VPRONOMINAL
p24
sVid
p25
I45
sa(dp26
VendIndex
p27
I8
sVanimacy
p28
VANIMATE
p29
sg6
I00
sVtext
p30
Vher
p31
sVisRepresentativeMention
p32
I00
sVnumber
p33
VSINGULAR
p34
sg12
(lp35
sg14
NsVstartIndex
p36
I7
sVsentNum
p37
I7
sVgender
p38
VFEMALE
p39
sVposition
p40
(lp41
I7
aI4
asg21
S'subj-det'
p42
sVtype
p43
VPRONOMINAL
p44
sVid
p45
I53
sa(dp46
VendIndex
p47
I19
sVanimacy
p48
VANIMATE
p49
sg6
I00
sVtext
p50
Vshe
p51
sVisRepresentativeMention
p52
I00
sVnumber
p53
VSINGULAR
p54
sg12
(lp55
sg14
NsVstartIndex
p56
I18
sVsentNum
p57
I7
sVgender
p58
VFEMALE
p59
sVposition
p60
(lp61
I7
aI8
asg21
g22
sVtype
p62
VPRONOMINAL
p63
sVid
p64
I56
sa(dp65
VendIndex
p66
I9
sVanimacy
p67
VANIMATE
p68
sg6
I00
sVtext
p69
Vshe
p70
sVisRepresentativeMention
p71
I00
sVnumber
p72
VSINGULAR
p73
sg12
(lp74
sg14
NsVstartIndex
p75
I8
sVsentNum
p76
I8
sVgender
p77
VFEMALE
p78
sVposition
p79
(lp80
I8
aI3
asg21
g22
sVtype
p81
VPRONOMINAL
p82
sVid
p83
I62
sa(dp84
VendIndex
p85
I2
sVanimacy
p86
VANIMATE
p87
sg6
I00
sVtext
p88
VHuffman
p89
sVisRepresentativeMention
p90
I00
sVnumber
p91
VSINGULAR
p92
sg12
(lp93
S'surnames'
p94
asg14
NsVstartIndex
p95
I1
sVsentNum
p96
I2
sVgender
p97
VMALE
p98
sVposition
p99
(lp100
I2
aI1
asg21
g22
sVtype
p101
VPROPER
p102
sVid
p103
I17
sa(dp104
VendIndex
p105
I9
sVanimacy
p106
VANIMATE
p107
sg6
I00
sVtext
p108
VHuffman
p109
sVisRepresentativeMention
p110
I00
sVnumber
p111
VSINGULAR
p112
sg12
(lp113
g94
asg14
NsVstartIndex
p114
I8
sVsentNum
p115
I3
sVgender
p116
VMALE
p117
sVposition
p118
(lp119
I3
aI4
asg21
S'np-obj'
p120
sVtype
p121
VPROPER
p122
sVid
p123
I20
sa(dp124
VendIndex
p125
I13
sVanimacy
p126
VANIMATE
p127
sg6
I00
sVtext
p128
VDavid Huffman
p129
sVisRepresentativeMention
p130
I00
sVnumber
p131
VSINGULAR
p132
sg12
(lp133
sg14
NsVstartIndex
p134
I11
sVsentNum
p135
I7
sVgender
p136
VMALE
p137
sVposition
p138
(lp139
I7
aI5
asg21
g42
sVtype
p140
VPROPER
p141
sVid
p142
I48
sa(dp143
VendIndex
p144
I2
sVanimacy
p145
VANIMATE
p146
sg6
I00
sVtext
p147
VHuffman
p148
sVisRepresentativeMention
p149
I00
sVnumber
p150
VSINGULAR
p151
sg12
(lp152
g94
asg14
NsVstartIndex
p153
I1
sVsentNum
p154
I8
sVgender
p155
VMALE
p156
sVposition
p157
(lp158
I8
aI1
asg21
g22
sVtype
p159
VPROPER
p160
sVid
p161
I59
sa(dp162
VendIndex
p163
I2
sVanimacy
p164
VANIMATE
p165
sg6
I00
sVtext
p166
VHuffman
p167
sVisRepresentativeMention
p168
I00
sVnumber
p169
VSINGULAR
p170
sg12
(lp171
g94
asg14
NsVstartIndex
p172
I1
sVsentNum
p173
I20
sVgender
p174
VMALE
p175
sVposition
p176
(lp177
I20
aI1
asg21
g22
sVtype
p178
VPROPER
p179
sVid
p180
I134
sa(dp181
VendIndex
p182
I3
sVanimacy
p183
VANIMATE
p184
sg6
I00
sVtext
p185
VPhyllis Huffman
p186
sVisRepresentativeMention
p187
I01
sVnumber
p188
VSINGULAR
p189
sg12
(lp190
S'foaf_names'
p191
aS'dbp_names'
p192
asg14
NsVstartIndex
p193
I1
sVsentNum
p194
I1
sVgender
p195
VFEMALE
p196
sVposition
p197
(lp198
I1
aI1
asg21
g22
sVtype
p199
VPROPER
p200
sVid
p201
I1
sa(dp202
VendIndex
p203
I6
sVanimacy
p204
VANIMATE
p205
sg6
I00
sVtext
p206
VPhyllis
p207
sVisRepresentativeMention
p208
I00
sVnumber
p209
VSINGULAR
p210
sg12
(lp211
S'givenNames'
p212
asg14
NsVstartIndex
p213
I5
sVsentNum
p214
I4
sVgender
p215
VFEMALE
p216
sVposition
p217
(lp218
I4
aI2
asg21
g120
sVtype
p219
VPROPER
p220
sVid
p221
I28
sa(dp222
VendIndex
p223
I17
sVanimacy
p224
VANIMATE
p225
sg6
I00
sVtext
p226
VChris Grennan
p227
sVisRepresentativeMention
p228
I01
sVnumber
p229
VSINGULAR
p230
sg12
(lp231
sg14
NsVstartIndex
p232
I15
sVsentNum
p233
I21
sVgender
p234
VMALE
p235
sVposition
p236
(lp237
I21
aI9
asg21
g42
sVtype
p238
VPROPER
p239
sVid
p240
I142
sa(dp241
VendIndex
p242
I11
sVanimacy
p243
VANIMATE
p244
sg6
I00
sVtext
p245
VGrace Grennan
p246
sVisRepresentativeMention
p247
I01
sVnumber
p248
VSINGULAR
p249
sg12
(lp250
sg14
NsVstartIndex
p251
I9
sVsentNum
p252
I21
sVgender
p253
VFEMALE
p254
sVposition
p255
(lp256
I21
aI6
asg21
g42
sVtype
p257
VPROPER
p258
sVid
p259
I141
sa.