(lp1
(dp2
VendIndex
p3
I19
sVanimacy
p4
VANIMATE
p5
sS'title'
p6
I00
sVtext
p7
Vshe
p8
sVisRepresentativeMention
p9
I00
sVnumber
p10
VSINGULAR
p11
sS'name_type'
p12
(lp13
sS'appositive'
p14
NsVstartIndex
p15
I18
sVsentNum
p16
I7
sVgender
p17
VFEMALE
p18
sVposition
p19
(lp20
I7
aI8
asS'syntax'
p21
S'np-subj'
p22
sVtype
p23
VPRONOMINAL
p24
sVid
p25
I55
sa(dp26
VendIndex
p27
I21
sVanimacy
p28
VANIMATE
p29
sg6
I00
sVtext
p30
Vher
p31
sVisRepresentativeMention
p32
I00
sVnumber
p33
VSINGULAR
p34
sg12
(lp35
sg14
NsVstartIndex
p36
I20
sVsentNum
p37
I7
sVgender
p38
VFEMALE
p39
sVposition
p40
(lp41
I7
aI10
asg21
S'subj-det'
p42
sVtype
p43
VPRONOMINAL
p44
sVid
p45
I57
sa(dp46
VendIndex
p47
I2
sVanimacy
p48
VANIMATE
p49
sg6
I00
sVtext
p50
VShe
p51
sVisRepresentativeMention
p52
I00
sVnumber
p53
VSINGULAR
p54
sg12
(lp55
sg14
NsVstartIndex
p56
I1
sVsentNum
p57
I8
sVgender
p58
VFEMALE
p59
sVposition
p60
(lp61
I8
aI1
asg21
g22
sVtype
p62
VPRONOMINAL
p63
sVid
p64
I61
sa(dp65
VendIndex
p66
I9
sVanimacy
p67
VANIMATE
p68
sg6
I00
sVtext
p69
Vshe
p70
sVisRepresentativeMention
p71
I00
sVnumber
p72
VSINGULAR
p73
sg12
(lp74
sg14
NsVstartIndex
p75
I8
sVsentNum
p76
I8
sVgender
p77
VFEMALE
p78
sVposition
p79
(lp80
I8
aI3
asg21
g22
sVtype
p81
VPRONOMINAL
p82
sVid
p83
I62
sa(dp84
VendIndex
p85
I4
sVanimacy
p86
VANIMATE
p87
sg6
I00
sVtext
p88
Vshe
p89
sVisRepresentativeMention
p90
I00
sVnumber
p91
VSINGULAR
p92
sg12
(lp93
sg14
NsVstartIndex
p94
I3
sVsentNum
p95
I12
sVgender
p96
VFEMALE
p97
sVposition
p98
(lp99
I12
aI2
asg21
g22
sVtype
p100
VPRONOMINAL
p101
sVid
p102
I79
sa(dp103
VendIndex
p104
I2
sVanimacy
p105
VANIMATE
p106
sg6
I00
sVtext
p107
VShe
p108
sVisRepresentativeMention
p109
I00
sVnumber
p110
VSINGULAR
p111
sg12
(lp112
sg14
NsVstartIndex
p113
I1
sVsentNum
p114
I13
sVgender
p115
VFEMALE
p116
sVposition
p117
(lp118
I13
aI1
asg21
g22
sVtype
p119
VPRONOMINAL
p120
sVid
p121
I87
sa(dp122
VendIndex
p123
I5
sVanimacy
p124
VANIMATE
p125
sg6
I00
sVtext
p126
Vshe
p127
sVisRepresentativeMention
p128
I00
sVnumber
p129
VSINGULAR
p130
sg12
(lp131
sg14
NsVstartIndex
p132
I4
sVsentNum
p133
I14
sVgender
p134
VFEMALE
p135
sVposition
p136
(lp137
I14
aI1
asg21
g22
sVtype
p138
VPRONOMINAL
p139
sVid
p140
I91
sa(dp141
VendIndex
p142
I2
sVanimacy
p143
VANIMATE
p144
sg6
I00
sVtext
p145
VHer
p146
sVisRepresentativeMention
p147
I00
sVnumber
p148
VSINGULAR
p149
sg12
(lp150
sg14
NsVstartIndex
p151
I1
sVsentNum
p152
I15
sVgender
p153
VFEMALE
p154
sVposition
p155
(lp156
I15
aI2
asg21
g42
sVtype
p157
VPRONOMINAL
p158
sVid
p159
I98
sa(dp160
VendIndex
p161
I6
sVanimacy
p162
VANIMATE
p163
sg6
I00
sVtext
p164
Vher
p165
sVisRepresentativeMention
p166
I00
sVnumber
p167
VSINGULAR
p168
sg12
(lp169
sg14
NsVstartIndex
p170
I5
sVsentNum
p171
I16
sVgender
p172
VFEMALE
p173
sVposition
p174
(lp175
I16
aI4
asg21
g42
sVtype
p176
VPRONOMINAL
p177
sVid
p178
I104
sa(dp179
VendIndex
p180
I23
sVanimacy
p181
VANIMATE
p182
sg6
I00
sVtext
p183
Vher
p184
sVisRepresentativeMention
p185
I00
sVnumber
p186
VSINGULAR
p187
sg12
(lp188
sg14
NsVstartIndex
p189
I22
sVsentNum
p190
I18
sVgender
p191
VFEMALE
p192
sVposition
p193
(lp194
I18
aI6
asg21
g42
sVtype
p195
VPRONOMINAL
p196
sVid
p197
I121
sa(dp198
VendIndex
p199
I2
sVanimacy
p200
VANIMATE
p201
sg6
I00
sVtext
p202
VShe
p203
sVisRepresentativeMention
p204
I00
sVnumber
p205
VSINGULAR
p206
sg12
(lp207
sg14
NsVstartIndex
p208
I1
sVsentNum
p209
I19
sVgender
p210
VFEMALE
p211
sVposition
p212
(lp213
I19
aI1
asg21
g22
sVtype
p214
VPRONOMINAL
p215
sVid
p216
I126
sa(dp217
VendIndex
p218
I4
sVanimacy
p219
VANIMATE
p220
sg6
I00
sVtext
p221
Vher
p222
sVisRepresentativeMention
p223
I00
sVnumber
p224
VSINGULAR
p225
sg12
(lp226
sg14
NsVstartIndex
p227
I3
sVsentNum
p228
I19
sVgender
p229
VFEMALE
p230
sVposition
p231
(lp232
I19
aI3
asg21
g42
sVtype
p233
VPRONOMINAL
p234
sVid
p235
I128
sa(dp236
VendIndex
p237
I6
sVanimacy
p238
VANIMATE
p239
sg6
I00
sVtext
p240
Vshe
p241
sVisRepresentativeMention
p242
I00
sVnumber
p243
VSINGULAR
p244
sg12
(lp245
sg14
NsVstartIndex
p246
I5
sVsentNum
p247
I20
sVgender
p248
VFEMALE
p249
sVposition
p250
(lp251
I20
aI2
asg21
g22
sVtype
p252
VPRONOMINAL
p253
sVid
p254
I135
sa(dp255
VendIndex
p256
I10
sVanimacy
p257
VANIMATE
p258
sg6
I00
sVtext
p259
Vher
p260
sVisRepresentativeMention
p261
I00
sVnumber
p262
VSINGULAR
p263
sg12
(lp264
sg14
NsVstartIndex
p265
I9
sVsentNum
p266
I20
sVgender
p267
VFEMALE
p268
sVposition
p269
(lp270
I20
aI4
asg21
g42
sVtype
p271
VPRONOMINAL
p272
sVid
p273
I137
sa(dp274
VendIndex
p275
I2
sVanimacy
p276
VANIMATE
p277
sg6
I00
sVtext
p278
VShe
p279
sVisRepresentativeMention
p280
I00
sVnumber
p281
VSINGULAR
p282
sg12
(lp283
sg14
NsVstartIndex
p284
I1
sVsentNum
p285
I21
sVgender
p286
VFEMALE
p287
sVposition
p288
(lp289
I21
aI1
asg21
g22
sVtype
p290
VPRONOMINAL
p291
sVid
p292
I143
sa(dp293
VendIndex
p294
I7
sVanimacy
p295
VANIMATE
p296
sg6
I00
sVtext
p297
Vher
p298
sVisRepresentativeMention
p299
I00
sVnumber
p300
VSINGULAR
p301
sg12
(lp302
sg14
NsVstartIndex
p303
I6
sVsentNum
p304
I21
sVgender
p305
VFEMALE
p306
sVposition
p307
(lp308
I21
aI5
asg21
g42
sVtype
p309
VPRONOMINAL
p310
sVid
p311
I147
sa(dp312
VendIndex
p313
I2
sVanimacy
p314
VANIMATE
p315
sg6
I00
sVtext
p316
VShe
p317
sVisRepresentativeMention
p318
I00
sVnumber
p319
VSINGULAR
p320
sg12
(lp321
sg14
NsVstartIndex
p322
I1
sVsentNum
p323
I2
sVgender
p324
VFEMALE
p325
sVposition
p326
(lp327
I2
aI1
asg21
g22
sVtype
p328
VPRONOMINAL
p329
sVid
p330
I17
sa(dp331
VendIndex
p332
I18
sVanimacy
p333
VANIMATE
p334
sg6
I00
sVtext
p335
Vshe
p336
sVisRepresentativeMention
p337
I00
sVnumber
p338
VSINGULAR
p339
sg12
(lp340
sg14
NsVstartIndex
p341
I17
sVsentNum
p342
I6
sVgender
p343
VFEMALE
p344
sVposition
p345
(lp346
I6
aI6
asg21
g22
sVtype
p347
VPRONOMINAL
p348
sVid
p349
I44
sa(dp350
VendIndex
p351
I8
sVanimacy
p352
VANIMATE
p353
sg6
I00
sVtext
p354
Vher
p355
sVisRepresentativeMention
p356
I00
sVnumber
p357
VSINGULAR
p358
sg12
(lp359
sg14
NsVstartIndex
p360
I7
sVsentNum
p361
I7
sVgender
p362
VFEMALE
p363
sVposition
p364
(lp365
I7
aI4
asg21
g42
sVtype
p366
VPRONOMINAL
p367
sVid
p368
I52
sa(dp369
VendIndex
p370
I9
sVanimacy
p371
VANIMATE
p372
sg6
I00
sVtext
p373
VHuffman
p374
sVisRepresentativeMention
p375
I00
sVnumber
p376
VSINGULAR
p377
sg12
(lp378
S'surnames'
p379
asg14
NsVstartIndex
p380
I8
sVsentNum
p381
I3
sVgender
p382
VMALE
p383
sVposition
p384
(lp385
I3
aI4
asg21
S'np-obj'
p386
sVtype
p387
VPROPER
p388
sVid
p389
I19
sa(dp390
VendIndex
p391
I13
sVanimacy
p392
VANIMATE
p393
sg6
I00
sVtext
p394
VDavid Huffman
p395
sVisRepresentativeMention
p396
I00
sVnumber
p397
VSINGULAR
p398
sg12
(lp399
sg14
NsVstartIndex
p400
I11
sVsentNum
p401
I7
sVgender
p402
VMALE
p403
sVposition
p404
(lp405
I7
aI5
asg21
g42
sVtype
p406
VPROPER
p407
sVid
p408
I47
sa(dp409
VendIndex
p410
I9
sVanimacy
p411
VANIMATE
p412
sg6
I00
sVtext
p413
VHuffman
p414
sVisRepresentativeMention
p415
I00
sVnumber
p416
VSINGULAR
p417
sg12
(lp418
g379
asg14
NsVstartIndex
p419
I8
sVsentNum
p420
I9
sVgender
p421
VMALE
p422
sVposition
p423
(lp424
I9
aI3
asg21
g22
sVtype
p425
VPROPER
p426
sVid
p427
I66
sa(dp428
VendIndex
p429
I6
sVanimacy
p430
VANIMATE
p431
sg6
I00
sVtext
p432
VThe first film  Phyllis Huffman
p433
sVisRepresentativeMention
p434
I01
sVnumber
p435
VSINGULAR
p436
sg12
(lp437
sg14
NsVstartIndex
p438
I1
sVsentNum
p439
I11
sVgender
p440
VFEMALE
p441
sVposition
p442
(lp443
I11
aI1
asg21
g22
sVtype
p444
VPROPER
p445
sVid
p446
I72
sa(dp447
VendIndex
p448
I5
sVanimacy
p449
VANIMATE
p450
sg6
I01
sVtext
p451
VMrs. Huffman
p452
sVisRepresentativeMention
p453
I00
sVnumber
p454
VSINGULAR
p455
sg12
(lp456
g379
asg14
NsVstartIndex
p457
I3
sVsentNum
p458
I18
sVgender
p459
VFEMALE
p460
sVposition
p461
(lp462
I18
aI1
asg21
g22
sVtype
p463
VPROPER
p464
sVid
p465
I117
sa(dp466
VendIndex
p467
I2
sVanimacy
p468
VANIMATE
p469
sg6
I00
sVtext
p470
VHuffman
p471
sVisRepresentativeMention
p472
I00
sVnumber
p473
VSINGULAR
p474
sg12
(lp475
g379
asg14
NsVstartIndex
p476
I1
sVsentNum
p477
I20
sVgender
p478
VMALE
p479
sVposition
p480
(lp481
I20
aI1
asg21
g22
sVtype
p482
VPROPER
p483
sVid
p484
I133
sa(dp485
VendIndex
p486
I3
sVanimacy
p487
VANIMATE
p488
sg6
I00
sVtext
p489
VPhyllis Huffman
p490
sVisRepresentativeMention
p491
I01
sVnumber
p492
VSINGULAR
p493
sg12
(lp494
S'foaf_names'
p495
aS'dbp_names'
p496
asg14
NsVstartIndex
p497
I1
sVsentNum
p498
I1
sVgender
p499
VFEMALE
p500
sVposition
p501
(lp502
I1
aI1
asg21
g22
sVtype
p503
VPROPER
p504
sVid
p505
I1
sa(dp506
VendIndex
p507
I6
sVanimacy
p508
VANIMATE
p509
sg6
I00
sVtext
p510
VPhyllis
p511
sVisRepresentativeMention
p512
I00
sVnumber
p513
VSINGULAR
p514
sg12
(lp515
S'givenNames'
p516
asg14
NsVstartIndex
p517
I5
sVsentNum
p518
I4
sVgender
p519
VFEMALE
p520
sVposition
p521
(lp522
I4
aI2
asg21
g386
sVtype
p523
VPROPER
p524
sVid
p525
I27
sa(dp526
VendIndex
p527
I11
sVanimacy
p528
VANIMATE
p529
sg6
I00
sVtext
p530
VGrace Grennan
p531
sVisRepresentativeMention
p532
I01
sVnumber
p533
VSINGULAR
p534
sg12
(lp535
sg14
NsVstartIndex
p536
I9
sVsentNum
p537
I21
sVgender
p538
VFEMALE
p539
sVposition
p540
(lp541
I21
aI6
asg21
g42
sVtype
p542
VPROPER
p543
sVid
p544
I140
sa(dp545
VendIndex
p546
I17
sVanimacy
p547
VANIMATE
p548
sg6
I00
sVtext
p549
VChris Grennan
p550
sVisRepresentativeMention
p551
I01
sVnumber
p552
VSINGULAR
p553
sg12
(lp554
sg14
NsVstartIndex
p555
I15
sVsentNum
p556
I21
sVgender
p557
VMALE
p558
sVposition
p559
(lp560
I21
aI9
asg21
g42
sVtype
p561
VPROPER
p562
sVid
p563
I141
sa.