(lp1
(dp2
VendIndex
p3
I19
sVanimacy
p4
VANIMATE
p5
sS'title'
p6
I00
sVtext
p7
Vthey
p8
sVisRepresentativeMention
p9
I00
sVnumber
p10
VPLURAL
p11
sS'name_type'
p12
(lp13
sS'appositive'
p14
NsVstartIndex
p15
I18
sVsentNum
p16
I8
sVgender
p17
VUNKNOWN
p18
sVposition
p19
(lp20
I8
aI6
asS'syntax'
p21
S'np-subj'
p22
sVtype
p23
VPRONOMINAL
p24
sVid
p25
I85
sa(dp26
VendIndex
p27
I42
sVanimacy
p28
VANIMATE
p29
sg6
I00
sVtext
p30
Vhim
p31
sVisRepresentativeMention
p32
I00
sVnumber
p33
VSINGULAR
p34
sg12
(lp35
sg14
NsVstartIndex
p36
I41
sVsentNum
p37
I3
sVgender
p38
VMALE
p39
sVposition
p40
(lp41
I3
aI15
asg21
S'np-obj'
p42
sVtype
p43
VPRONOMINAL
p44
sVid
p45
I38
sa(dp46
VendIndex
p47
I14
sVanimacy
p48
VANIMATE
p49
sg6
I00
sVtext
p50
Vhis
p51
sVisRepresentativeMention
p52
I00
sVnumber
p53
VSINGULAR
p54
sg12
(lp55
sg14
NsVstartIndex
p56
I13
sVsentNum
p57
I4
sVgender
p58
VMALE
p59
sVposition
p60
(lp61
I4
aI5
asg21
S'subj-det'
p62
sVtype
p63
VPRONOMINAL
p64
sVid
p65
I48
sa(dp66
VendIndex
p67
I5
sVanimacy
p68
VANIMATE
p69
sg6
I00
sVtext
p70
Vhe
p71
sVisRepresentativeMention
p72
I00
sVnumber
p73
VSINGULAR
p74
sg12
(lp75
sg14
NsVstartIndex
p76
I4
sVsentNum
p77
I5
sVgender
p78
VMALE
p79
sVposition
p80
(lp81
I5
aI1
asg21
g22
sVtype
p82
VPRONOMINAL
p83
sVid
p84
I53
sa(dp85
VendIndex
p86
I29
sVanimacy
p87
VANIMATE
p88
sg6
I00
sVtext
p89
Vhim
p90
sVisRepresentativeMention
p91
I00
sVnumber
p92
VSINGULAR
p93
sg12
(lp94
sg14
NsVstartIndex
p95
I28
sVsentNum
p96
I5
sVgender
p97
VMALE
p98
sVposition
p99
(lp100
I5
aI9
asg21
g42
sVtype
p101
VPRONOMINAL
p102
sVid
p103
I61
sa(dp104
VendIndex
p105
I14
sVanimacy
p106
VANIMATE
p107
sg6
I00
sVtext
p108
Vhe
p109
sVisRepresentativeMention
p110
I00
sVnumber
p111
VSINGULAR
p112
sg12
(lp113
sg14
NsVstartIndex
p114
I13
sVsentNum
p115
I8
sVgender
p116
VMALE
p117
sVposition
p118
(lp119
I8
aI5
asg21
g22
sVtype
p120
VPRONOMINAL
p121
sVid
p122
I84
sa(dp123
VendIndex
p124
I19
sVanimacy
p125
VANIMATE
p126
sg6
I00
sVtext
p127
Vhis
p128
sVisRepresentativeMention
p129
I00
sVnumber
p130
VSINGULAR
p131
sg12
(lp132
sg14
NsVstartIndex
p133
I18
sVsentNum
p134
I9
sVgender
p135
VMALE
p136
sVposition
p137
(lp138
I9
aI6
asg21
g62
sVtype
p139
VPRONOMINAL
p140
sVid
p141
I96
sa(dp142
VendIndex
p143
I12
sVanimacy
p144
VANIMATE
p145
sg6
I00
sVtext
p146
VRandall Harold Cunningham
p147
sVisRepresentativeMention
p148
I01
sVnumber
p149
VSINGULAR
p150
sg12
(lp151
S'birthNames'
p152
asg14
NsVstartIndex
p153
I9
sVsentNum
p154
I1
sVgender
p155
VMALE
p156
sVposition
p157
(lp158
I1
aI4
asg21
g22
sVtype
p159
VPROPER
p160
sVid
p161
I3
sa(dp162
VendIndex
p163
I4
sVanimacy
p164
VANIMATE
p165
sg6
I00
sVtext
p166
VRandall Harold Cunningham
p167
sVisRepresentativeMention
p168
I00
sVnumber
p169
VSINGULAR
p170
sg12
(lp171
g152
asg14
NsVstartIndex
p172
I1
sVsentNum
p173
I2
sVgender
p174
VMALE
p175
sVposition
p176
(lp177
I2
aI1
asg21
g22
sVtype
p178
VPROPER
p179
sVid
p180
I20
sa(dp181
VendIndex
p182
I24
sVanimacy
p183
VANIMATE
p184
sg6
I00
sVtext
p185
VCunningham's
p186
sVisRepresentativeMention
p187
I00
sVnumber
p188
VSINGULAR
p189
sg12
(lp190
S'surnames'
p191
asg14
NsVstartIndex
p192
I22
sVsentNum
p193
I3
sVgender
p194
VMALE
p195
sVposition
p196
(lp197
I3
aI9
asg21
g62
sVtype
p198
VPROPER
p199
sVid
p200
I25
sa(dp201
VendIndex
p202
I3
sVanimacy
p203
VANIMATE
p204
sg6
I00
sVtext
p205
VCunningham
p206
sVisRepresentativeMention
p207
I00
sVnumber
p208
VSINGULAR
p209
sg12
(lp210
g191
asg14
NsVstartIndex
p211
I2
sVsentNum
p212
I4
sVgender
p213
VMALE
p214
sVposition
p215
(lp216
I4
aI1
asg21
g22
sVtype
p217
VPROPER
p218
sVid
p219
I44
sa(dp220
VendIndex
p221
I5
sVanimacy
p222
VANIMATE
p223
sg6
I00
sVtext
p224
VRandall Harold Cunningham's
p225
sVisRepresentativeMention
p226
I00
sVnumber
p227
VSINGULAR
p228
sg12
(lp229
g152
asg14
NsVstartIndex
p230
I1
sVsentNum
p231
I6
sVgender
p232
VMALE
p233
sVposition
p234
(lp235
I6
aI2
asg21
g62
sVtype
p236
VPROPER
p237
sVid
p238
I63
sa(dp239
VendIndex
p240
I4
sVanimacy
p241
VANIMATE
p242
sg6
I00
sVtext
p243
VCunningham's
p244
sVisRepresentativeMention
p245
I00
sVnumber
p246
VSINGULAR
p247
sg12
(lp248
g191
asg14
NsVstartIndex
p249
I2
sVsentNum
p250
I8
sVgender
p251
VMALE
p252
sVposition
p253
(lp254
I8
aI2
asg21
g62
sVtype
p255
VPROPER
p256
sVid
p257
I80
sa(dp258
VendIndex
p259
I9
sVanimacy
p260
VANIMATE
p261
sg6
I00
sVtext
p262
VCunningham
p263
sVisRepresentativeMention
p264
I00
sVnumber
p265
VSINGULAR
p266
sg12
(lp267
g191
asg14
NsVstartIndex
p268
I8
sVsentNum
p269
I8
sVgender
p270
VMALE
p271
sVposition
p272
(lp273
I8
aI3
asg21
g22
sVtype
p274
VPROPER
p275
sVid
p276
I81
sa(dp277
VendIndex
p278
I15
sVanimacy
p279
VANIMATE
p280
sg6
I00
sVtext
p281
VCunningham
p282
sVisRepresentativeMention
p283
I00
sVnumber
p284
VSINGULAR
p285
sg12
(lp286
g191
asg14
NsVstartIndex
p287
I14
sVsentNum
p288
I9
sVgender
p289
VMALE
p290
sVposition
p291
(lp292
I9
aI4
asg21
g22
sVtype
p293
VPROPER
p294
sVid
p295
I90
sa.