(lp1
(dp2
VendIndex
p3
I10
sVanimacy
p4
VANIMATE
p5
sS'title'
p6
I00
sVtext
p7
Vhis
p8
sVisRepresentativeMention
p9
I00
sVnumber
p10
VSINGULAR
p11
sS'name_type'
p12
(lp13
sS'appositive'
p14
NsVstartIndex
p15
I9
sVsentNum
p16
I7
sVgender
p17
VMALE
p18
sVposition
p19
(lp20
I7
aI4
asS'syntax'
p21
S'subj-det'
p22
sVtype
p23
VPRONOMINAL
p24
sVid
p25
I70
sa(dp26
VendIndex
p27
I19
sVanimacy
p28
VANIMATE
p29
sg6
I00
sVtext
p30
Vthey
p31
sVisRepresentativeMention
p32
I00
sVnumber
p33
VPLURAL
p34
sg12
(lp35
sg14
NsVstartIndex
p36
I18
sVsentNum
p37
I8
sVgender
p38
VUNKNOWN
p39
sVposition
p40
(lp41
I8
aI6
asg21
S'np-subj'
p42
sVtype
p43
VPRONOMINAL
p44
sVid
p45
I84
sa(dp46
VendIndex
p47
I35
sVanimacy
p48
VANIMATE
p49
sg6
I00
sVtext
p50
Vhe
p51
sVisRepresentativeMention
p52
I00
sVnumber
p53
VSINGULAR
p54
sg12
(lp55
sg14
NsVstartIndex
p56
I34
sVsentNum
p57
I1
sVgender
p58
VMALE
p59
sVposition
p60
(lp61
I1
aI13
asg21
g42
sVtype
p62
VPRONOMINAL
p63
sVid
p64
I14
sa(dp65
VendIndex
p66
I23
sVanimacy
p67
VANIMATE
p68
sg6
I00
sVtext
p69
Vhis
p70
sVisRepresentativeMention
p71
I00
sVnumber
p72
VSINGULAR
p73
sg12
(lp74
sg14
NsVstartIndex
p75
I22
sVsentNum
p76
I3
sVgender
p77
VMALE
p78
sVposition
p79
(lp80
I3
aI7
asg21
g22
sVtype
p81
VPRONOMINAL
p82
sVid
p83
I35
sa(dp84
VendIndex
p85
I14
sVanimacy
p86
VANIMATE
p87
sg6
I00
sVtext
p88
Vhis
p89
sVisRepresentativeMention
p90
I00
sVnumber
p91
VSINGULAR
p92
sg12
(lp93
sg14
NsVstartIndex
p94
I13
sVsentNum
p95
I4
sVgender
p96
VMALE
p97
sVposition
p98
(lp99
I4
aI5
asg21
g22
sVtype
p100
VPRONOMINAL
p101
sVid
p102
I47
sa(dp103
VendIndex
p104
I5
sVanimacy
p105
VANIMATE
p106
sg6
I00
sVtext
p107
Vhe
p108
sVisRepresentativeMention
p109
I00
sVnumber
p110
VSINGULAR
p111
sg12
(lp112
sg14
NsVstartIndex
p113
I4
sVsentNum
p114
I5
sVgender
p115
VMALE
p116
sVposition
p117
(lp118
I5
aI1
asg21
g42
sVtype
p119
VPRONOMINAL
p120
sVid
p121
I52
sa(dp122
VendIndex
p123
I29
sVanimacy
p124
VANIMATE
p125
sg6
I00
sVtext
p126
Vhim
p127
sVisRepresentativeMention
p128
I00
sVnumber
p129
VSINGULAR
p130
sg12
(lp131
sg14
NsVstartIndex
p132
I28
sVsentNum
p133
I5
sVgender
p134
VMALE
p135
sVposition
p136
(lp137
I5
aI9
asg21
S'np-obj'
p138
sVtype
p139
VPRONOMINAL
p140
sVid
p141
I60
sa(dp142
VendIndex
p143
I14
sVanimacy
p144
VANIMATE
p145
sg6
I00
sVtext
p146
Vhe
p147
sVisRepresentativeMention
p148
I00
sVnumber
p149
VSINGULAR
p150
sg12
(lp151
sg14
NsVstartIndex
p152
I13
sVsentNum
p153
I8
sVgender
p154
VMALE
p155
sVposition
p156
(lp157
I8
aI5
asg21
g42
sVtype
p158
VPRONOMINAL
p159
sVid
p160
I83
sa(dp161
VendIndex
p162
I19
sVanimacy
p163
VANIMATE
p164
sg6
I00
sVtext
p165
Vhis
p166
sVisRepresentativeMention
p167
I00
sVnumber
p168
VSINGULAR
p169
sg12
(lp170
sg14
NsVstartIndex
p171
I18
sVsentNum
p172
I9
sVgender
p173
VMALE
p174
sVposition
p175
(lp176
I9
aI7
asg21
g22
sVtype
p177
VPRONOMINAL
p178
sVid
p179
I96
sa(dp180
VendIndex
p181
I24
sVanimacy
p182
VANIMATE
p183
sg6
I00
sVtext
p184
Vhis
p185
sVisRepresentativeMention
p186
I00
sVnumber
p187
VSINGULAR
p188
sg12
(lp189
sg14
NsVstartIndex
p190
I23
sVsentNum
p191
I9
sVgender
p192
VMALE
p193
sVposition
p194
(lp195
I9
aI9
asg21
g22
sVtype
p196
VPRONOMINAL
p197
sVid
p198
I98
sa(dp199
VendIndex
p200
I32
sVanimacy
p201
VANIMATE
p202
sg6
I00
sVtext
p203
Vhim
p204
sVisRepresentativeMention
p205
I00
sVnumber
p206
VSINGULAR
p207
sg12
(lp208
sg14
NsVstartIndex
p209
I31
sVsentNum
p210
I1
sVgender
p211
VMALE
p212
sVposition
p213
(lp214
I1
aI12
asg21
g138
sVtype
p215
VPRONOMINAL
p216
sVid
p217
I13
sa(dp218
VendIndex
p219
I4
sVanimacy
p220
VANIMATE
p221
sg6
I00
sVtext
p222
VRandall Harold Cunningham
p223
sVisRepresentativeMention
p224
I01
sVnumber
p225
VSINGULAR
p226
sg12
(lp227
S'birthNames'
p228
asg14
NsVstartIndex
p229
I1
sVsentNum
p230
I1
sVgender
p231
VMALE
p232
sVposition
p233
(lp234
I1
aI1
asg21
g42
sVtype
p235
VPROPER
p236
sVid
p237
I1
sa(dp238
VendIndex
p239
I2
sVanimacy
p240
VANIMATE
p241
sg6
I00
sVtext
p242
VCunningham
p243
sVisRepresentativeMention
p244
I00
sVnumber
p245
VSINGULAR
p246
sg12
(lp247
S'surnames'
p248
asg14
NsVstartIndex
p249
I1
sVsentNum
p250
I2
sVgender
p251
VMALE
p252
sVposition
p253
(lp254
I2
aI1
asg21
g42
sVtype
p255
VPROPER
p256
sVid
p257
I21
sa(dp258
VendIndex
p259
I41
sVanimacy
p260
VANIMATE
p261
sg6
I00
sVtext
p262
VCunningham
p263
sVisRepresentativeMention
p264
I00
sVnumber
p265
VSINGULAR
p266
sg12
(lp267
g248
asg14
NsVstartIndex
p268
I40
sVsentNum
p269
I3
sVgender
p270
VMALE
p271
sVposition
p272
(lp273
I3
aI13
asg21
g138
sVtype
p274
VPROPER
p275
sVid
p276
I27
sa(dp277
VendIndex
p278
I3
sVanimacy
p279
VANIMATE
p280
sg6
I00
sVtext
p281
VCunningham
p282
sVisRepresentativeMention
p283
I00
sVnumber
p284
VSINGULAR
p285
sg12
(lp286
g248
asg14
NsVstartIndex
p287
I2
sVsentNum
p288
I4
sVgender
p289
VMALE
p290
sVposition
p291
(lp292
I4
aI1
asg21
g42
sVtype
p293
VPROPER
p294
sVid
p295
I43
sa(dp296
VendIndex
p297
I3
sVanimacy
p298
VANIMATE
p299
sg6
I00
sVtext
p300
VCunningham's
p301
sVisRepresentativeMention
p302
I00
sVnumber
p303
VSINGULAR
p304
sg12
(lp305
g248
asg14
NsVstartIndex
p306
I1
sVsentNum
p307
I6
sVgender
p308
VMALE
p309
sVposition
p310
(lp311
I6
aI2
asg21
g22
sVtype
p312
VPROPER
p313
sVid
p314
I62
sa(dp315
VendIndex
p316
I4
sVanimacy
p317
VANIMATE
p318
sg6
I00
sVtext
p319
VCunningham's
p320
sVisRepresentativeMention
p321
I00
sVnumber
p322
VSINGULAR
p323
sg12
(lp324
g248
asg14
NsVstartIndex
p325
I2
sVsentNum
p326
I8
sVgender
p327
VMALE
p328
sVposition
p329
(lp330
I8
aI2
asg21
g22
sVtype
p331
VPROPER
p332
sVid
p333
I79
sa(dp334
VendIndex
p335
I9
sVanimacy
p336
VANIMATE
p337
sg6
I00
sVtext
p338
VCunningham
p339
sVisRepresentativeMention
p340
I00
sVnumber
p341
VSINGULAR
p342
sg12
(lp343
g248
asg14
NsVstartIndex
p344
I8
sVsentNum
p345
I8
sVgender
p346
VMALE
p347
sVposition
p348
(lp349
I8
aI3
asg21
g42
sVtype
p350
VPROPER
p351
sVid
p352
I80
sa(dp353
VendIndex
p354
I15
sVanimacy
p355
VANIMATE
p356
sg6
I00
sVtext
p357
VCunningham
p358
sVisRepresentativeMention
p359
I00
sVnumber
p360
VSINGULAR
p361
sg12
(lp362
g248
asg14
NsVstartIndex
p363
I14
sVsentNum
p364
I9
sVgender
p365
VMALE
p366
sVposition
p367
(lp368
I9
aI5
asg21
g42
sVtype
p369
VPROPER
p370
sVid
p371
I89
sa(dp372
VendIndex
p373
I9
sVanimacy
p374
VANIMATE
p375
sg6
I00
sVtext
p376
VRandy
p377
sVisRepresentativeMention
p378
I01
sVnumber
p379
VSINGULAR
p380
sg12
(lp381
sg14
NsVstartIndex
p382
I8
sVsentNum
p383
I1
sVgender
p384
VMALE
p385
sVposition
p386
(lp387
I1
aI3
asg21
g42
sVtype
p388
VPROPER
p389
sVid
p390
I2
sa.