(lp1
(dp2
VendIndex
p3
I31
sVanimacy
p4
VANIMATE
p5
sS'title'
p6
I00
sVtext
p7
Vhe
p8
sVisRepresentativeMention
p9
I00
sVnumber
p10
VSINGULAR
p11
sS'name_type'
p12
(lp13
sS'appositive'
p14
NsVstartIndex
p15
I30
sVsentNum
p16
I1
sVgender
p17
VMALE
p18
sVposition
p19
(lp20
I1
aI11
asS'syntax'
p21
S'np-subj'
p22
sVtype
p23
VPRONOMINAL
p24
sVid
p25
I12
sa(dp26
VendIndex
p27
I23
sVanimacy
p28
VANIMATE
p29
sg6
I00
sVtext
p30
Vhis
p31
sVisRepresentativeMention
p32
I00
sVnumber
p33
VSINGULAR
p34
sg12
(lp35
sg14
NsVstartIndex
p36
I22
sVsentNum
p37
I3
sVgender
p38
VMALE
p39
sVposition
p40
(lp41
I3
aI7
asg21
S'subj-det'
p42
sVtype
p43
VPRONOMINAL
p44
sVid
p45
I32
sa(dp46
VendIndex
p47
I14
sVanimacy
p48
VANIMATE
p49
sg6
I00
sVtext
p50
Vhis
p51
sVisRepresentativeMention
p52
I00
sVnumber
p53
VSINGULAR
p54
sg12
(lp55
sg14
NsVstartIndex
p56
I13
sVsentNum
p57
I4
sVgender
p58
VMALE
p59
sVposition
p60
(lp61
I4
aI5
asg21
g42
sVtype
p62
VPRONOMINAL
p63
sVid
p64
I45
sa(dp65
VendIndex
p66
I5
sVanimacy
p67
VANIMATE
p68
sg6
I00
sVtext
p69
Vhe
p70
sVisRepresentativeMention
p71
I00
sVnumber
p72
VSINGULAR
p73
sg12
(lp74
sg14
NsVstartIndex
p75
I4
sVsentNum
p76
I5
sVgender
p77
VMALE
p78
sVposition
p79
(lp80
I5
aI1
asg21
g22
sVtype
p81
VPRONOMINAL
p82
sVid
p83
I50
sa(dp84
VendIndex
p85
I29
sVanimacy
p86
VANIMATE
p87
sg6
I00
sVtext
p88
Vhim
p89
sVisRepresentativeMention
p90
I00
sVnumber
p91
VSINGULAR
p92
sg12
(lp93
sg14
NsVstartIndex
p94
I28
sVsentNum
p95
I5
sVgender
p96
VMALE
p97
sVposition
p98
(lp99
I5
aI9
asg21
S'np-obj'
p100
sVtype
p101
VPRONOMINAL
p102
sVid
p103
I58
sa(dp104
VendIndex
p105
I14
sVanimacy
p106
VANIMATE
p107
sg6
I00
sVtext
p108
Vhe
p109
sVisRepresentativeMention
p110
I00
sVnumber
p111
VSINGULAR
p112
sg12
(lp113
sg14
NsVstartIndex
p114
I13
sVsentNum
p115
I8
sVgender
p116
VMALE
p117
sVposition
p118
(lp119
I8
aI5
asg21
g22
sVtype
p120
VPRONOMINAL
p121
sVid
p122
I81
sa(dp123
VendIndex
p124
I35
sVanimacy
p125
VANIMATE
p126
sg6
I00
sVtext
p127
Vhe
p128
sVisRepresentativeMention
p129
I00
sVnumber
p130
VSINGULAR
p131
sg12
(lp132
sg14
NsVstartIndex
p133
I34
sVsentNum
p134
I9
sVgender
p135
VMALE
p136
sVposition
p137
(lp138
I9
aI11
asg21
g22
sVtype
p139
VPRONOMINAL
p140
sVid
p141
I98
sa(dp142
VendIndex
p143
I37
sVanimacy
p144
VANIMATE
p145
sg6
I00
sVtext
p146
Vhe
p147
sVisRepresentativeMention
p148
I00
sVnumber
p149
VSINGULAR
p150
sg12
(lp151
sg14
NsVstartIndex
p152
I36
sVsentNum
p153
I9
sVgender
p154
VMALE
p155
sVposition
p156
(lp157
I9
aI12
asg21
g22
sVtype
p158
VPRONOMINAL
p159
sVid
p160
I99
sa(dp161
VendIndex
p162
I19
sVanimacy
p163
VANIMATE
p164
sg6
I00
sVtext
p165
Vthey
p166
sVisRepresentativeMention
p167
I00
sVnumber
p168
VPLURAL
p169
sg12
(lp170
sg14
NsVstartIndex
p171
I18
sVsentNum
p172
I8
sVgender
p173
VUNKNOWN
p174
sVposition
p175
(lp176
I8
aI6
asg21
g22
sVtype
p177
VPRONOMINAL
p178
sVid
p179
I82
sa(dp180
VendIndex
p181
I14
sVanimacy
p182
VANIMATE
p183
sg6
I00
sVtext
p184
Vhe
p185
sVisRepresentativeMention
p186
I00
sVnumber
p187
VSINGULAR
p188
sg12
(lp189
sg14
NsVstartIndex
p190
I13
sVsentNum
p191
I9
sVgender
p192
VMALE
p193
sVposition
p194
(lp195
I9
aI5
asg21
g22
sVtype
p196
VPRONOMINAL
p197
sVid
p198
I92
sa(dp199
VendIndex
p200
I18
sVanimacy
p201
VANIMATE
p202
sg6
I00
sVtext
p203
Vhis
p204
sVisRepresentativeMention
p205
I00
sVnumber
p206
VSINGULAR
p207
sg12
(lp208
sg14
NsVstartIndex
p209
I17
sVsentNum
p210
I9
sVgender
p211
VMALE
p212
sVposition
p213
(lp214
I9
aI7
asg21
g42
sVtype
p215
VPRONOMINAL
p216
sVid
p217
I94
sa(dp218
VendIndex
p219
I23
sVanimacy
p220
VANIMATE
p221
sg6
I00
sVtext
p222
Vhis
p223
sVisRepresentativeMention
p224
I00
sVnumber
p225
VSINGULAR
p226
sg12
(lp227
sg14
NsVstartIndex
p228
I22
sVsentNum
p229
I9
sVgender
p230
VMALE
p231
sVposition
p232
(lp233
I9
aI9
asg21
g42
sVtype
p234
VPRONOMINAL
p235
sVid
p236
I96
sa(dp237
VendIndex
p238
I3
sVanimacy
p239
VANIMATE
p240
sg6
I00
sVtext
p241
VRandall Cunningham
p242
sVisRepresentativeMention
p243
I01
sVnumber
p244
VSINGULAR
p245
sg12
(lp246
sg14
NsVstartIndex
p247
I1
sVsentNum
p248
I1
sVgender
p249
VMALE
p250
sVposition
p251
(lp252
I1
aI1
asg21
g22
sVtype
p253
VPROPER
p254
sVid
p255
I1
sa(dp256
VendIndex
p257
I2
sVanimacy
p258
VANIMATE
p259
sg6
I00
sVtext
p260
VCunningham
p261
sVisRepresentativeMention
p262
I00
sVnumber
p263
VSINGULAR
p264
sg12
(lp265
S'surnames'
p266
asg14
NsVstartIndex
p267
I1
sVsentNum
p268
I2
sVgender
p269
VMALE
p270
sVposition
p271
(lp272
I2
aI1
asg21
g22
sVtype
p273
VPROPER
p274
sVid
p275
I19
sa(dp276
VendIndex
p277
I3
sVanimacy
p278
VANIMATE
p279
sg6
I00
sVtext
p280
VCunningham
p281
sVisRepresentativeMention
p282
I00
sVnumber
p283
VSINGULAR
p284
sg12
(lp285
g266
asg14
NsVstartIndex
p286
I2
sVsentNum
p287
I4
sVgender
p288
VMALE
p289
sVposition
p290
(lp291
I4
aI1
asg21
g22
sVtype
p292
VPROPER
p293
sVid
p294
I41
sa(dp295
VendIndex
p296
I3
sVanimacy
p297
VANIMATE
p298
sg6
I00
sVtext
p299
VCunningham's
p300
sVisRepresentativeMention
p301
I00
sVnumber
p302
VSINGULAR
p303
sg12
(lp304
g266
asg14
NsVstartIndex
p305
I1
sVsentNum
p306
I6
sVgender
p307
VMALE
p308
sVposition
p309
(lp310
I6
aI2
asg21
g42
sVtype
p311
VPROPER
p312
sVid
p313
I60
sa(dp314
VendIndex
p315
I4
sVanimacy
p316
VANIMATE
p317
sg6
I00
sVtext
p318
VCunningham's
p319
sVisRepresentativeMention
p320
I00
sVnumber
p321
VSINGULAR
p322
sg12
(lp323
g266
asg14
NsVstartIndex
p324
I2
sVsentNum
p325
I8
sVgender
p326
VMALE
p327
sVposition
p328
(lp329
I8
aI2
asg21
g42
sVtype
p330
VPROPER
p331
sVid
p332
I77
sa(dp333
VendIndex
p334
I9
sVanimacy
p335
VANIMATE
p336
sg6
I00
sVtext
p337
VCunningham
p338
sVisRepresentativeMention
p339
I00
sVnumber
p340
VSINGULAR
p341
sg12
(lp342
g266
asg14
NsVstartIndex
p343
I8
sVsentNum
p344
I8
sVgender
p345
VMALE
p346
sVposition
p347
(lp348
I8
aI3
asg21
g22
sVtype
p349
VPROPER
p350
sVid
p351
I78
sa(dp352
VendIndex
p353
I8
sVanimacy
p354
VANIMATE
p355
sg6
I00
sVtext
p356
VCunningham
p357
sVisRepresentativeMention
p358
I00
sVnumber
p359
VSINGULAR
p360
sg12
(lp361
g266
asg14
NsVstartIndex
p362
I7
sVsentNum
p363
I9
sVgender
p364
VMALE
p365
sVposition
p366
(lp367
I9
aI3
asg21
g42
sVtype
p368
VPROPER
p369
sVid
p370
I87
sa.