(lp1
(dp2
VendIndex
p3
I14
sVanimacy
p4
VANIMATE
p5
sS'title'
p6
I00
sVtext
p7
Vhis
p8
sVisRepresentativeMention
p9
I00
sVnumber
p10
VSINGULAR
p11
sS'name_type'
p12
(lp13
sS'appositive'
p14
NsVstartIndex
p15
I13
sVsentNum
p16
I4
sVgender
p17
VMALE
p18
sVposition
p19
(lp20
I4
aI5
asS'syntax'
p21
S'subj-det'
p22
sVtype
p23
VPRONOMINAL
p24
sVid
p25
I44
sa(dp26
VendIndex
p27
I5
sVanimacy
p28
VANIMATE
p29
sg6
I00
sVtext
p30
Vhe
p31
sVisRepresentativeMention
p32
I00
sVnumber
p33
VSINGULAR
p34
sg12
(lp35
sg14
NsVstartIndex
p36
I4
sVsentNum
p37
I5
sVgender
p38
VMALE
p39
sVposition
p40
(lp41
I5
aI1
asg21
S'np-subj'
p42
sVtype
p43
VPRONOMINAL
p44
sVid
p45
I49
sa(dp46
VendIndex
p47
I29
sVanimacy
p48
VANIMATE
p49
sg6
I00
sVtext
p50
Vhim
p51
sVisRepresentativeMention
p52
I00
sVnumber
p53
VSINGULAR
p54
sg12
(lp55
sg14
NsVstartIndex
p56
I28
sVsentNum
p57
I5
sVgender
p58
VMALE
p59
sVposition
p60
(lp61
I5
aI9
asg21
S'np-obj'
p62
sVtype
p63
VPRONOMINAL
p64
sVid
p65
I57
sa(dp66
VendIndex
p67
I14
sVanimacy
p68
VANIMATE
p69
sg6
I00
sVtext
p70
Vhe
p71
sVisRepresentativeMention
p72
I00
sVnumber
p73
VSINGULAR
p74
sg12
(lp75
sg14
NsVstartIndex
p76
I13
sVsentNum
p77
I8
sVgender
p78
VMALE
p79
sVposition
p80
(lp81
I8
aI5
asg21
g42
sVtype
p82
VPRONOMINAL
p83
sVid
p84
I77
sa(dp85
VendIndex
p86
I19
sVanimacy
p87
VANIMATE
p88
sg6
I00
sVtext
p89
Vthey
p90
sVisRepresentativeMention
p91
I00
sVnumber
p92
VPLURAL
p93
sg12
(lp94
sg14
NsVstartIndex
p95
I18
sVsentNum
p96
I8
sVgender
p97
VUNKNOWN
p98
sVposition
p99
(lp100
I8
aI6
asg21
g42
sVtype
p101
VPRONOMINAL
p102
sVid
p103
I78
sa(dp104
VendIndex
p105
I18
sVanimacy
p106
VANIMATE
p107
sg6
I00
sVtext
p108
Vour
p109
sVisRepresentativeMention
p110
I00
sVnumber
p111
VPLURAL
p112
sg12
(lp113
sg14
NsVstartIndex
p114
I17
sVsentNum
p115
I5
sVgender
p116
VUNKNOWN
p117
sVposition
p118
(lp119
I5
aI7
asg21
g22
sVtype
p120
VPRONOMINAL
p121
sVid
p122
I55
sa(dp123
VendIndex
p124
I3
sVanimacy
p125
VANIMATE
p126
sg6
I00
sVtext
p127
VCunningham
p128
sVisRepresentativeMention
p129
I01
sVnumber
p130
VSINGULAR
p131
sg12
(lp132
S'surnames'
p133
asg14
NsVstartIndex
p134
I2
sVsentNum
p135
I4
sVgender
p136
VMALE
p137
sVposition
p138
(lp139
I4
aI1
asg21
g42
sVtype
p140
VPROPER
p141
sVid
p142
I40
sa(dp143
VendIndex
p144
I4
sVanimacy
p145
VANIMATE
p146
sg6
I00
sVtext
p147
VCunningham's
p148
sVisRepresentativeMention
p149
I00
sVnumber
p150
VSINGULAR
p151
sg12
(lp152
g133
asg14
NsVstartIndex
p153
I2
sVsentNum
p154
I8
sVgender
p155
VMALE
p156
sVposition
p157
(lp158
I8
aI2
asg21
g22
sVtype
p159
VPROPER
p160
sVid
p161
I73
sa(dp162
VendIndex
p163
I9
sVanimacy
p164
VANIMATE
p165
sg6
I00
sVtext
p166
VCunningham
p167
sVisRepresentativeMention
p168
I00
sVnumber
p169
VSINGULAR
p170
sg12
(lp171
g133
asg14
NsVstartIndex
p172
I8
sVsentNum
p173
I8
sVgender
p174
VMALE
p175
sVposition
p176
(lp177
I8
aI3
asg21
g42
sVtype
p178
VPROPER
p179
sVid
p180
I74
sa(dp181
VendIndex
p182
I2
sVanimacy
p183
VANIMATE
p184
sg6
I00
sVtext
p185
VRandall
p186
sVisRepresentativeMention
p187
I01
sVnumber
p188
VSINGULAR
p189
sg12
(lp190
sg14
NsVstartIndex
p191
I1
sVsentNum
p192
I1
sVgender
p193
VMALE
p194
sVposition
p195
(lp196
I1
aI1
asg21
g42
sVtype
p197
VPROPER
p198
sVid
p199
I1
sa(dp200
VendIndex
p201
I25
sVanimacy
p202
VANIMATE
p203
sg6
I00
sVtext
p204
VRandall
p205
sVisRepresentativeMention
p206
I00
sVnumber
p207
VSINGULAR
p208
sg12
(lp209
sg14
NsVstartIndex
p210
I24
sVsentNum
p211
I1
sVgender
p212
VMALE
p213
sVposition
p214
(lp215
I1
aI8
asg21
g62
sVtype
p216
VPROPER
p217
sVid
p218
I3
sa(dp219
VendIndex
p220
I28
sVanimacy
p221
VANIMATE
p222
sg6
I00
sVtext
p223
VRandy
p224
sVisRepresentativeMention
p225
I01
sVnumber
p226
VSINGULAR
p227
sg12
(lp228
sg14
NsVstartIndex
p229
I27
sVsentNum
p230
I1
sVgender
p231
VMALE
p232
sVposition
p233
(lp234
I1
aI9
asg21
g42
sVtype
p235
VPROPER
p236
sVid
p237
I4
sa(dp238
VendIndex
p239
I2
sVanimacy
p240
VANIMATE
p241
sg6
I00
sVtext
p242
VRandy
p243
sVisRepresentativeMention
p244
I00
sVnumber
p245
VSINGULAR
p246
sg12
(lp247
sg14
NsVstartIndex
p248
I1
sVsentNum
p249
I2
sVgender
p250
VMALE
p251
sVposition
p252
(lp253
I2
aI1
asg21
g42
sVtype
p254
VPROPER
p255
sVid
p256
I17
sa(dp257
VendIndex
p258
I41
sVanimacy
p259
VANIMATE
p260
sg6
I00
sVtext
p261
VRandy
p262
sVisRepresentativeMention
p263
I00
sVnumber
p264
VSINGULAR
p265
sg12
(lp266
sg14
NsVstartIndex
p267
I40
sVsentNum
p268
I3
sVgender
p269
VMALE
p270
sVposition
p271
(lp272
I3
aI14
asg21
g62
sVtype
p273
VPROPER
p274
sVid
p275
I23
sa(dp276
VendIndex
p277
I35
sVanimacy
p278
VANIMATE
p279
sg6
I00
sVtext
p280
VRandy
p281
sVisRepresentativeMention
p282
I00
sVnumber
p283
VSINGULAR
p284
sg12
(lp285
sg14
NsVstartIndex
p286
I34
sVsentNum
p287
I9
sVgender
p288
VMALE
p289
sVposition
p290
(lp291
I9
aI8
asg21
g42
sVtype
p292
VPROPER
p293
sVid
p294
I83
sa.