(lp1
(dp2
VendIndex
p3
I25
sVanimacy
p4
VANIMATE
p5
sS'title'
p6
I00
sVtext
p7
Vhim
p8
sVisRepresentativeMention
p9
I00
sVnumber
p10
VSINGULAR
p11
sS'name_type'
p12
(lp13
sS'appositive'
p14
NsVstartIndex
p15
I24
sVsentNum
p16
I1
sVgender
p17
VMALE
p18
sVposition
p19
(lp20
I1
aI9
asS'syntax'
p21
S'np-obj'
p22
sVtype
p23
VPRONOMINAL
p24
sVid
p25
I10
sa(dp26
VendIndex
p27
I28
sVanimacy
p28
VANIMATE
p29
sg6
I00
sVtext
p30
Vhe
p31
sVisRepresentativeMention
p32
I00
sVnumber
p33
VSINGULAR
p34
sg12
(lp35
sg14
NsVstartIndex
p36
I27
sVsentNum
p37
I1
sVgender
p38
VMALE
p39
sVposition
p40
(lp41
I1
aI10
asg21
S'np-subj'
p42
sVtype
p43
VPRONOMINAL
p44
sVid
p45
I11
sa(dp46
VendIndex
p47
I23
sVanimacy
p48
VANIMATE
p49
sg6
I00
sVtext
p50
Vhis
p51
sVisRepresentativeMention
p52
I00
sVnumber
p53
VSINGULAR
p54
sg12
(lp55
sg14
NsVstartIndex
p56
I22
sVsentNum
p57
I3
sVgender
p58
VMALE
p59
sVposition
p60
(lp61
I3
aI7
asg21
S'subj-det'
p62
sVtype
p63
VPRONOMINAL
p64
sVid
p65
I32
sa(dp66
VendIndex
p67
I14
sVanimacy
p68
VANIMATE
p69
sg6
I00
sVtext
p70
Vhis
p71
sVisRepresentativeMention
p72
I00
sVnumber
p73
VSINGULAR
p74
sg12
(lp75
sg14
NsVstartIndex
p76
I13
sVsentNum
p77
I4
sVgender
p78
VMALE
p79
sVposition
p80
(lp81
I4
aI5
asg21
g62
sVtype
p82
VPRONOMINAL
p83
sVid
p84
I44
sa(dp85
VendIndex
p86
I5
sVanimacy
p87
VANIMATE
p88
sg6
I00
sVtext
p89
Vhe
p90
sVisRepresentativeMention
p91
I00
sVnumber
p92
VSINGULAR
p93
sg12
(lp94
sg14
NsVstartIndex
p95
I4
sVsentNum
p96
I5
sVgender
p97
VMALE
p98
sVposition
p99
(lp100
I5
aI1
asg21
g42
sVtype
p101
VPRONOMINAL
p102
sVid
p103
I49
sa(dp104
VendIndex
p105
I29
sVanimacy
p106
VANIMATE
p107
sg6
I00
sVtext
p108
Vhim
p109
sVisRepresentativeMention
p110
I00
sVnumber
p111
VSINGULAR
p112
sg12
(lp113
sg14
NsVstartIndex
p114
I28
sVsentNum
p115
I5
sVgender
p116
VMALE
p117
sVposition
p118
(lp119
I5
aI9
asg21
g22
sVtype
p120
VPRONOMINAL
p121
sVid
p122
I57
sa(dp123
VendIndex
p124
I2
sVanimacy
p125
VANIMATE
p126
sg6
I00
sVtext
p127
VHis
p128
sVisRepresentativeMention
p129
I00
sVnumber
p130
VSINGULAR
p131
sg12
(lp132
sg14
NsVstartIndex
p133
I1
sVsentNum
p134
I6
sVgender
p135
VMALE
p136
sVposition
p137
(lp138
I6
aI2
asg21
g62
sVtype
p139
VPRONOMINAL
p140
sVid
p141
I60
sa(dp142
VendIndex
p143
I14
sVanimacy
p144
VANIMATE
p145
sg6
I00
sVtext
p146
Vhe
p147
sVisRepresentativeMention
p148
I00
sVnumber
p149
VSINGULAR
p150
sg12
(lp151
sg14
NsVstartIndex
p152
I13
sVsentNum
p153
I8
sVgender
p154
VMALE
p155
sVposition
p156
(lp157
I8
aI5
asg21
g42
sVtype
p158
VPRONOMINAL
p159
sVid
p160
I81
sa(dp161
VendIndex
p162
I37
sVanimacy
p163
VANIMATE
p164
sg6
I00
sVtext
p165
Vhe
p166
sVisRepresentativeMention
p167
I00
sVnumber
p168
VSINGULAR
p169
sg12
(lp170
sg14
NsVstartIndex
p171
I36
sVsentNum
p172
I9
sVgender
p173
VMALE
p174
sVposition
p175
(lp176
I9
aI10
asg21
g42
sVtype
p177
VPRONOMINAL
p178
sVid
p179
I97
sa(dp180
VendIndex
p181
I19
sVanimacy
p182
VANIMATE
p183
sg6
I00
sVtext
p184
Vthey
p185
sVisRepresentativeMention
p186
I00
sVnumber
p187
VPLURAL
p188
sg12
(lp189
sg14
NsVstartIndex
p190
I18
sVsentNum
p191
I8
sVgender
p192
VUNKNOWN
p193
sVposition
p194
(lp195
I8
aI6
asg21
g42
sVtype
p196
VPRONOMINAL
p197
sVid
p198
I82
sa(dp199
VendIndex
p200
I2
sVanimacy
p201
VANIMATE
p202
sg6
I00
sVtext
p203
VCunningham
p204
sVisRepresentativeMention
p205
I00
sVnumber
p206
VSINGULAR
p207
sg12
(lp208
S'surnames'
p209
asg14
NsVstartIndex
p210
I1
sVsentNum
p211
I1
sVgender
p212
VMALE
p213
sVposition
p214
(lp215
I1
aI2
asg21
g62
sVtype
p216
VPROPER
p217
sVid
p218
I1
sa(dp219
VendIndex
p220
I2
sVanimacy
p221
VANIMATE
p222
sg6
I00
sVtext
p223
VCunningham
p224
sVisRepresentativeMention
p225
I00
sVnumber
p226
VSINGULAR
p227
sg12
(lp228
g209
asg14
NsVstartIndex
p229
I1
sVsentNum
p230
I2
sVgender
p231
VMALE
p232
sVposition
p233
(lp234
I2
aI1
asg21
g42
sVtype
p235
VPROPER
p236
sVid
p237
I18
sa(dp238
VendIndex
p239
I41
sVanimacy
p240
VANIMATE
p241
sg6
I00
sVtext
p242
VCunningham
p243
sVisRepresentativeMention
p244
I00
sVnumber
p245
VSINGULAR
p246
sg12
(lp247
g209
asg14
NsVstartIndex
p248
I40
sVsentNum
p249
I3
sVgender
p250
VMALE
p251
sVposition
p252
(lp253
I3
aI13
asg21
g22
sVtype
p254
VPROPER
p255
sVid
p256
I24
sa(dp257
VendIndex
p258
I3
sVanimacy
p259
VANIMATE
p260
sg6
I00
sVtext
p261
VCunningham
p262
sVisRepresentativeMention
p263
I00
sVnumber
p264
VSINGULAR
p265
sg12
(lp266
g209
asg14
NsVstartIndex
p267
I2
sVsentNum
p268
I4
sVgender
p269
VMALE
p270
sVposition
p271
(lp272
I4
aI1
asg21
g42
sVtype
p273
VPROPER
p274
sVid
p275
I40
sa(dp276
VendIndex
p277
I22
sVanimacy
p278
VANIMATE
p279
sg6
I00
sVtext
p280
Vthe  Cunningham
p281
sVisRepresentativeMention
p282
I00
sVnumber
p283
VSINGULAR
p284
sg12
(lp285
sg14
NsVstartIndex
p286
I20
sVsentNum
p287
I7
sVgender
p288
VNEUTRAL
p289
sVposition
p290
(lp291
I7
aI8
asg21
g42
sVtype
p292
VPROPER
p293
sVid
p294
I71
sa(dp295
VendIndex
p296
I4
sVanimacy
p297
VANIMATE
p298
sg6
I00
sVtext
p299
VCunningham's
p300
sVisRepresentativeMention
p301
I00
sVnumber
p302
VSINGULAR
p303
sg12
(lp304
g209
asg14
NsVstartIndex
p305
I2
sVsentNum
p306
I8
sVgender
p307
VMALE
p308
sVposition
p309
(lp310
I8
aI2
asg21
g62
sVtype
p311
VPROPER
p312
sVid
p313
I77
sa(dp314
VendIndex
p315
I9
sVanimacy
p316
VANIMATE
p317
sg6
I00
sVtext
p318
VCunningham
p319
sVisRepresentativeMention
p320
I00
sVnumber
p321
VSINGULAR
p322
sg12
(lp323
g209
asg14
NsVstartIndex
p324
I8
sVsentNum
p325
I8
sVgender
p326
VMALE
p327
sVposition
p328
(lp329
I8
aI3
asg21
g42
sVtype
p330
VPROPER
p331
sVid
p332
I78
sa(dp333
VendIndex
p334
I14
sVanimacy
p335
VANIMATE
p336
sg6
I00
sVtext
p337
VCunningham
p338
sVisRepresentativeMention
p339
I00
sVnumber
p340
VSINGULAR
p341
sg12
(lp342
g209
asg14
NsVstartIndex
p343
I13
sVsentNum
p344
I9
sVgender
p345
VMALE
p346
sVposition
p347
(lp348
I9
aI4
asg21
g42
sVtype
p349
VPROPER
p350
sVid
p351
I87
sa(dp352
VendIndex
p353
I35
sVanimacy
p354
VANIMATE
p355
sg6
I00
sVtext
p356
VCunningham
p357
sVisRepresentativeMention
p358
I00
sVnumber
p359
VSINGULAR
p360
sg12
(lp361
g209
asg14
NsVstartIndex
p362
I34
sVsentNum
p363
I9
sVgender
p364
VMALE
p365
sVposition
p366
(lp367
I9
aI9
asg21
g42
sVtype
p368
VPROPER
p369
sVid
p370
I88
sa.