(lp1
(dp2
VendIndex
p3
I23
sVanimacy
p4
VANIMATE
p5
sS'title'
p6
I00
sVtext
p7
Vhis
p8
sVisRepresentativeMention
p9
I00
sVnumber
p10
VSINGULAR
p11
sS'name_type'
p12
(lp13
sS'appositive'
p14
NsVstartIndex
p15
I22
sVsentNum
p16
I3
sVgender
p17
VMALE
p18
sVposition
p19
(lp20
I3
aI7
asS'syntax'
p21
S'subj-det'
p22
sVtype
p23
VPRONOMINAL
p24
sVid
p25
I32
sa(dp26
VendIndex
p27
I14
sVanimacy
p28
VANIMATE
p29
sg6
I00
sVtext
p30
Vhis
p31
sVisRepresentativeMention
p32
I00
sVnumber
p33
VSINGULAR
p34
sg12
(lp35
sg14
NsVstartIndex
p36
I13
sVsentNum
p37
I4
sVgender
p38
VMALE
p39
sVposition
p40
(lp41
I4
aI5
asg21
g22
sVtype
p42
VPRONOMINAL
p43
sVid
p44
I45
sa(dp45
VendIndex
p46
I5
sVanimacy
p47
VANIMATE
p48
sg6
I00
sVtext
p49
Vhe
p50
sVisRepresentativeMention
p51
I00
sVnumber
p52
VSINGULAR
p53
sg12
(lp54
sg14
NsVstartIndex
p55
I4
sVsentNum
p56
I5
sVgender
p57
VMALE
p58
sVposition
p59
(lp60
I5
aI1
asg21
S'np-subj'
p61
sVtype
p62
VPRONOMINAL
p63
sVid
p64
I50
sa(dp65
VendIndex
p66
I29
sVanimacy
p67
VANIMATE
p68
sg6
I00
sVtext
p69
Vhim
p70
sVisRepresentativeMention
p71
I00
sVnumber
p72
VSINGULAR
p73
sg12
(lp74
sg14
NsVstartIndex
p75
I28
sVsentNum
p76
I5
sVgender
p77
VMALE
p78
sVposition
p79
(lp80
I5
aI9
asg21
S'np-obj'
p81
sVtype
p82
VPRONOMINAL
p83
sVid
p84
I58
sa(dp85
VendIndex
p86
I14
sVanimacy
p87
VANIMATE
p88
sg6
I00
sVtext
p89
Vhe
p90
sVisRepresentativeMention
p91
I00
sVnumber
p92
VSINGULAR
p93
sg12
(lp94
sg14
NsVstartIndex
p95
I13
sVsentNum
p96
I8
sVgender
p97
VMALE
p98
sVposition
p99
(lp100
I8
aI5
asg21
g61
sVtype
p101
VPRONOMINAL
p102
sVid
p103
I81
sa(dp104
VendIndex
p105
I30
sVanimacy
p106
VANIMATE
p107
sg6
I00
sVtext
p108
Vhim
p109
sVisRepresentativeMention
p110
I00
sVnumber
p111
VSINGULAR
p112
sg12
(lp113
sg14
NsVstartIndex
p114
I29
sVsentNum
p115
I1
sVgender
p116
VMALE
p117
sVposition
p118
(lp119
I1
aI10
asg21
g81
sVtype
p120
VPRONOMINAL
p121
sVid
p122
I12
sa(dp123
VendIndex
p124
I18
sVanimacy
p125
VANIMATE
p126
sg6
I00
sVtext
p127
Vhis
p128
sVisRepresentativeMention
p129
I00
sVnumber
p130
VSINGULAR
p131
sg12
(lp132
sg14
NsVstartIndex
p133
I17
sVsentNum
p134
I9
sVgender
p135
VMALE
p136
sVposition
p137
(lp138
I9
aI6
asg21
g22
sVtype
p139
VPRONOMINAL
p140
sVid
p141
I93
sa(dp142
VendIndex
p143
I23
sVanimacy
p144
VANIMATE
p145
sg6
I00
sVtext
p146
Vhis
p147
sVisRepresentativeMention
p148
I00
sVnumber
p149
VSINGULAR
p150
sg12
(lp151
sg14
NsVstartIndex
p152
I22
sVsentNum
p153
I9
sVgender
p154
VMALE
p155
sVposition
p156
(lp157
I9
aI8
asg21
g22
sVtype
p158
VPRONOMINAL
p159
sVid
p160
I95
sa(dp161
VendIndex
p162
I19
sVanimacy
p163
VANIMATE
p164
sg6
I00
sVtext
p165
Vthey
p166
sVisRepresentativeMention
p167
I00
sVnumber
p168
VPLURAL
p169
sg12
(lp170
sg14
NsVstartIndex
p171
I18
sVsentNum
p172
I8
sVgender
p173
VUNKNOWN
p174
sVposition
p175
(lp176
I8
aI6
asg21
g61
sVtype
p177
VPRONOMINAL
p178
sVid
p179
I82
sa(dp180
VendIndex
p181
I4
sVanimacy
p182
VANIMATE
p183
sg6
I00
sVtext
p184
VCunningham
p185
sVisRepresentativeMention
p186
I01
sVnumber
p187
VSINGULAR
p188
sg12
(lp189
S'surnames'
p190
asg14
NsVstartIndex
p191
I3
sVsentNum
p192
I1
sVgender
p193
VMALE
p194
sVposition
p195
(lp196
I1
aI1
asg21
g61
sVtype
p197
VPROPER
p198
sVid
p199
I1
sa(dp200
VendIndex
p201
I2
sVanimacy
p202
VANIMATE
p203
sg6
I00
sVtext
p204
VCunningham
p205
sVisRepresentativeMention
p206
I00
sVnumber
p207
VSINGULAR
p208
sg12
(lp209
g190
asg14
NsVstartIndex
p210
I1
sVsentNum
p211
I2
sVgender
p212
VMALE
p213
sVposition
p214
(lp215
I2
aI1
asg21
g61
sVtype
p216
VPROPER
p217
sVid
p218
I19
sa(dp219
VendIndex
p220
I3
sVanimacy
p221
VANIMATE
p222
sg6
I00
sVtext
p223
VCunningham
p224
sVisRepresentativeMention
p225
I00
sVnumber
p226
VSINGULAR
p227
sg12
(lp228
g190
asg14
NsVstartIndex
p229
I2
sVsentNum
p230
I4
sVgender
p231
VMALE
p232
sVposition
p233
(lp234
I4
aI1
asg21
g61
sVtype
p235
VPROPER
p236
sVid
p237
I41
sa(dp238
VendIndex
p239
I3
sVanimacy
p240
VANIMATE
p241
sg6
I00
sVtext
p242
VCunningham's
p243
sVisRepresentativeMention
p244
I00
sVnumber
p245
VSINGULAR
p246
sg12
(lp247
g190
asg14
NsVstartIndex
p248
I1
sVsentNum
p249
I6
sVgender
p250
VMALE
p251
sVposition
p252
(lp253
I6
aI2
asg21
g22
sVtype
p254
VPROPER
p255
sVid
p256
I60
sa(dp257
VendIndex
p258
I4
sVanimacy
p259
VANIMATE
p260
sg6
I00
sVtext
p261
VCunningham's
p262
sVisRepresentativeMention
p263
I00
sVnumber
p264
VSINGULAR
p265
sg12
(lp266
g190
asg14
NsVstartIndex
p267
I2
sVsentNum
p268
I8
sVgender
p269
VMALE
p270
sVposition
p271
(lp272
I8
aI2
asg21
g22
sVtype
p273
VPROPER
p274
sVid
p275
I77
sa(dp276
VendIndex
p277
I9
sVanimacy
p278
VANIMATE
p279
sg6
I00
sVtext
p280
VCunningham
p281
sVisRepresentativeMention
p282
I00
sVnumber
p283
VSINGULAR
p284
sg12
(lp285
g190
asg14
NsVstartIndex
p286
I8
sVsentNum
p287
I8
sVgender
p288
VMALE
p289
sVposition
p290
(lp291
I8
aI3
asg21
g61
sVtype
p292
VPROPER
p293
sVid
p294
I78
sa(dp295
VendIndex
p296
I9
sVanimacy
p297
VANIMATE
p298
sg6
I00
sVtext
p299
VRandy
p300
sVisRepresentativeMention
p301
I01
sVnumber
p302
VSINGULAR
p303
sg12
(lp304
sg14
NsVstartIndex
p305
I8
sVsentNum
p306
I1
sVgender
p307
VMALE
p308
sVposition
p309
(lp310
I1
aI3
asg21
g61
sVtype
p311
VPROPER
p312
sVid
p313
I2
sa(dp314
VendIndex
p315
I33
sVanimacy
p316
VANIMATE
p317
sg6
I00
sVtext
p318
VRandy
p319
sVisRepresentativeMention
p320
I00
sVnumber
p321
VSINGULAR
p322
sg12
(lp323
sg14
NsVstartIndex
p324
I32
sVsentNum
p325
I1
sVgender
p326
VMALE
p327
sVposition
p328
(lp329
I1
aI11
asg21
g61
sVtype
p330
VPROPER
p331
sVid
p332
I4
sa(dp333
VendIndex
p334
I14
sVanimacy
p335
VANIMATE
p336
sg6
I00
sVtext
p337
VRandy
p338
sVisRepresentativeMention
p339
I00
sVnumber
p340
VSINGULAR
p341
sg12
(lp342
sg14
NsVstartIndex
p343
I13
sVsentNum
p344
I9
sVgender
p345
VMALE
p346
sVposition
p347
(lp348
I9
aI4
asg21
g61
sVtype
p349
VPROPER
p350
sVid
p351
I87
sa.