(lp1
(dp2
VendIndex
p3
I19
sVanimacy
p4
VANIMATE
p5
sS'title'
p6
I00
sVtext
p7
Vthey
p8
sVisRepresentativeMention
p9
I00
sVnumber
p10
VPLURAL
p11
sS'name_type'
p12
(lp13
sS'appositive'
p14
NsVstartIndex
p15
I18
sVsentNum
p16
I8
sVgender
p17
VUNKNOWN
p18
sVposition
p19
(lp20
I8
aI6
asS'syntax'
p21
S'np-subj'
p22
sVtype
p23
VPRONOMINAL
p24
sVid
p25
I87
sa(dp26
VendIndex
p27
I30
sVanimacy
p28
VANIMATE
p29
sg6
I00
sVtext
p30
Vhim
p31
sVisRepresentativeMention
p32
I00
sVnumber
p33
VSINGULAR
p34
sg12
(lp35
sg14
NsVstartIndex
p36
I29
sVsentNum
p37
I1
sVgender
p38
VMALE
p39
sVposition
p40
(lp41
I1
aI13
asg21
S'np-obj'
p42
sVtype
p43
VPRONOMINAL
p44
sVid
p45
I14
sa(dp46
VendIndex
p47
I23
sVanimacy
p48
VANIMATE
p49
sg6
I00
sVtext
p50
Vhis
p51
sVisRepresentativeMention
p52
I00
sVnumber
p53
VSINGULAR
p54
sg12
(lp55
sg14
NsVstartIndex
p56
I22
sVsentNum
p57
I3
sVgender
p58
VMALE
p59
sVposition
p60
(lp61
I3
aI7
asg21
S'subj-det'
p62
sVtype
p63
VPRONOMINAL
p64
sVid
p65
I36
sa(dp66
VendIndex
p67
I14
sVanimacy
p68
VANIMATE
p69
sg6
I00
sVtext
p70
Vhis
p71
sVisRepresentativeMention
p72
I00
sVnumber
p73
VSINGULAR
p74
sg12
(lp75
sg14
NsVstartIndex
p76
I13
sVsentNum
p77
I4
sVgender
p78
VMALE
p79
sVposition
p80
(lp81
I4
aI5
asg21
g62
sVtype
p82
VPRONOMINAL
p83
sVid
p84
I49
sa(dp85
VendIndex
p86
I5
sVanimacy
p87
VANIMATE
p88
sg6
I00
sVtext
p89
Vhe
p90
sVisRepresentativeMention
p91
I00
sVnumber
p92
VSINGULAR
p93
sg12
(lp94
sg14
NsVstartIndex
p95
I4
sVsentNum
p96
I5
sVgender
p97
VMALE
p98
sVposition
p99
(lp100
I5
aI1
asg21
g22
sVtype
p101
VPRONOMINAL
p102
sVid
p103
I54
sa(dp104
VendIndex
p105
I29
sVanimacy
p106
VANIMATE
p107
sg6
I00
sVtext
p108
Vhim
p109
sVisRepresentativeMention
p110
I00
sVnumber
p111
VSINGULAR
p112
sg12
(lp113
sg14
NsVstartIndex
p114
I28
sVsentNum
p115
I5
sVgender
p116
VMALE
p117
sVposition
p118
(lp119
I5
aI9
asg21
g42
sVtype
p120
VPRONOMINAL
p121
sVid
p122
I62
sa(dp123
VendIndex
p124
I14
sVanimacy
p125
VANIMATE
p126
sg6
I00
sVtext
p127
Vhe
p128
sVisRepresentativeMention
p129
I00
sVnumber
p130
VSINGULAR
p131
sg12
(lp132
sg14
NsVstartIndex
p133
I13
sVsentNum
p134
I8
sVgender
p135
VMALE
p136
sVposition
p137
(lp138
I8
aI5
asg21
g22
sVtype
p139
VPRONOMINAL
p140
sVid
p141
I86
sa(dp142
VendIndex
p143
I19
sVanimacy
p144
VANIMATE
p145
sg6
I00
sVtext
p146
Vhis
p147
sVisRepresentativeMention
p148
I00
sVnumber
p149
VSINGULAR
p150
sg12
(lp151
sg14
NsVstartIndex
p152
I18
sVsentNum
p153
I9
sVgender
p154
VMALE
p155
sVposition
p156
(lp157
I9
aI6
asg21
g62
sVtype
p158
VPRONOMINAL
p159
sVid
p160
I98
sa(dp161
VendIndex
p162
I24
sVanimacy
p163
VANIMATE
p164
sg6
I00
sVtext
p165
Vhis
p166
sVisRepresentativeMention
p167
I00
sVnumber
p168
VSINGULAR
p169
sg12
(lp170
sg14
NsVstartIndex
p171
I23
sVsentNum
p172
I9
sVgender
p173
VMALE
p174
sVposition
p175
(lp176
I9
aI8
asg21
g62
sVtype
p177
VPRONOMINAL
p178
sVid
p179
I100
sa(dp180
VendIndex
p181
I4
sVanimacy
p182
VANIMATE
p183
sg6
I00
sVtext
p184
VRandall Harold Cunningham
p185
sVisRepresentativeMention
p186
I01
sVnumber
p187
VSINGULAR
p188
sg12
(lp189
S'birthNames'
p190
asg14
NsVstartIndex
p191
I1
sVsentNum
p192
I1
sVgender
p193
VMALE
p194
sVposition
p195
(lp196
I1
aI1
asg21
g22
sVtype
p197
VPROPER
p198
sVid
p199
I1
sa(dp200
VendIndex
p201
I2
sVanimacy
p202
VANIMATE
p203
sg6
I00
sVtext
p204
VCunningham
p205
sVisRepresentativeMention
p206
I00
sVnumber
p207
VSINGULAR
p208
sg12
(lp209
S'surnames'
p210
asg14
NsVstartIndex
p211
I1
sVsentNum
p212
I2
sVgender
p213
VMALE
p214
sVposition
p215
(lp216
I2
aI1
asg21
g22
sVtype
p217
VPROPER
p218
sVid
p219
I22
sa(dp220
VendIndex
p221
I3
sVanimacy
p222
VANIMATE
p223
sg6
I00
sVtext
p224
VCunningham
p225
sVisRepresentativeMention
p226
I00
sVnumber
p227
VSINGULAR
p228
sg12
(lp229
g210
asg14
NsVstartIndex
p230
I2
sVsentNum
p231
I4
sVgender
p232
VMALE
p233
sVposition
p234
(lp235
I4
aI1
asg21
g22
sVtype
p236
VPROPER
p237
sVid
p238
I45
sa(dp239
VendIndex
p240
I4
sVanimacy
p241
VANIMATE
p242
sg6
I00
sVtext
p243
VCunningham's
p244
sVisRepresentativeMention
p245
I00
sVnumber
p246
VSINGULAR
p247
sg12
(lp248
g210
asg14
NsVstartIndex
p249
I2
sVsentNum
p250
I8
sVgender
p251
VMALE
p252
sVposition
p253
(lp254
I8
aI2
asg21
g62
sVtype
p255
VPROPER
p256
sVid
p257
I82
sa(dp258
VendIndex
p259
I9
sVanimacy
p260
VANIMATE
p261
sg6
I00
sVtext
p262
VCunningham
p263
sVisRepresentativeMention
p264
I00
sVnumber
p265
VSINGULAR
p266
sg12
(lp267
g210
asg14
NsVstartIndex
p268
I8
sVsentNum
p269
I8
sVgender
p270
VMALE
p271
sVposition
p272
(lp273
I8
aI3
asg21
g22
sVtype
p274
VPROPER
p275
sVid
p276
I83
sa(dp277
VendIndex
p278
I7
sVanimacy
p279
VANIMATE
p280
sg6
I00
sVtext
p281
VRandy
p282
sVisRepresentativeMention
p283
I01
sVnumber
p284
VSINGULAR
p285
sg12
(lp286
sg14
NsVstartIndex
p287
I6
sVsentNum
p288
I1
sVgender
p289
VMALE
p290
sVposition
p291
(lp292
I1
aI4
asg21
g22
sVtype
p293
VPROPER
p294
sVid
p295
I2
sa(dp296
VendIndex
p297
I15
sVanimacy
p298
VANIMATE
p299
sg6
I00
sVtext
p300
VRandy
p301
sVisRepresentativeMention
p302
I00
sVnumber
p303
VSINGULAR
p304
sg12
(lp305
sg14
NsVstartIndex
p306
I14
sVsentNum
p307
I9
sVgender
p308
VMALE
p309
sVposition
p310
(lp311
I9
aI4
asg21
g22
sVtype
p312
VPROPER
p313
sVid
p314
I92
sa.