(lp1
(dp2
VendIndex
p3
I19
sVanimacy
p4
VANIMATE
p5
sS'title'
p6
I00
sVtext
p7
Vthey
p8
sVisRepresentativeMention
p9
I00
sVnumber
p10
VPLURAL
p11
sS'name_type'
p12
(lp13
sS'appositive'
p14
NsVstartIndex
p15
I18
sVsentNum
p16
I8
sVgender
p17
VUNKNOWN
p18
sVposition
p19
(lp20
I8
aI6
asS'syntax'
p21
S'np-subj'
p22
sVtype
p23
VPRONOMINAL
p24
sVid
p25
I86
sa(dp26
VendIndex
p27
I23
sVanimacy
p28
VANIMATE
p29
sg6
I00
sVtext
p30
Vhis
p31
sVisRepresentativeMention
p32
I00
sVnumber
p33
VSINGULAR
p34
sg12
(lp35
sg14
NsVstartIndex
p36
I22
sVsentNum
p37
I3
sVgender
p38
VMALE
p39
sVposition
p40
(lp41
I3
aI7
asg21
S'subj-det'
p42
sVtype
p43
VPRONOMINAL
p44
sVid
p45
I35
sa(dp46
VendIndex
p47
I41
sVanimacy
p48
VANIMATE
p49
sg6
I00
sVtext
p50
Vhim
p51
sVisRepresentativeMention
p52
I00
sVnumber
p53
VSINGULAR
p54
sg12
(lp55
sg14
NsVstartIndex
p56
I40
sVsentNum
p57
I3
sVgender
p58
VMALE
p59
sVposition
p60
(lp61
I3
aI13
asg21
S'np-obj'
p62
sVtype
p63
VPRONOMINAL
p64
sVid
p65
I40
sa(dp66
VendIndex
p67
I14
sVanimacy
p68
VANIMATE
p69
sg6
I00
sVtext
p70
Vhis
p71
sVisRepresentativeMention
p72
I00
sVnumber
p73
VSINGULAR
p74
sg12
(lp75
sg14
NsVstartIndex
p76
I13
sVsentNum
p77
I4
sVgender
p78
VMALE
p79
sVposition
p80
(lp81
I4
aI5
asg21
g42
sVtype
p82
VPRONOMINAL
p83
sVid
p84
I48
sa(dp85
VendIndex
p86
I5
sVanimacy
p87
VANIMATE
p88
sg6
I00
sVtext
p89
Vhe
p90
sVisRepresentativeMention
p91
I00
sVnumber
p92
VSINGULAR
p93
sg12
(lp94
sg14
NsVstartIndex
p95
I4
sVsentNum
p96
I5
sVgender
p97
VMALE
p98
sVposition
p99
(lp100
I5
aI1
asg21
g22
sVtype
p101
VPRONOMINAL
p102
sVid
p103
I53
sa(dp104
VendIndex
p105
I29
sVanimacy
p106
VANIMATE
p107
sg6
I00
sVtext
p108
Vhim
p109
sVisRepresentativeMention
p110
I00
sVnumber
p111
VSINGULAR
p112
sg12
(lp113
sg14
NsVstartIndex
p114
I28
sVsentNum
p115
I5
sVgender
p116
VMALE
p117
sVposition
p118
(lp119
I5
aI9
asg21
g62
sVtype
p120
VPRONOMINAL
p121
sVid
p122
I61
sa(dp123
VendIndex
p124
I23
sVanimacy
p125
VANIMATE
p126
sg6
I00
sVtext
p127
Vthe  he
p128
sVisRepresentativeMention
p129
I00
sVnumber
p130
VSINGULAR
p131
sg12
(lp132
sg14
NsVstartIndex
p133
I21
sVsentNum
p134
I7
sVgender
p135
VMALE
p136
sVposition
p137
(lp138
I7
aI8
asg21
g22
sVtype
p139
VPRONOMINAL
p140
sVid
p141
I75
sa(dp142
VendIndex
p143
I14
sVanimacy
p144
VANIMATE
p145
sg6
I00
sVtext
p146
Vhe
p147
sVisRepresentativeMention
p148
I00
sVnumber
p149
VSINGULAR
p150
sg12
(lp151
sg14
NsVstartIndex
p152
I13
sVsentNum
p153
I8
sVgender
p154
VMALE
p155
sVposition
p156
(lp157
I8
aI5
asg21
g22
sVtype
p158
VPRONOMINAL
p159
sVid
p160
I85
sa(dp161
VendIndex
p162
I38
sVanimacy
p163
VANIMATE
p164
sg6
I00
sVtext
p165
Vhe
p166
sVisRepresentativeMention
p167
I00
sVnumber
p168
VSINGULAR
p169
sg12
(lp170
sg14
NsVstartIndex
p171
I37
sVsentNum
p172
I9
sVgender
p173
VMALE
p174
sVposition
p175
(lp176
I9
aI11
asg21
g22
sVtype
p177
VPRONOMINAL
p178
sVid
p179
I102
sa(dp180
VendIndex
p181
I15
sVanimacy
p182
VANIMATE
p183
sg6
I00
sVtext
p184
Vhe
p185
sVisRepresentativeMention
p186
I00
sVnumber
p187
VSINGULAR
p188
sg12
(lp189
sg14
NsVstartIndex
p190
I14
sVsentNum
p191
I9
sVgender
p192
VMALE
p193
sVposition
p194
(lp195
I9
aI5
asg21
g22
sVtype
p196
VPRONOMINAL
p197
sVid
p198
I97
sa(dp199
VendIndex
p200
I19
sVanimacy
p201
VANIMATE
p202
sg6
I00
sVtext
p203
Vhis
p204
sVisRepresentativeMention
p205
I00
sVnumber
p206
VSINGULAR
p207
sg12
(lp208
sg14
NsVstartIndex
p209
I18
sVsentNum
p210
I9
sVgender
p211
VMALE
p212
sVposition
p213
(lp214
I9
aI7
asg21
g42
sVtype
p215
VPRONOMINAL
p216
sVid
p217
I99
sa(dp218
VendIndex
p219
I12
sVanimacy
p220
VANIMATE
p221
sg6
I00
sVtext
p222
VRandall Harold Cunningham
p223
sVisRepresentativeMention
p224
I01
sVnumber
p225
VSINGULAR
p226
sg12
(lp227
S'birthNames'
p228
asg14
NsVstartIndex
p229
I9
sVsentNum
p230
I1
sVgender
p231
VMALE
p232
sVposition
p233
(lp234
I1
aI6
asg21
g22
sVtype
p235
VPROPER
p236
sVid
p237
I3
sa(dp238
VendIndex
p239
I36
sVanimacy
p240
VANIMATE
p241
sg6
I00
sVtext
p242
VCunningham
p243
sVisRepresentativeMention
p244
I00
sVnumber
p245
VSINGULAR
p246
sg12
(lp247
S'surnames'
p248
asg14
NsVstartIndex
p249
I35
sVsentNum
p250
I1
sVgender
p251
VMALE
p252
sVposition
p253
(lp254
I1
aI14
asg21
g22
sVtype
p255
VPROPER
p256
sVid
p257
I5
sa(dp258
VendIndex
p259
I4
sVanimacy
p260
VANIMATE
p261
sg6
I00
sVtext
p262
VRandall Harold Cunningham
p263
sVisRepresentativeMention
p264
I00
sVnumber
p265
VSINGULAR
p266
sg12
(lp267
g228
asg14
NsVstartIndex
p268
I1
sVsentNum
p269
I2
sVgender
p270
VMALE
p271
sVposition
p272
(lp273
I2
aI1
asg21
g22
sVtype
p274
VPROPER
p275
sVid
p276
I22
sa(dp277
VendIndex
p278
I3
sVanimacy
p279
VANIMATE
p280
sg6
I00
sVtext
p281
VCunningham
p282
sVisRepresentativeMention
p283
I00
sVnumber
p284
VSINGULAR
p285
sg12
(lp286
g248
asg14
NsVstartIndex
p287
I2
sVsentNum
p288
I4
sVgender
p289
VMALE
p290
sVposition
p291
(lp292
I4
aI1
asg21
g22
sVtype
p293
VPROPER
p294
sVid
p295
I44
sa(dp296
VendIndex
p297
I3
sVanimacy
p298
VANIMATE
p299
sg6
I00
sVtext
p300
VCunningham 's
p301
sVisRepresentativeMention
p302
I00
sVnumber
p303
VSINGULAR
p304
sg12
(lp305
sg14
NsVstartIndex
p306
I1
sVsentNum
p307
I6
sVgender
p308
VMALE
p309
sVposition
p310
(lp311
I6
aI2
asg21
g42
sVtype
p312
VPROPER
p313
sVid
p314
I63
sa(dp315
VendIndex
p316
I11
sVanimacy
p317
VANIMATE
p318
sg6
I00
sVtext
p319
VCunningham 's
p320
sVisRepresentativeMention
p321
I00
sVnumber
p322
VSINGULAR
p323
sg12
(lp324
sg14
NsVstartIndex
p325
I9
sVsentNum
p326
I7
sVgender
p327
VMALE
p328
sVposition
p329
(lp330
I7
aI4
asg21
g42
sVtype
p331
VPROPER
p332
sVid
p333
I66
sa(dp334
VendIndex
p335
I4
sVanimacy
p336
VANIMATE
p337
sg6
I00
sVtext
p338
VCunningham's
p339
sVisRepresentativeMention
p340
I00
sVnumber
p341
VSINGULAR
p342
sg12
(lp343
g248
asg14
NsVstartIndex
p344
I2
sVsentNum
p345
I8
sVgender
p346
VMALE
p347
sVposition
p348
(lp349
I8
aI2
asg21
g42
sVtype
p350
VPROPER
p351
sVid
p352
I81
sa(dp353
VendIndex
p354
I9
sVanimacy
p355
VANIMATE
p356
sg6
I00
sVtext
p357
VCunningham
p358
sVisRepresentativeMention
p359
I00
sVnumber
p360
VSINGULAR
p361
sg12
(lp362
g248
asg14
NsVstartIndex
p363
I8
sVsentNum
p364
I8
sVgender
p365
VMALE
p366
sVposition
p367
(lp368
I8
aI3
asg21
g22
sVtype
p369
VPROPER
p370
sVid
p371
I82
sa(dp372
VendIndex
p373
I36
sVanimacy
p374
VANIMATE
p375
sg6
I00
sVtext
p376
VCunningham
p377
sVisRepresentativeMention
p378
I00
sVnumber
p379
VSINGULAR
p380
sg12
(lp381
g248
asg14
NsVstartIndex
p382
I35
sVsentNum
p383
I9
sVgender
p384
VMALE
p385
sVposition
p386
(lp387
I9
aI10
asg21
g22
sVtype
p388
VPROPER
p389
sVid
p390
I91
sa(dp391
VendIndex
p392
I9
sVanimacy
p393
VANIMATE
p394
sg6
I00
sVtext
p395
Va  Cunningham 's
p396
sVisRepresentativeMention
p397
I01
sVnumber
p398
VSINGULAR
p399
sg12
(lp400
sg14
NsVstartIndex
p401
I6
sVsentNum
p402
I9
sVgender
p403
VMALE
p404
sVposition
p405
(lp406
I9
aI3
asg21
g42
sVtype
p407
VPROPER
p408
sVid
p409
I95
sa.