(lp1
(dp2
VendIndex
p3
I27
sVanimacy
p4
VANIMATE
p5
sS'title'
p6
I00
sVtext
p7
Vhe
p8
sVisRepresentativeMention
p9
I00
sVnumber
p10
VSINGULAR
p11
sS'name_type'
p12
(lp13
sS'appositive'
p14
NsVstartIndex
p15
I26
sVsentNum
p16
I13
sVgender
p17
VMALE
p18
sVposition
p19
(lp20
I13
aI8
asS'syntax'
p21
S'np-subj'
p22
sVtype
p23
VPRONOMINAL
p24
sVid
p25
I121
sa(dp26
VendIndex
p27
I35
sVanimacy
p28
VINANIMATE
p29
sg6
I00
sVtext
p30
Vits
p31
sVisRepresentativeMention
p32
I00
sVnumber
p33
VSINGULAR
p34
sg12
(lp35
sg14
NsVstartIndex
p36
I34
sVsentNum
p37
I2
sVgender
p38
VUNKNOWN
p39
sVposition
p40
(lp41
I2
aI15
asg21
S'subj-det'
p42
sVtype
p43
VPRONOMINAL
p44
sVid
p45
I26
sa(dp46
VendIndex
p47
I9
sVanimacy
p48
VANIMATE
p49
sg6
I00
sVtext
p50
Vhe
p51
sVisRepresentativeMention
p52
I00
sVnumber
p53
VSINGULAR
p54
sg12
(lp55
sg14
NsVstartIndex
p56
I8
sVsentNum
p57
I3
sVgender
p58
VMALE
p59
sVposition
p60
(lp61
I3
aI3
asg21
g22
sVtype
p62
VPRONOMINAL
p63
sVid
p64
I31
sa(dp65
VendIndex
p66
I16
sVanimacy
p67
VANIMATE
p68
sg6
I00
sVtext
p69
Vhe
p70
sVisRepresentativeMention
p71
I00
sVnumber
p72
VSINGULAR
p73
sg12
(lp74
sg14
NsVstartIndex
p75
I15
sVsentNum
p76
I3
sVgender
p77
VMALE
p78
sVposition
p79
(lp80
I3
aI5
asg21
g22
sVtype
p81
VPRONOMINAL
p82
sVid
p83
I33
sa(dp84
VendIndex
p85
I18
sVanimacy
p86
VANIMATE
p87
sg6
I00
sVtext
p88
Vhe
p89
sVisRepresentativeMention
p90
I00
sVnumber
p91
VSINGULAR
p92
sg12
(lp93
sg14
NsVstartIndex
p94
I17
sVsentNum
p95
I3
sVgender
p96
VMALE
p97
sVposition
p98
(lp99
I3
aI6
asg21
g22
sVtype
p100
VPRONOMINAL
p101
sVid
p102
I34
sa(dp103
VendIndex
p104
I12
sVanimacy
p105
VANIMATE
p106
sg6
I00
sVtext
p107
Vhe
p108
sVisRepresentativeMention
p109
I00
sVnumber
p110
VSINGULAR
p111
sg12
(lp112
sg14
NsVstartIndex
p113
I11
sVsentNum
p114
I8
sVgender
p115
VMALE
p116
sVposition
p117
(lp118
I8
aI6
asg21
g22
sVtype
p119
VPRONOMINAL
p120
sVid
p121
I79
sa(dp122
VendIndex
p123
I27
sVanimacy
p124
VANIMATE
p125
sg6
I00
sVtext
p126
Vhis
p127
sVisRepresentativeMention
p128
I00
sVnumber
p129
VSINGULAR
p130
sg12
(lp131
sg14
NsVstartIndex
p132
I26
sVsentNum
p133
I8
sVgender
p134
VMALE
p135
sVposition
p136
(lp137
I8
aI12
asg21
g42
sVtype
p138
VPRONOMINAL
p139
sVid
p140
I85
sa(dp141
VendIndex
p142
I5
sVanimacy
p143
VANIMATE
p144
sg6
I00
sVtext
p145
Vhis
p146
sVisRepresentativeMention
p147
I00
sVnumber
p148
VSINGULAR
p149
sg12
(lp150
sg14
NsVstartIndex
p151
I4
sVsentNum
p152
I9
sVgender
p153
VMALE
p154
sVposition
p155
(lp156
I9
aI3
asg21
g42
sVtype
p157
VPRONOMINAL
p158
sVid
p159
I92
sa(dp160
VendIndex
p161
I7
sVanimacy
p162
VANIMATE
p163
sg6
I00
sVtext
p164
VLawrence Henry &quot;Larry&quot; Summers
p165
sVisRepresentativeMention
p166
I01
sVnumber
p167
VSINGULAR
p168
sg12
(lp169
sg14
NsVstartIndex
p170
I1
sVsentNum
p171
I1
sVgender
p172
VMALE
p173
sVposition
p174
(lp175
I1
aI1
asg21
g22
sVtype
p176
VPROPER
p177
sVid
p178
I1
sa(dp179
VendIndex
p180
I13
sVanimacy
p181
VANIMATE
p182
sg6
I00
sVtext
p183
VSummers
p184
sVisRepresentativeMention
p185
I00
sVnumber
p186
VSINGULAR
p187
sg12
(lp188
S'surnames'
p189
asg14
NsVstartIndex
p190
I12
sVsentNum
p191
I6
sVgender
p192
VMALE
p193
sVposition
p194
(lp195
I6
aI5
asg21
g42
sVtype
p196
VPROPER
p197
sVid
p198
I57
sa.