(lp1
(dp2
VendIndex
p3
I14
sVanimacy
p4
VANIMATE
p5
sS'title'
p6
I00
sVtext
p7
Vhe
p8
sVisRepresentativeMention
p9
I00
sVnumber
p10
VSINGULAR
p11
sS'name_type'
p12
(lp13
sS'appositive'
p14
NsVstartIndex
p15
I13
sVsentNum
p16
I3
sVgender
p17
VMALE
p18
sVposition
p19
(lp20
I3
aI3
asS'syntax'
p21
S'np-subj'
p22
sVtype
p23
VPRONOMINAL
p24
sVid
p25
I30
sa(dp26
VendIndex
p27
I21
sVanimacy
p28
VANIMATE
p29
sg6
I00
sVtext
p30
Vhe
p31
sVisRepresentativeMention
p32
I00
sVnumber
p33
VSINGULAR
p34
sg12
(lp35
sg14
NsVstartIndex
p36
I20
sVsentNum
p37
I3
sVgender
p38
VMALE
p39
sVposition
p40
(lp41
I3
aI5
asg21
g22
sVtype
p42
VPRONOMINAL
p43
sVid
p44
I32
sa(dp45
VendIndex
p46
I5
sVanimacy
p47
VANIMATE
p48
sg6
I00
sVtext
p49
Vhe
p50
sVisRepresentativeMention
p51
I00
sVnumber
p52
VSINGULAR
p53
sg12
(lp54
sg14
NsVstartIndex
p55
I4
sVsentNum
p56
I4
sVgender
p57
VMALE
p58
sVposition
p59
(lp60
I4
aI2
asg21
g22
sVtype
p61
VPRONOMINAL
p62
sVid
p63
I42
sa(dp64
VendIndex
p65
I19
sVanimacy
p66
VANIMATE
p67
sg6
I00
sVtext
p68
Vhe
p69
sVisRepresentativeMention
p70
I00
sVnumber
p71
VSINGULAR
p72
sg12
(lp73
sg14
NsVstartIndex
p74
I18
sVsentNum
p75
I4
sVgender
p76
VMALE
p77
sVposition
p78
(lp79
I4
aI6
asg21
g22
sVtype
p80
VPRONOMINAL
p81
sVid
p82
I45
sa(dp83
VendIndex
p84
I7
sVanimacy
p85
VANIMATE
p86
sg6
I00
sVtext
p87
VLawrence Henry &quot;Larry&quot; Summers
p88
sVisRepresentativeMention
p89
I01
sVnumber
p90
VSINGULAR
p91
sg12
(lp92
sg14
NsVstartIndex
p93
I1
sVsentNum
p94
I1
sVgender
p95
VMALE
p96
sVposition
p97
(lp98
I1
aI1
asg21
g22
sVtype
p99
VPROPER
p100
sVid
p101
I1
sa(dp102
VendIndex
p103
I10
sVanimacy
p104
VANIMATE
p105
sg6
I00
sVtext
p106
VLawrence Henry &quot;Larry&quot; Summers
p107
sVisRepresentativeMention
p108
I00
sVnumber
p109
VSINGULAR
p110
sg12
(lp111
sg14
NsVstartIndex
p112
I4
sVsentNum
p113
I2
sVgender
p114
VMALE
p115
sVposition
p116
(lp117
I2
aI2
asg21
S'subj-det'
p118
sVtype
p119
VPROPER
p120
sVid
p121
I12
sa(dp122
VendIndex
p123
I12
sVanimacy
p124
VANIMATE
p125
sg6
I00
sVtext
p126
VLawrence Henry &quot;Larry&quot; Summers
p127
sVisRepresentativeMention
p128
I00
sVnumber
p129
VSINGULAR
p130
sg12
(lp131
sg14
NsVstartIndex
p132
I6
sVsentNum
p133
I3
sVgender
p134
VMALE
p135
sVposition
p136
(lp137
I3
aI2
asg21
g118
sVtype
p138
VPROPER
p139
sVid
p140
I26
sa(dp141
VendIndex
p142
I3
sVanimacy
p143
VANIMATE
p144
sg6
I00
sVtext
p145
VLarry Summers
p146
sVisRepresentativeMention
p147
I00
sVnumber
p148
VSINGULAR
p149
sg12
(lp150
sg14
NsVstartIndex
p151
I1
sVsentNum
p152
I4
sVgender
p153
VMALE
p154
sVposition
p155
(lp156
I4
aI1
asg21
g22
sVtype
p157
VPROPER
p158
sVid
p159
I40
sa.