(lp1
(dp2
VendIndex
p3
I16
sVanimacy
p4
VANIMATE
p5
sS'title'
p6
I00
sVtext
p7
Vhe
p8
sVisRepresentativeMention
p9
I00
sVnumber
p10
VSINGULAR
p11
sS'name_type'
p12
(lp13
sS'appositive'
p14
NsVstartIndex
p15
I15
sVsentNum
p16
I3
sVgender
p17
VMALE
p18
sVposition
p19
(lp20
I3
aI5
asS'syntax'
p21
S'np-subj'
p22
sVtype
p23
VPRONOMINAL
p24
sVid
p25
I33
sa(dp26
VendIndex
p27
I7
sVanimacy
p28
VANIMATE
p29
sg6
I00
sVtext
p30
VLawrence Henry &quot;Larry&quot; Summers
p31
sVisRepresentativeMention
p32
I01
sVnumber
p33
VSINGULAR
p34
sg12
(lp35
sg14
NsVstartIndex
p36
I1
sVsentNum
p37
I1
sVgender
p38
VMALE
p39
sVposition
p40
(lp41
I1
aI1
asg21
g22
sVtype
p42
VPROPER
p43
sVid
p44
I1
sa.