(lp1
(dp2
VendIndex
p3
I35
sVanimacy
p4
VINANIMATE
p5
sS'title'
p6
I00
sVtext
p7
Vits
p8
sVisRepresentativeMention
p9
I00
sVnumber
p10
VSINGULAR
p11
sS'name_type'
p12
(lp13
sS'appositive'
p14
NsVstartIndex
p15
I34
sVsentNum
p16
I2
sVgender
p17
VUNKNOWN
p18
sVposition
p19
(lp20
I2
aI15
asS'syntax'
p21
S'subj-det'
p22
sVtype
p23
VPRONOMINAL
p24
sVid
p25
I26
sa(dp26
VendIndex
p27
I9
sVanimacy
p28
VANIMATE
p29
sg6
I00
sVtext
p30
Vhe
p31
sVisRepresentativeMention
p32
I00
sVnumber
p33
VSINGULAR
p34
sg12
(lp35
sg14
NsVstartIndex
p36
I8
sVsentNum
p37
I3
sVgender
p38
VMALE
p39
sVposition
p40
(lp41
I3
aI3
asg21
S'np-subj'
p42
sVtype
p43
VPRONOMINAL
p44
sVid
p45
I31
sa(dp46
VendIndex
p47
I16
sVanimacy
p48
VANIMATE
p49
sg6
I00
sVtext
p50
Vhe
p51
sVisRepresentativeMention
p52
I00
sVnumber
p53
VSINGULAR
p54
sg12
(lp55
sg14
NsVstartIndex
p56
I15
sVsentNum
p57
I3
sVgender
p58
VMALE
p59
sVposition
p60
(lp61
I3
aI5
asg21
g42
sVtype
p62
VPRONOMINAL
p63
sVid
p64
I33
sa(dp65
VendIndex
p66
I2
sVanimacy
p67
VANIMATE
p68
sg6
I00
sVtext
p69
VHe
p70
sVisRepresentativeMention
p71
I00
sVnumber
p72
VSINGULAR
p73
sg12
(lp74
sg14
NsVstartIndex
p75
I1
sVsentNum
p76
I4
sVgender
p77
VMALE
p78
sVposition
p79
(lp80
I4
aI1
asg21
g42
sVtype
p81
VPRONOMINAL
p82
sVid
p83
I42
sa(dp84
VendIndex
p85
I18
sVanimacy
p86
VANIMATE
p87
sg6
I00
sVtext
p88
Vhe
p89
sVisRepresentativeMention
p90
I00
sVnumber
p91
VSINGULAR
p92
sg12
(lp93
sg14
NsVstartIndex
p94
I17
sVsentNum
p95
I4
sVgender
p96
VMALE
p97
sVposition
p98
(lp99
I4
aI6
asg21
g42
sVtype
p100
VPRONOMINAL
p101
sVid
p102
I46
sa(dp103
VendIndex
p104
I7
sVanimacy
p105
VANIMATE
p106
sg6
I00
sVtext
p107
VLawrence Henry &quot;Larry&quot; Summers
p108
sVisRepresentativeMention
p109
I01
sVnumber
p110
VSINGULAR
p111
sg12
(lp112
sg14
NsVstartIndex
p113
I1
sVsentNum
p114
I1
sVgender
p115
VMALE
p116
sVposition
p117
(lp118
I1
aI1
asg21
g42
sVtype
p119
VPROPER
p120
sVid
p121
I1
sa.