(lp1
(dp2
VendIndex
p3
I35
sVanimacy
p4
VINANIMATE
p5
sS'title'
p6
I00
sVtext
p7
Vits
p8
sVisRepresentativeMention
p9
I00
sVnumber
p10
VSINGULAR
p11
sS'name_type'
p12
(lp13
sS'appositive'
p14
NsVstartIndex
p15
I34
sVsentNum
p16
I2
sVgender
p17
VUNKNOWN
p18
sVposition
p19
(lp20
I2
aI15
asS'syntax'
p21
S'subj-det'
p22
sVtype
p23
VPRONOMINAL
p24
sVid
p25
I26
sa(dp26
VendIndex
p27
I9
sVanimacy
p28
VANIMATE
p29
sg6
I00
sVtext
p30
Vhe
p31
sVisRepresentativeMention
p32
I00
sVnumber
p33
VSINGULAR
p34
sg12
(lp35
sg14
NsVstartIndex
p36
I8
sVsentNum
p37
I3
sVgender
p38
VMALE
p39
sVposition
p40
(lp41
I3
aI3
asg21
S'np-subj'
p42
sVtype
p43
VPRONOMINAL
p44
sVid
p45
I31
sa(dp46
VendIndex
p47
I16
sVanimacy
p48
VANIMATE
p49
sg6
I00
sVtext
p50
Vhe
p51
sVisRepresentativeMention
p52
I00
sVnumber
p53
VSINGULAR
p54
sg12
(lp55
sg14
NsVstartIndex
p56
I15
sVsentNum
p57
I3
sVgender
p58
VMALE
p59
sVposition
p60
(lp61
I3
aI5
asg21
g42
sVtype
p62
VPRONOMINAL
p63
sVid
p64
I33
sa(dp65
VendIndex
p66
I7
sVanimacy
p67
VANIMATE
p68
sg6
I00
sVtext
p69
VLawrence Henry &quot;Larry&quot; Summers
p70
sVisRepresentativeMention
p71
I01
sVnumber
p72
VSINGULAR
p73
sg12
(lp74
sg14
NsVstartIndex
p75
I1
sVsentNum
p76
I1
sVgender
p77
VMALE
p78
sVposition
p79
(lp80
I1
aI1
asg21
g42
sVtype
p81
VPROPER
p82
sVid
p83
I1
sa(dp84
VendIndex
p85
I26
sVanimacy
p86
VANIMATE
p87
sg6
I00
sVtext
p88
VSummers
p89
sVisRepresentativeMention
p90
I00
sVnumber
p91
VSINGULAR
p92
sg12
(lp93
S'surnames'
p94
asg14
NsVstartIndex
p95
I25
sVsentNum
p96
I13
sVgender
p97
VMALE
p98
sVposition
p99
(lp100
I13
aI8
asg21
g42
sVtype
p101
VPROPER
p102
sVid
p103
I111
sa.