(lp1
(dp2
VendIndex
p3
I9
sVanimacy
p4
VANIMATE
p5
sS'title'
p6
I00
sVtext
p7
Vhe
p8
sVisRepresentativeMention
p9
I00
sVnumber
p10
VSINGULAR
p11
sS'name_type'
p12
(lp13
sS'appositive'
p14
NsVstartIndex
p15
I8
sVsentNum
p16
I3
sVgender
p17
VMALE
p18
sVposition
p19
(lp20
I3
aI3
asS'syntax'
p21
S'np-subj'
p22
sVtype
p23
VPRONOMINAL
p24
sVid
p25
I31
sa(dp26
VendIndex
p27
I16
sVanimacy
p28
VANIMATE
p29
sg6
I00
sVtext
p30
Vhe
p31
sVisRepresentativeMention
p32
I00
sVnumber
p33
VSINGULAR
p34
sg12
(lp35
sg14
NsVstartIndex
p36
I15
sVsentNum
p37
I3
sVgender
p38
VMALE
p39
sVposition
p40
(lp41
I3
aI5
asg21
g22
sVtype
p42
VPRONOMINAL
p43
sVid
p44
I33
sa(dp45
VendIndex
p46
I4
sVanimacy
p47
VANIMATE
p48
sg6
I00
sVtext
p49
VLawrence Henry Summers
p50
sVisRepresentativeMention
p51
I01
sVnumber
p52
VSINGULAR
p53
sg12
(lp54
S'birthNames'
p55
asg14
NsVstartIndex
p56
I1
sVsentNum
p57
I1
sVgender
p58
VMALE
p59
sVposition
p60
(lp61
I1
aI1
asg21
g22
sVtype
p62
VPROPER
p63
sVid
p64
I1
sa.