(lp1
(dp2
VendIndex
p3
I9
sVanimacy
p4
VANIMATE
p5
sS'title'
p6
I00
sVtext
p7
Vhe
p8
sVisRepresentativeMention
p9
I00
sVnumber
p10
VSINGULAR
p11
sS'name_type'
p12
(lp13
sS'appositive'
p14
NsVstartIndex
p15
I8
sVsentNum
p16
I3
sVgender
p17
VMALE
p18
sVposition
p19
(lp20
I3
aI3
asS'syntax'
p21
S'np-subj'
p22
sVtype
p23
VPRONOMINAL
p24
sVid
p25
I31
sa(dp26
VendIndex
p27
I16
sVanimacy
p28
VANIMATE
p29
sg6
I00
sVtext
p30
Vhe
p31
sVisRepresentativeMention
p32
I00
sVnumber
p33
VSINGULAR
p34
sg12
(lp35
sg14
NsVstartIndex
p36
I15
sVsentNum
p37
I3
sVgender
p38
VMALE
p39
sVposition
p40
(lp41
I3
aI5
asg21
g22
sVtype
p42
VPRONOMINAL
p43
sVid
p44
I33
sa(dp45
VendIndex
p46
I18
sVanimacy
p47
VANIMATE
p48
sg6
I00
sVtext
p49
Vhe
p50
sVisRepresentativeMention
p51
I00
sVnumber
p52
VSINGULAR
p53
sg12
(lp54
sg14
NsVstartIndex
p55
I17
sVsentNum
p56
I4
sVgender
p57
VMALE
p58
sVposition
p59
(lp60
I4
aI6
asg21
g22
sVtype
p61
VPRONOMINAL
p62
sVid
p63
I45
sa(dp64
VendIndex
p65
I3
sVanimacy
p66
VANIMATE
p67
sg6
I00
sVtext
p68
VLarry Summers
p69
sVisRepresentativeMention
p70
I01
sVnumber
p71
VSINGULAR
p72
sg12
(lp73
sg14
NsVstartIndex
p74
I1
sVsentNum
p75
I1
sVgender
p76
VMALE
p77
sVposition
p78
(lp79
I1
aI1
asg21
g22
sVtype
p80
VPROPER
p81
sVid
p82
I1
sa(dp83
VendIndex
p84
I2
sVanimacy
p85
VANIMATE
p86
sg6
I00
sVtext
p87
VLarry
p88
sVisRepresentativeMention
p89
I00
sVnumber
p90
VSINGULAR
p91
sg12
(lp92
sg14
NsVstartIndex
p93
I1
sVsentNum
p94
I4
sVgender
p95
VMALE
p96
sVposition
p97
(lp98
I4
aI1
asg21
g22
sVtype
p99
VPROPER
p100
sVid
p101
I40
sa(dp102
VendIndex
p103
I4
sVanimacy
p104
VANIMATE
p105
sg6
I00
sVtext
p106
VSummers
p107
sVisRepresentativeMention
p108
I00
sVnumber
p109
VSINGULAR
p110
sg12
(lp111
S'surnames'
p112
asg14
NsVstartIndex
p113
I3
sVsentNum
p114
I4
sVgender
p115
VMALE
p116
sVposition
p117
(lp118
I4
aI2
asg21
g22
sVtype
p119
VPROPER
p120
sVid
p121
I41
sa(dp122
VendIndex
p123
I13
sVanimacy
p124
VANIMATE
p125
sg6
I00
sVtext
p126
VLarry Summers
p127
sVisRepresentativeMention
p128
I00
sVnumber
p129
VSINGULAR
p130
sg12
(lp131
sg14
NsVstartIndex
p132
I11
sVsentNum
p133
I6
sVgender
p134
VMALE
p135
sVposition
p136
(lp137
I6
aI5
asg21
S'subj-det'
p138
sVtype
p139
VPROPER
p140
sVid
p141
I56
sa.