(lp1
(dp2
VendIndex
p3
I19
sVanimacy
p4
VANIMATE
p5
sS'title'
p6
I00
sVtext
p7
Vhis
p8
sVisRepresentativeMention
p9
I00
sVnumber
p10
VSINGULAR
p11
sS'name_type'
p12
(lp13
sS'appositive'
p14
NsVstartIndex
p15
I18
sVsentNum
p16
I3
sVgender
p17
VMALE
p18
sVposition
p19
(lp20
I3
aI8
asS'syntax'
p21
S'subj-det'
p22
sVtype
p23
VPRONOMINAL
p24
sVid
p25
I33
sa(dp26
VendIndex
p27
I8
sVanimacy
p28
VANIMATE
p29
sg6
I00
sVtext
p30
VPirro
p31
sVisRepresentativeMention
p32
I01
sVnumber
p33
VSINGULAR
p34
sg12
(lp35
S'surnames'
p36
asg14
(dp37
VendIndex
p38
I15
sVanimacy
p39
VANIMATE
p40
sg6
I00
sVtext
p41
Va former Westchester County district attorney
p42
sVisRepresentativeMention
p43
I00
sVnumber
p44
VSINGULAR
p45
sg12
(lp46
sg14
NsVstartIndex
p47
I9
sVsentNum
p48
I3
sVgender
p49
VMALE
p50
sVposition
p51
(lp52
I3
aI5
asVtype
p53
VNOMINAL
p54
sVid
p55
I31
ssVstartIndex
p56
I7
sVsentNum
p57
I3
sVgender
p58
VMALE
p59
sVposition
p60
(lp61
I3
aI3
asg21
S'np-subj'
p62
sVtype
p63
VPROPER
p64
sVid
p65
I26
sa(dp66
VendIndex
p67
I16
sVanimacy
p68
VANIMATE
p69
sg6
I00
sVtext
p70
VPirro
p71
sVisRepresentativeMention
p72
I00
sVnumber
p73
VSINGULAR
p74
sg12
(lp75
g36
asg14
NsVstartIndex
p76
I15
sVsentNum
p77
I6
sVgender
p78
VMALE
p79
sVposition
p80
(lp81
I6
aI5
asg21
g62
sVtype
p82
VPROPER
p83
sVid
p84
I54
sa(dp85
VendIndex
p86
I4
sVanimacy
p87
VANIMATE
p88
sg6
I00
sVtext
p89
VJeanine Ferris Pirro
p90
sVisRepresentativeMention
p91
I01
sVnumber
p92
VSINGULAR
p93
sg12
(lp94
sg14
NsVstartIndex
p95
I1
sVsentNum
p96
I1
sVgender
p97
VNEUTRAL
p98
sVposition
p99
(lp100
I1
aI1
asg21
g62
sVtype
p101
VPROPER
p102
sVid
p103
I1
sa.