(lp1
(dp2
VendIndex
p3
I20
sVanimacy
p4
VANIMATE
p5
sS'title'
p6
I00
sVtext
p7
Vher
p8
sVisRepresentativeMention
p9
I00
sVnumber
p10
VSINGULAR
p11
sS'name_type'
p12
(lp13
sS'appositive'
p14
NsVstartIndex
p15
I19
sVsentNum
p16
I3
sVgender
p17
VFEMALE
p18
sVposition
p19
(lp20
I3
aI9
asS'syntax'
p21
S'subj-det'
p22
sVtype
p23
VPRONOMINAL
p24
sVid
p25
I34
sa(dp26
VendIndex
p27
I8
sVanimacy
p28
VANIMATE
p29
sg6
I00
sVtext
p30
Vshe
p31
sVisRepresentativeMention
p32
I00
sVnumber
p33
VSINGULAR
p34
sg12
(lp35
sg14
NsVstartIndex
p36
I7
sVsentNum
p37
I4
sVgender
p38
VFEMALE
p39
sVposition
p40
(lp41
I4
aI3
asg21
S'np-subj'
p42
sVtype
p43
VPRONOMINAL
p44
sVid
p45
I44
sa(dp46
VendIndex
p47
I22
sVanimacy
p48
VANIMATE
p49
sg6
I00
sVtext
p50
Vher
p51
sVisRepresentativeMention
p52
I00
sVnumber
p53
VSINGULAR
p54
sg12
(lp55
sg14
NsVstartIndex
p56
I21
sVsentNum
p57
I6
sVgender
p58
VFEMALE
p59
sVposition
p60
(lp61
I6
aI9
asg21
g22
sVtype
p62
VPRONOMINAL
p63
sVid
p64
I62
sa(dp65
VendIndex
p66
I14
sVanimacy
p67
VANIMATE
p68
sg6
I00
sVtext
p69
Vher
p70
sVisRepresentativeMention
p71
I00
sVnumber
p72
VSINGULAR
p73
sg12
(lp74
sg14
NsVstartIndex
p75
I13
sVsentNum
p76
I7
sVgender
p77
VFEMALE
p78
sVposition
p79
(lp80
I7
aI8
asg21
g22
sVtype
p81
VPRONOMINAL
p82
sVid
p83
I74
sa(dp84
VendIndex
p85
I6
sVanimacy
p86
VANIMATE
p87
sg6
I00
sVtext
p88
Vher
p89
sVisRepresentativeMention
p90
I00
sVnumber
p91
VSINGULAR
p92
sg12
(lp93
sg14
NsVstartIndex
p94
I5
sVsentNum
p95
I8
sVgender
p96
VFEMALE
p97
sVposition
p98
(lp99
I8
aI3
asg21
g22
sVtype
p100
VPRONOMINAL
p101
sVid
p102
I81
sa(dp103
VendIndex
p104
I19
sVanimacy
p105
VANIMATE
p106
sg6
I00
sVtext
p107
Vshe
p108
sVisRepresentativeMention
p109
I00
sVnumber
p110
VSINGULAR
p111
sg12
(lp112
sg14
NsVstartIndex
p113
I18
sVsentNum
p114
I8
sVgender
p115
VFEMALE
p116
sVposition
p117
(lp118
I8
aI7
asg21
g42
sVtype
p119
VPRONOMINAL
p120
sVid
p121
I85
sa(dp122
VendIndex
p123
I2
sVanimacy
p124
VANIMATE
p125
sg6
I00
sVtext
p126
VShe
p127
sVisRepresentativeMention
p128
I00
sVnumber
p129
VSINGULAR
p130
sg12
(lp131
sg14
NsVstartIndex
p132
I1
sVsentNum
p133
I9
sVgender
p134
VFEMALE
p135
sVposition
p136
(lp137
I9
aI1
asg21
g42
sVtype
p138
VPRONOMINAL
p139
sVid
p140
I90
sa(dp141
VendIndex
p142
I3
sVanimacy
p143
VANIMATE
p144
sg6
I00
sVtext
p145
VI
sVisRepresentativeMention
p146
I00
sVnumber
p147
VSINGULAR
p148
sg12
(lp149
sg14
NsVstartIndex
p150
I2
sVsentNum
p151
I10
sVgender
p152
VUNKNOWN
p153
sVposition
p154
(lp155
I10
aI1
asg21
g42
sVtype
p156
VPRONOMINAL
p157
sVid
p158
I95
sa(dp159
VendIndex
p160
I2
sVanimacy
p161
VANIMATE
p162
sg6
I00
sVtext
p163
VShe
p164
sVisRepresentativeMention
p165
I00
sVnumber
p166
VSINGULAR
p167
sg12
(lp168
sg14
NsVstartIndex
p169
I1
sVsentNum
p170
I12
sVgender
p171
VFEMALE
p172
sVposition
p173
(lp174
I12
aI1
asg21
g42
sVtype
p175
VPRONOMINAL
p176
sVid
p177
I105
sa(dp178
VendIndex
p179
I6
sVanimacy
p180
VANIMATE
p181
sg6
I00
sVtext
p182
VI
sVisRepresentativeMention
p183
I00
sVnumber
p184
VSINGULAR
p185
sg12
(lp186
sg14
NsVstartIndex
p187
I5
sVsentNum
p188
I12
sVgender
p189
VUNKNOWN
p190
sVposition
p191
(lp192
I12
aI2
asg21
g42
sVtype
p193
VPRONOMINAL
p194
sVid
p195
I106
sa(dp196
VendIndex
p197
I3
sVanimacy
p198
VANIMATE
p199
sg6
I00
sVtext
p200
VI
sVisRepresentativeMention
p201
I00
sVnumber
p202
VSINGULAR
p203
sg12
(lp204
sg14
NsVstartIndex
p205
I2
sVsentNum
p206
I13
sVgender
p207
VUNKNOWN
p208
sVposition
p209
(lp210
I13
aI1
asg21
g42
sVtype
p211
VPRONOMINAL
p212
sVid
p213
I107
sa(dp214
VendIndex
p215
I36
sVanimacy
p216
VANIMATE
p217
sg6
I00
sVtext
p218
Vher
p219
sVisRepresentativeMention
p220
I00
sVnumber
p221
VSINGULAR
p222
sg12
(lp223
sg14
NsVstartIndex
p224
I35
sVsentNum
p225
I19
sVgender
p226
VFEMALE
p227
sVposition
p228
(lp229
I19
aI9
asg21
g22
sVtype
p230
VPRONOMINAL
p231
sVid
p232
I156
sa(dp233
VendIndex
p234
I3
sVanimacy
p235
VANIMATE
p236
sg6
I00
sVtext
p237
VJeannine Pirro
p238
sVisRepresentativeMention
p239
I01
sVnumber
p240
VSINGULAR
p241
sg12
(lp242
S'foaf_names'
p243
aS'dbp_names'
p244
asg14
NsVstartIndex
p245
I1
sVsentNum
p246
I1
sVgender
p247
VFEMALE
p248
sVposition
p249
(lp250
I1
aI1
asg21
g42
sVtype
p251
VPROPER
p252
sVid
p253
I1
sa(dp254
VendIndex
p255
I30
sVanimacy
p256
VANIMATE
p257
sg6
I01
sVtext
p258
VMs. Pirro
p259
sVisRepresentativeMention
p260
I00
sVnumber
p261
VSINGULAR
p262
sg12
(lp263
S'surnames'
p264
asg14
NsVstartIndex
p265
I28
sVsentNum
p266
I2
sVgender
p267
VFEMALE
p268
sVposition
p269
(lp270
I2
aI10
asg21
g22
sVtype
p271
VPROPER
p272
sVid
p273
I25
sa(dp274
VendIndex
p275
I9
sVanimacy
p276
VANIMATE
p277
sg6
I00
sVtext
p278
VPirro
p279
sVisRepresentativeMention
p280
I00
sVnumber
p281
VSINGULAR
p282
sg12
(lp283
g264
asg14
(dp284
VendIndex
p285
I16
sVanimacy
p286
VANIMATE
p287
sg6
I00
sVtext
p288
Va former Westchester County district attorney
p289
sVisRepresentativeMention
p290
I00
sVnumber
p291
VSINGULAR
p292
sg12
(lp293
sg14
NsVstartIndex
p294
I10
sVsentNum
p295
I3
sVgender
p296
VMALE
p297
sVposition
p298
(lp299
I3
aI6
asVtype
p300
VNOMINAL
p301
sVid
p302
I32
ssVstartIndex
p303
I8
sVsentNum
p304
I3
sVgender
p305
VMALE
p306
sVposition
p307
(lp308
I3
aI3
asg21
g42
sVtype
p309
VPROPER
p310
sVid
p311
I26
sa(dp312
VendIndex
p313
I12
sVanimacy
p314
VANIMATE
p315
sg6
I01
sVtext
p316
VMs. Pirro
p317
sVisRepresentativeMention
p318
I00
sVnumber
p319
VSINGULAR
p320
sg12
(lp321
g264
asg14
NsVstartIndex
p322
I10
sVsentNum
p323
I5
sVgender
p324
VFEMALE
p325
sVposition
p326
(lp327
I5
aI3
asg21
g42
sVtype
p328
VPROPER
p329
sVid
p330
I53
sa(dp331
VendIndex
p332
I15
sVanimacy
p333
VANIMATE
p334
sg6
I00
sVtext
p335
VPirro
p336
sVisRepresentativeMention
p337
I00
sVnumber
p338
VSINGULAR
p339
sg12
(lp340
g264
asg14
NsVstartIndex
p341
I14
sVsentNum
p342
I6
sVgender
p343
VMALE
p344
sVposition
p345
(lp346
I6
aI4
asg21
g22
sVtype
p347
VPROPER
p348
sVid
p349
I55
sa(dp350
VendIndex
p351
I9
sVanimacy
p352
VANIMATE
p353
sg6
I00
sVtext
p354
VPirro
p355
sVisRepresentativeMention
p356
I00
sVnumber
p357
VSINGULAR
p358
sg12
(lp359
g264
asg14
NsVstartIndex
p360
I8
sVsentNum
p361
I7
sVgender
p362
VMALE
p363
sVposition
p364
(lp365
I7
aI3
asg21
g22
sVtype
p366
VPROPER
p367
sVid
p368
I66
sa(dp369
VendIndex
p370
I14
sVanimacy
p371
VANIMATE
p372
sg6
I01
sVtext
p373
VMs. Pirro
p374
sVisRepresentativeMention
p375
I00
sVnumber
p376
VSINGULAR
p377
sg12
(lp378
g264
asg14
NsVstartIndex
p379
I12
sVsentNum
p380
I10
sVgender
p381
VFEMALE
p382
sVposition
p383
(lp384
I10
aI3
asg21
g42
sVtype
p385
VPROPER
p386
sVid
p387
I97
sa(dp388
VendIndex
p389
I10
sVanimacy
p390
VANIMATE
p391
sg6
I01
sVtext
p392
VMs. Pirro
p393
sVisRepresentativeMention
p394
I00
sVnumber
p395
VSINGULAR
p396
sg12
(lp397
g264
asg14
NsVstartIndex
p398
I8
sVsentNum
p399
I19
sVgender
p400
VFEMALE
p401
sVposition
p402
(lp403
I19
aI2
asg21
g42
sVtype
p404
VPROPER
p405
sVid
p406
I149
sa.