(lp1
(dp2
VendIndex
p3
I19
sVanimacy
p4
VANIMATE
p5
sS'title'
p6
I00
sVtext
p7
Vher
p8
sVisRepresentativeMention
p9
I00
sVnumber
p10
VSINGULAR
p11
sS'name_type'
p12
(lp13
sS'appositive'
p14
NsVstartIndex
p15
I18
sVsentNum
p16
I3
sVgender
p17
VFEMALE
p18
sVposition
p19
(lp20
I3
aI8
asS'syntax'
p21
S'subj-det'
p22
sVtype
p23
VPRONOMINAL
p24
sVid
p25
I33
sa(dp26
VendIndex
p27
I11
sVanimacy
p28
VANIMATE
p29
sg6
I00
sVtext
p30
Vshe
p31
sVisRepresentativeMention
p32
I00
sVnumber
p33
VSINGULAR
p34
sg12
(lp35
sg14
NsVstartIndex
p36
I10
sVsentNum
p37
I5
sVgender
p38
VFEMALE
p39
sVposition
p40
(lp41
I5
aI3
asg21
S'np-subj'
p42
sVtype
p43
VPRONOMINAL
p44
sVid
p45
I52
sa(dp46
VendIndex
p47
I13
sVanimacy
p48
VANIMATE
p49
sg6
I00
sVtext
p50
Vher
p51
sVisRepresentativeMention
p52
I00
sVnumber
p53
VSINGULAR
p54
sg12
(lp55
sg14
NsVstartIndex
p56
I12
sVsentNum
p57
I7
sVgender
p58
VFEMALE
p59
sVposition
p60
(lp61
I7
aI7
asg21
g22
sVtype
p62
VPRONOMINAL
p63
sVid
p64
I70
sa(dp65
VendIndex
p66
I18
sVanimacy
p67
VANIMATE
p68
sg6
I00
sVtext
p69
Vshe
p70
sVisRepresentativeMention
p71
I00
sVnumber
p72
VSINGULAR
p73
sg12
(lp74
sg14
NsVstartIndex
p75
I17
sVsentNum
p76
I8
sVgender
p77
VFEMALE
p78
sVposition
p79
(lp80
I8
aI7
asg21
g42
sVtype
p81
VPRONOMINAL
p82
sVid
p83
I81
sa(dp84
VendIndex
p85
I2
sVanimacy
p86
VANIMATE
p87
sg6
I00
sVtext
p88
VShe
p89
sVisRepresentativeMention
p90
I00
sVnumber
p91
VSINGULAR
p92
sg12
(lp93
sg14
NsVstartIndex
p94
I1
sVsentNum
p95
I9
sVgender
p96
VFEMALE
p97
sVposition
p98
(lp99
I9
aI1
asg21
g42
sVtype
p100
VPRONOMINAL
p101
sVid
p102
I86
sa(dp103
VendIndex
p104
I3
sVanimacy
p105
VANIMATE
p106
sg6
I00
sVtext
p107
VI
sVisRepresentativeMention
p108
I00
sVnumber
p109
VSINGULAR
p110
sg12
(lp111
sg14
NsVstartIndex
p112
I2
sVsentNum
p113
I10
sVgender
p114
VUNKNOWN
p115
sVposition
p116
(lp117
I10
aI1
asg21
g42
sVtype
p118
VPRONOMINAL
p119
sVid
p120
I91
sa(dp121
VendIndex
p122
I13
sVanimacy
p123
VANIMATE
p124
sg6
I00
sVtext
p125
Vshe
p126
sVisRepresentativeMention
p127
I00
sVnumber
p128
VSINGULAR
p129
sg12
(lp130
sg14
NsVstartIndex
p131
I12
sVsentNum
p132
I10
sVgender
p133
VFEMALE
p134
sVposition
p135
(lp136
I10
aI3
asg21
g42
sVtype
p137
VPRONOMINAL
p138
sVid
p139
I93
sa(dp140
VendIndex
p141
I3
sVanimacy
p142
VANIMATE
p143
sg6
I00
sVtext
p144
Vshe
p145
sVisRepresentativeMention
p146
I00
sVnumber
p147
VSINGULAR
p148
sg12
(lp149
sg14
NsVstartIndex
p150
I2
sVsentNum
p151
I12
sVgender
p152
VFEMALE
p153
sVposition
p154
(lp155
I12
aI1
asg21
g42
sVtype
p156
VPRONOMINAL
p157
sVid
p158
I101
sa(dp159
VendIndex
p160
I7
sVanimacy
p161
VANIMATE
p162
sg6
I00
sVtext
p163
VI
sVisRepresentativeMention
p164
I00
sVnumber
p165
VSINGULAR
p166
sg12
(lp167
sg14
NsVstartIndex
p168
I6
sVsentNum
p169
I12
sVgender
p170
VUNKNOWN
p171
sVposition
p172
(lp173
I12
aI2
asg21
g42
sVtype
p174
VPRONOMINAL
p175
sVid
p176
I102
sa(dp177
VendIndex
p178
I3
sVanimacy
p179
VANIMATE
p180
sg6
I00
sVtext
p181
VI
sVisRepresentativeMention
p182
I00
sVnumber
p183
VSINGULAR
p184
sg12
(lp185
sg14
NsVstartIndex
p186
I2
sVsentNum
p187
I13
sVgender
p188
VUNKNOWN
p189
sVposition
p190
(lp191
I13
aI1
asg21
g42
sVtype
p192
VPRONOMINAL
p193
sVid
p194
I103
sa(dp195
VendIndex
p196
I35
sVanimacy
p197
VANIMATE
p198
sg6
I00
sVtext
p199
Vher
p200
sVisRepresentativeMention
p201
I00
sVnumber
p202
VSINGULAR
p203
sg12
(lp204
sg14
NsVstartIndex
p205
I34
sVsentNum
p206
I19
sVgender
p207
VFEMALE
p208
sVposition
p209
(lp210
I19
aI9
asg21
g22
sVtype
p211
VPRONOMINAL
p212
sVid
p213
I152
sa(dp214
VendIndex
p215
I8
sVanimacy
p216
VANIMATE
p217
sg6
I00
sVtext
p218
VJeanine
p219
sVisRepresentativeMention
p220
I00
sVnumber
p221
VSINGULAR
p222
sg12
(lp223
S'givenNames'
p224
asg14
NsVstartIndex
p225
I7
sVsentNum
p226
I3
sVgender
p227
VFEMALE
p228
sVposition
p229
(lp230
I3
aI3
asg21
g42
sVtype
p231
VPROPER
p232
sVid
p233
I26
sa(dp234
VendIndex
p235
I8
sVanimacy
p236
VANIMATE
p237
sg6
I00
sVtext
p238
VJeanine
p239
sVisRepresentativeMention
p240
I00
sVnumber
p241
VSINGULAR
p242
sg12
(lp243
g224
asg14
NsVstartIndex
p244
I7
sVsentNum
p245
I4
sVgender
p246
VFEMALE
p247
sVposition
p248
(lp249
I4
aI3
asg21
g42
sVtype
p250
VPROPER
p251
sVid
p252
I41
sa(dp253
VendIndex
p254
I21
sVanimacy
p255
VANIMATE
p256
sg6
I00
sVtext
p257
VJeanine
p258
sVisRepresentativeMention
p259
I00
sVnumber
p260
VSINGULAR
p261
sg12
(lp262
g224
asg14
NsVstartIndex
p263
I20
sVsentNum
p264
I6
sVgender
p265
VFEMALE
p266
sVposition
p267
(lp268
I6
aI7
asg21
g22
sVtype
p269
VPROPER
p270
sVid
p271
I54
sa(dp272
VendIndex
p273
I2
sVanimacy
p274
VANIMATE
p275
sg6
I00
sVtext
p276
VJeanine
p277
sVisRepresentativeMention
p278
I00
sVnumber
p279
VSINGULAR
p280
sg12
(lp281
g224
asg14
NsVstartIndex
p282
I1
sVsentNum
p283
I8
sVgender
p284
VFEMALE
p285
sVposition
p286
(lp287
I8
aI1
asg21
g42
sVtype
p288
VPROPER
p289
sVid
p290
I75
sa(dp291
VendIndex
p292
I9
sVanimacy
p293
VANIMATE
p294
sg6
I00
sVtext
p295
VJeanine
p296
sVisRepresentativeMention
p297
I00
sVnumber
p298
VSINGULAR
p299
sg12
(lp300
g224
asg14
NsVstartIndex
p301
I8
sVsentNum
p302
I19
sVgender
p303
VFEMALE
p304
sVposition
p305
(lp306
I19
aI2
asg21
g42
sVtype
p307
VPROPER
p308
sVid
p309
I144
sa(dp310
VendIndex
p311
I4
sVanimacy
p312
VANIMATE
p313
sg6
I00
sVtext
p314
VJeanine Ferris Pirro
p315
sVisRepresentativeMention
p316
I01
sVnumber
p317
VSINGULAR
p318
sg12
(lp319
sg14
NsVstartIndex
p320
I1
sVsentNum
p321
I1
sVgender
p322
VNEUTRAL
p323
sVposition
p324
(lp325
I1
aI1
asg21
g42
sVtype
p326
VPROPER
p327
sVid
p328
I1
sa.