(lp1
(dp2
VendIndex
p3
I3
sVanimacy
p4
VANIMATE
p5
sS'title'
p6
I00
sVtext
p7
VI
sVisRepresentativeMention
p8
I00
sVnumber
p9
VSINGULAR
p10
sS'name_type'
p11
(lp12
sS'appositive'
p13
NsVstartIndex
p14
I2
sVsentNum
p15
I10
sVgender
p16
VUNKNOWN
p17
sVposition
p18
(lp19
I10
aI1
asS'syntax'
p20
S'np-subj'
p21
sVtype
p22
VPRONOMINAL
p23
sVid
p24
I89
sa(dp25
VendIndex
p26
I2
sVanimacy
p27
VANIMATE
p28
sg6
I00
sVtext
p29
VShe
p30
sVisRepresentativeMention
p31
I00
sVnumber
p32
VSINGULAR
p33
sg11
(lp34
sg13
NsVstartIndex
p35
I1
sVsentNum
p36
I12
sVgender
p37
VFEMALE
p38
sVposition
p39
(lp40
I12
aI1
asg20
g21
sVtype
p41
VPRONOMINAL
p42
sVid
p43
I98
sa(dp44
VendIndex
p45
I6
sVanimacy
p46
VANIMATE
p47
sg6
I00
sVtext
p48
VI
sVisRepresentativeMention
p49
I00
sVnumber
p50
VSINGULAR
p51
sg11
(lp52
sg13
NsVstartIndex
p53
I5
sVsentNum
p54
I12
sVgender
p55
VUNKNOWN
p56
sVposition
p57
(lp58
I12
aI2
asg20
g21
sVtype
p59
VPRONOMINAL
p60
sVid
p61
I99
sa(dp62
VendIndex
p63
I3
sVanimacy
p64
VANIMATE
p65
sg6
I00
sVtext
p66
VI
sVisRepresentativeMention
p67
I00
sVnumber
p68
VSINGULAR
p69
sg11
(lp70
sg13
NsVstartIndex
p71
I2
sVsentNum
p72
I13
sVgender
p73
VUNKNOWN
p74
sVposition
p75
(lp76
I13
aI1
asg20
g21
sVtype
p77
VPRONOMINAL
p78
sVid
p79
I100
sa(dp80
VendIndex
p81
I13
sVanimacy
p82
VANIMATE
p83
sg6
I00
sVtext
p84
VJeanine
p85
sVisRepresentativeMention
p86
I01
sVnumber
p87
VSINGULAR
p88
sg11
(lp89
S'givenNames'
p90
asg13
NsVstartIndex
p91
I12
sVsentNum
p92
I10
sVgender
p93
VFEMALE
p94
sVposition
p95
(lp96
I10
aI3
asg20
g21
sVtype
p97
VPROPER
p98
sVid
p99
I88
sa(dp100
VendIndex
p101
I4
sVanimacy
p102
VANIMATE
p103
sg6
I00
sVtext
p104
VJeanine Ferris Pirro
p105
sVisRepresentativeMention
p106
I01
sVnumber
p107
VSINGULAR
p108
sg11
(lp109
sg13
NsVstartIndex
p110
I1
sVsentNum
p111
I1
sVgender
p112
VNEUTRAL
p113
sVposition
p114
(lp115
I1
aI1
asg20
g21
sVtype
p116
VPROPER
p117
sVid
p118
I1
sa(dp119
VendIndex
p120
I20
sVanimacy
p121
VANIMATE
p122
sg6
I00
sVtext
p123
VPirro's
p124
sVisRepresentativeMention
p125
I00
sVnumber
p126
VSINGULAR
p127
sg11
(lp128
S'surnames'
p129
asg13
NsVstartIndex
p130
I18
sVsentNum
p131
I3
sVgender
p132
VMALE
p133
sVposition
p134
(lp135
I3
aI7
asg20
S'subj-det'
p136
sVtype
p137
VPROPER
p138
sVid
p139
I25
sa(dp140
VendIndex
p141
I8
sVanimacy
p142
VANIMATE
p143
sg6
I00
sVtext
p144
VPirro
p145
sVisRepresentativeMention
p146
I00
sVnumber
p147
VSINGULAR
p148
sg11
(lp149
g129
asg13
NsVstartIndex
p150
I7
sVsentNum
p151
I4
sVgender
p152
VMALE
p153
sVposition
p154
(lp155
I4
aI3
asg20
g21
sVtype
p156
VPROPER
p157
sVid
p158
I39
sa(dp159
VendIndex
p160
I2
sVanimacy
p161
VANIMATE
p162
sg6
I00
sVtext
p163
VPirro
p164
sVisRepresentativeMention
p165
I00
sVnumber
p166
VSINGULAR
p167
sg11
(lp168
g129
asg13
NsVstartIndex
p169
I1
sVsentNum
p170
I8
sVgender
p171
VMALE
p172
sVposition
p173
(lp174
I8
aI1
asg20
g21
sVtype
p175
VPROPER
p176
sVid
p177
I71
sa.