(lp1
(dp2
VendIndex
p3
I3
sVanimacy
p4
VANIMATE
p5
sS'title'
p6
I00
sVtext
p7
VI
sVisRepresentativeMention
p8
I00
sVnumber
p9
VSINGULAR
p10
sS'name_type'
p11
(lp12
sS'appositive'
p13
NsVstartIndex
p14
I2
sVsentNum
p15
I10
sVgender
p16
VUNKNOWN
p17
sVposition
p18
(lp19
I10
aI1
asS'syntax'
p20
S'np-subj'
p21
sVtype
p22
VPRONOMINAL
p23
sVid
p24
I94
sa(dp25
VendIndex
p26
I6
sVanimacy
p27
VANIMATE
p28
sg6
I00
sVtext
p29
VI
sVisRepresentativeMention
p30
I00
sVnumber
p31
VSINGULAR
p32
sg11
(lp33
sg13
NsVstartIndex
p34
I5
sVsentNum
p35
I12
sVgender
p36
VUNKNOWN
p37
sVposition
p38
(lp39
I12
aI2
asg20
g21
sVtype
p40
VPRONOMINAL
p41
sVid
p42
I104
sa(dp43
VendIndex
p44
I3
sVanimacy
p45
VANIMATE
p46
sg6
I00
sVtext
p47
VI
sVisRepresentativeMention
p48
I00
sVnumber
p49
VSINGULAR
p50
sg11
(lp51
sg13
NsVstartIndex
p52
I2
sVsentNum
p53
I13
sVgender
p54
VUNKNOWN
p55
sVposition
p56
(lp57
I13
aI1
asg20
g21
sVtype
p58
VPRONOMINAL
p59
sVid
p60
I105
sa(dp61
VendIndex
p62
I8
sVanimacy
p63
VANIMATE
p64
sg6
I00
sVtext
p65
VPirro
p66
sVisRepresentativeMention
p67
I00
sVnumber
p68
VSINGULAR
p69
sg11
(lp70
S'surnames'
p71
asg13
(dp72
VendIndex
p73
I15
sVanimacy
p74
VANIMATE
p75
sg6
I00
sVtext
p76
Va former Westchester County district attorney
p77
sVisRepresentativeMention
p78
I00
sVnumber
p79
VSINGULAR
p80
sg11
(lp81
sg13
NsVstartIndex
p82
I9
sVsentNum
p83
I3
sVgender
p84
VMALE
p85
sVposition
p86
(lp87
I3
aI5
asVtype
p88
VNOMINAL
p89
sVid
p90
I31
ssVstartIndex
p91
I7
sVsentNum
p92
I3
sVgender
p93
VMALE
p94
sVposition
p95
(lp96
I3
aI3
asg20
g21
sVtype
p97
VPROPER
p98
sVid
p99
I26
sa(dp100
VendIndex
p101
I8
sVanimacy
p102
VANIMATE
p103
sg6
I00
sVtext
p104
VPirro
p105
sVisRepresentativeMention
p106
I00
sVnumber
p107
VSINGULAR
p108
sg11
(lp109
g71
asg13
NsVstartIndex
p110
I7
sVsentNum
p111
I4
sVgender
p112
VMALE
p113
sVposition
p114
(lp115
I4
aI3
asg20
g21
sVtype
p116
VPROPER
p117
sVid
p118
I41
sa(dp119
VendIndex
p120
I11
sVanimacy
p121
VANIMATE
p122
sg6
I00
sVtext
p123
VPirro
p124
sVisRepresentativeMention
p125
I00
sVnumber
p126
VSINGULAR
p127
sg11
(lp128
g71
asg13
NsVstartIndex
p129
I10
sVsentNum
p130
I5
sVgender
p131
VMALE
p132
sVposition
p133
(lp134
I5
aI3
asg20
g21
sVtype
p135
VPROPER
p136
sVid
p137
I50
sa(dp138
VendIndex
p139
I2
sVanimacy
p140
VANIMATE
p141
sg6
I00
sVtext
p142
VPirro
p143
sVisRepresentativeMention
p144
I00
sVnumber
p145
VSINGULAR
p146
sg11
(lp147
g71
asg13
NsVstartIndex
p148
I1
sVsentNum
p149
I8
sVgender
p150
VMALE
p151
sVposition
p152
(lp153
I8
aI1
asg20
g21
sVtype
p154
VPROPER
p155
sVid
p156
I76
sa(dp157
VendIndex
p158
I13
sVanimacy
p159
VANIMATE
p160
sg6
I00
sVtext
p161
VPirro
p162
sVisRepresentativeMention
p163
I00
sVnumber
p164
VSINGULAR
p165
sg11
(lp166
g71
asg13
NsVstartIndex
p167
I12
sVsentNum
p168
I10
sVgender
p169
VMALE
p170
sVposition
p171
(lp172
I10
aI3
asg20
g21
sVtype
p173
VPROPER
p174
sVid
p175
I93
sa(dp176
VendIndex
p177
I2
sVanimacy
p178
VANIMATE
p179
sg6
I00
sVtext
p180
VPirro
p181
sVisRepresentativeMention
p182
I00
sVnumber
p183
VSINGULAR
p184
sg11
(lp185
g71
asg13
NsVstartIndex
p186
I1
sVsentNum
p187
I12
sVgender
p188
VMALE
p189
sVposition
p190
(lp191
I12
aI1
asg20
g21
sVtype
p192
VPROPER
p193
sVid
p194
I103
sa(dp195
VendIndex
p196
I9
sVanimacy
p197
VANIMATE
p198
sg6
I00
sVtext
p199
VPirro
p200
sVisRepresentativeMention
p201
I00
sVnumber
p202
VSINGULAR
p203
sg11
(lp204
g71
asg13
NsVstartIndex
p205
I8
sVsentNum
p206
I19
sVgender
p207
VMALE
p208
sVposition
p209
(lp210
I19
aI2
asg20
g21
sVtype
p211
VPROPER
p212
sVid
p213
I146
sa(dp214
VendIndex
p215
I4
sVanimacy
p216
VANIMATE
p217
sg6
I00
sVtext
p218
VJeanine Ferris Pirro
p219
sVisRepresentativeMention
p220
I01
sVnumber
p221
VSINGULAR
p222
sg11
(lp223
sg13
NsVstartIndex
p224
I1
sVsentNum
p225
I1
sVgender
p226
VNEUTRAL
p227
sVposition
p228
(lp229
I1
aI1
asg20
g21
sVtype
p230
VPROPER
p231
sVid
p232
I1
sa.