(lp1
(dp2
VendIndex
p3
I19
sVanimacy
p4
VANIMATE
p5
sS'title'
p6
I00
sVtext
p7
Vhis
p8
sVisRepresentativeMention
p9
I00
sVnumber
p10
VSINGULAR
p11
sS'name_type'
p12
(lp13
sS'appositive'
p14
NsVstartIndex
p15
I18
sVsentNum
p16
I3
sVgender
p17
VMALE
p18
sVposition
p19
(lp20
I3
aI8
asS'syntax'
p21
S'subj-det'
p22
sVtype
p23
VPRONOMINAL
p24
sVid
p25
I33
sa(dp26
VendIndex
p27
I21
sVanimacy
p28
VANIMATE
p29
sg6
I00
sVtext
p30
Vhis
p31
sVisRepresentativeMention
p32
I00
sVnumber
p33
VSINGULAR
p34
sg12
(lp35
sg14
NsVstartIndex
p36
I20
sVsentNum
p37
I6
sVgender
p38
VMALE
p39
sVposition
p40
(lp41
I6
aI8
asg21
g22
sVtype
p42
VPRONOMINAL
p43
sVid
p44
I60
sa(dp45
VendIndex
p46
I8
sVanimacy
p47
VANIMATE
p48
sg6
I00
sVtext
p49
VPirro
p50
sVisRepresentativeMention
p51
I00
sVnumber
p52
VSINGULAR
p53
sg12
(lp54
S'surnames'
p55
asg14
(dp56
VendIndex
p57
I15
sVanimacy
p58
VANIMATE
p59
sg6
I00
sVtext
p60
Va former Westchester County district attorney
p61
sVisRepresentativeMention
p62
I00
sVnumber
p63
VSINGULAR
p64
sg12
(lp65
sg14
NsVstartIndex
p66
I9
sVsentNum
p67
I3
sVgender
p68
VMALE
p69
sVposition
p70
(lp71
I3
aI5
asVtype
p72
VNOMINAL
p73
sVid
p74
I31
ssVstartIndex
p75
I7
sVsentNum
p76
I3
sVgender
p77
VMALE
p78
sVposition
p79
(lp80
I3
aI3
asg21
S'np-subj'
p81
sVtype
p82
VPROPER
p83
sVid
p84
I26
sa(dp85
VendIndex
p86
I8
sVanimacy
p87
VANIMATE
p88
sg6
I00
sVtext
p89
VPirro
p90
sVisRepresentativeMention
p91
I00
sVnumber
p92
VSINGULAR
p93
sg12
(lp94
g55
asg14
NsVstartIndex
p95
I7
sVsentNum
p96
I4
sVgender
p97
VMALE
p98
sVposition
p99
(lp100
I4
aI3
asg21
g81
sVtype
p101
VPROPER
p102
sVid
p103
I41
sa(dp104
VendIndex
p105
I11
sVanimacy
p106
VANIMATE
p107
sg6
I00
sVtext
p108
VPirro
p109
sVisRepresentativeMention
p110
I00
sVnumber
p111
VSINGULAR
p112
sg12
(lp113
g55
asg14
NsVstartIndex
p114
I10
sVsentNum
p115
I5
sVgender
p116
VMALE
p117
sVposition
p118
(lp119
I5
aI3
asg21
g81
sVtype
p120
VPROPER
p121
sVid
p122
I50
sa(dp123
VendIndex
p124
I2
sVanimacy
p125
VANIMATE
p126
sg6
I00
sVtext
p127
VPirro
p128
sVisRepresentativeMention
p129
I00
sVnumber
p130
VSINGULAR
p131
sg12
(lp132
g55
asg14
NsVstartIndex
p133
I1
sVsentNum
p134
I8
sVgender
p135
VMALE
p136
sVposition
p137
(lp138
I8
aI1
asg21
g81
sVtype
p139
VPROPER
p140
sVid
p141
I76
sa(dp142
VendIndex
p143
I9
sVanimacy
p144
VANIMATE
p145
sg6
I00
sVtext
p146
VPirro
p147
sVisRepresentativeMention
p148
I00
sVnumber
p149
VSINGULAR
p150
sg12
(lp151
g55
asg14
NsVstartIndex
p152
I8
sVsentNum
p153
I19
sVgender
p154
VMALE
p155
sVposition
p156
(lp157
I19
aI2
asg21
g81
sVtype
p158
VPROPER
p159
sVid
p160
I144
sa(dp161
VendIndex
p162
I4
sVanimacy
p163
VANIMATE
p164
sg6
I00
sVtext
p165
VJeanine Ferris Pirro
p166
sVisRepresentativeMention
p167
I01
sVnumber
p168
VSINGULAR
p169
sg12
(lp170
sg14
NsVstartIndex
p171
I1
sVsentNum
p172
I1
sVgender
p173
VNEUTRAL
p174
sVposition
p175
(lp176
I1
aI1
asg21
g81
sVtype
p177
VPROPER
p178
sVid
p179
I1
sa.