(lp1
(dp2
VendIndex
p3
I6
sVanimacy
p4
VANIMATE
p5
sS'title'
p6
I00
sVtext
p7
VI
sVisRepresentativeMention
p8
I00
sVnumber
p9
VSINGULAR
p10
sS'name_type'
p11
(lp12
sS'appositive'
p13
NsVstartIndex
p14
I5
sVsentNum
p15
I12
sVgender
p16
VUNKNOWN
p17
sVposition
p18
(lp19
I12
aI2
asS'syntax'
p20
S'np-subj'
p21
sVtype
p22
VPRONOMINAL
p23
sVid
p24
I103
sa(dp25
VendIndex
p26
I3
sVanimacy
p27
VANIMATE
p28
sg6
I00
sVtext
p29
VI
sVisRepresentativeMention
p30
I00
sVnumber
p31
VSINGULAR
p32
sg11
(lp33
sg13
NsVstartIndex
p34
I2
sVsentNum
p35
I13
sVgender
p36
VUNKNOWN
p37
sVposition
p38
(lp39
I13
aI1
asg20
g21
sVtype
p40
VPRONOMINAL
p41
sVid
p42
I104
sa(dp43
VendIndex
p44
I8
sVanimacy
p45
VANIMATE
p46
sg6
I00
sVtext
p47
VPirro
p48
sVisRepresentativeMention
p49
I00
sVnumber
p50
VSINGULAR
p51
sg11
(lp52
S'surnames'
p53
asg13
(dp54
VendIndex
p55
I15
sVanimacy
p56
VANIMATE
p57
sg6
I00
sVtext
p58
Va former Westchester County district attorney
p59
sVisRepresentativeMention
p60
I00
sVnumber
p61
VSINGULAR
p62
sg11
(lp63
sg13
NsVstartIndex
p64
I9
sVsentNum
p65
I3
sVgender
p66
VMALE
p67
sVposition
p68
(lp69
I3
aI5
asVtype
p70
VNOMINAL
p71
sVid
p72
I31
ssVstartIndex
p73
I7
sVsentNum
p74
I3
sVgender
p75
VMALE
p76
sVposition
p77
(lp78
I3
aI3
asg20
g21
sVtype
p79
VPROPER
p80
sVid
p81
I26
sa(dp82
VendIndex
p83
I8
sVanimacy
p84
VANIMATE
p85
sg6
I00
sVtext
p86
VPirro
p87
sVisRepresentativeMention
p88
I00
sVnumber
p89
VSINGULAR
p90
sg11
(lp91
g53
asg13
NsVstartIndex
p92
I7
sVsentNum
p93
I4
sVgender
p94
VMALE
p95
sVposition
p96
(lp97
I4
aI3
asg20
g21
sVtype
p98
VPROPER
p99
sVid
p100
I41
sa(dp101
VendIndex
p102
I16
sVanimacy
p103
VANIMATE
p104
sg6
I00
sVtext
p105
VPirro
p106
sVisRepresentativeMention
p107
I00
sVnumber
p108
VSINGULAR
p109
sg11
(lp110
g53
asg13
NsVstartIndex
p111
I15
sVsentNum
p112
I6
sVgender
p113
VMALE
p114
sVposition
p115
(lp116
I6
aI5
asg20
g21
sVtype
p117
VPROPER
p118
sVid
p119
I54
sa(dp120
VendIndex
p121
I2
sVanimacy
p122
VANIMATE
p123
sg6
I00
sVtext
p124
VPirro
p125
sVisRepresentativeMention
p126
I00
sVnumber
p127
VSINGULAR
p128
sg11
(lp129
g53
asg13
NsVstartIndex
p130
I1
sVsentNum
p131
I8
sVgender
p132
VMALE
p133
sVposition
p134
(lp135
I8
aI1
asg20
g21
sVtype
p136
VPROPER
p137
sVid
p138
I76
sa(dp139
VendIndex
p140
I2
sVanimacy
p141
VANIMATE
p142
sg6
I00
sVtext
p143
VPirro
p144
sVisRepresentativeMention
p145
I00
sVnumber
p146
VSINGULAR
p147
sg11
(lp148
g53
asg13
NsVstartIndex
p149
I1
sVsentNum
p150
I12
sVgender
p151
VMALE
p152
sVposition
p153
(lp154
I12
aI1
asg20
g21
sVtype
p155
VPROPER
p156
sVid
p157
I102
sa(dp158
VendIndex
p159
I9
sVanimacy
p160
VANIMATE
p161
sg6
I00
sVtext
p162
VPirro
p163
sVisRepresentativeMention
p164
I00
sVnumber
p165
VSINGULAR
p166
sg11
(lp167
g53
asg13
NsVstartIndex
p168
I8
sVsentNum
p169
I19
sVgender
p170
VMALE
p171
sVposition
p172
(lp173
I19
aI2
asg20
g21
sVtype
p174
VPROPER
p175
sVid
p176
I145
sa(dp177
VendIndex
p178
I35
sVanimacy
p179
VANIMATE
p180
sg6
I00
sVtext
p181
VPirro
p182
sVisRepresentativeMention
p183
I00
sVnumber
p184
VSINGULAR
p185
sg11
(lp186
g53
asg13
NsVstartIndex
p187
I34
sVsentNum
p188
I19
sVgender
p189
VMALE
p190
sVposition
p191
(lp192
I19
aI10
asg20
S'subj-det'
p193
sVtype
p194
VPROPER
p195
sVid
p196
I146
sa(dp197
VendIndex
p198
I4
sVanimacy
p199
VANIMATE
p200
sg6
I00
sVtext
p201
VJeanine Ferris Pirro
p202
sVisRepresentativeMention
p203
I01
sVnumber
p204
VSINGULAR
p205
sg11
(lp206
sg13
NsVstartIndex
p207
I1
sVsentNum
p208
I1
sVgender
p209
VNEUTRAL
p210
sVposition
p211
(lp212
I1
aI1
asg20
g21
sVtype
p213
VPROPER
p214
sVid
p215
I1
sa.