(lp1
(dp2
VendIndex
p3
I21
sVanimacy
p4
VANIMATE
p5
sS'title'
p6
I00
sVtext
p7
Vher
p8
sVisRepresentativeMention
p9
I00
sVnumber
p10
VSINGULAR
p11
sS'name_type'
p12
(lp13
sS'appositive'
p14
NsVstartIndex
p15
I20
sVsentNum
p16
I6
sVgender
p17
VFEMALE
p18
sVposition
p19
(lp20
I6
aI8
asS'syntax'
p21
S'subj-det'
p22
sVtype
p23
VPRONOMINAL
p24
sVid
p25
I59
sa(dp26
VendIndex
p27
I13
sVanimacy
p28
VANIMATE
p29
sg6
I00
sVtext
p30
Vher
p31
sVisRepresentativeMention
p32
I00
sVnumber
p33
VSINGULAR
p34
sg12
(lp35
sg14
NsVstartIndex
p36
I12
sVsentNum
p37
I7
sVgender
p38
VFEMALE
p39
sVposition
p40
(lp41
I7
aI7
asg21
g22
sVtype
p42
VPRONOMINAL
p43
sVid
p44
I70
sa(dp45
VendIndex
p46
I5
sVanimacy
p47
VANIMATE
p48
sg6
I00
sVtext
p49
Vher
p50
sVisRepresentativeMention
p51
I00
sVnumber
p52
VSINGULAR
p53
sg12
(lp54
sg14
NsVstartIndex
p55
I4
sVsentNum
p56
I8
sVgender
p57
VFEMALE
p58
sVposition
p59
(lp60
I8
aI3
asg21
g22
sVtype
p61
VPRONOMINAL
p62
sVid
p63
I77
sa(dp64
VendIndex
p65
I18
sVanimacy
p66
VANIMATE
p67
sg6
I00
sVtext
p68
Vshe
p69
sVisRepresentativeMention
p70
I00
sVnumber
p71
VSINGULAR
p72
sg12
(lp73
sg14
NsVstartIndex
p74
I17
sVsentNum
p75
I8
sVgender
p76
VFEMALE
p77
sVposition
p78
(lp79
I8
aI7
asg21
S'np-subj'
p80
sVtype
p81
VPRONOMINAL
p82
sVid
p83
I81
sa(dp84
VendIndex
p85
I2
sVanimacy
p86
VANIMATE
p87
sg6
I00
sVtext
p88
VShe
p89
sVisRepresentativeMention
p90
I00
sVnumber
p91
VSINGULAR
p92
sg12
(lp93
sg14
NsVstartIndex
p94
I1
sVsentNum
p95
I9
sVgender
p96
VFEMALE
p97
sVposition
p98
(lp99
I9
aI1
asg21
g80
sVtype
p100
VPRONOMINAL
p101
sVid
p102
I86
sa(dp103
VendIndex
p104
I2
sVanimacy
p105
VANIMATE
p106
sg6
I00
sVtext
p107
VShe
p108
sVisRepresentativeMention
p109
I00
sVnumber
p110
VSINGULAR
p111
sg12
(lp112
sg14
NsVstartIndex
p113
I1
sVsentNum
p114
I12
sVgender
p115
VFEMALE
p116
sVposition
p117
(lp118
I12
aI1
asg21
g80
sVtype
p119
VPRONOMINAL
p120
sVid
p121
I101
sa(dp122
VendIndex
p123
I6
sVanimacy
p124
VANIMATE
p125
sg6
I00
sVtext
p126
VI
sVisRepresentativeMention
p127
I00
sVnumber
p128
VSINGULAR
p129
sg12
(lp130
sg14
NsVstartIndex
p131
I5
sVsentNum
p132
I12
sVgender
p133
VUNKNOWN
p134
sVposition
p135
(lp136
I12
aI2
asg21
g80
sVtype
p137
VPRONOMINAL
p138
sVid
p139
I102
sa(dp140
VendIndex
p141
I3
sVanimacy
p142
VANIMATE
p143
sg6
I00
sVtext
p144
VI
sVisRepresentativeMention
p145
I00
sVnumber
p146
VSINGULAR
p147
sg12
(lp148
sg14
NsVstartIndex
p149
I2
sVsentNum
p150
I13
sVgender
p151
VUNKNOWN
p152
sVposition
p153
(lp154
I13
aI1
asg21
g80
sVtype
p155
VPRONOMINAL
p156
sVid
p157
I103
sa(dp158
VendIndex
p159
I3
sVanimacy
p160
VANIMATE
p161
sg6
I00
sVtext
p162
VI
sVisRepresentativeMention
p163
I00
sVnumber
p164
VSINGULAR
p165
sg12
(lp166
sg14
NsVstartIndex
p167
I2
sVsentNum
p168
I10
sVgender
p169
VUNKNOWN
p170
sVposition
p171
(lp172
I10
aI1
asg21
g80
sVtype
p173
VPRONOMINAL
p174
sVid
p175
I92
sa(dp176
VendIndex
p177
I2
sVanimacy
p178
VANIMATE
p179
sg6
I00
sVtext
p180
VPirro
p181
sVisRepresentativeMention
p182
I00
sVnumber
p183
VSINGULAR
p184
sg12
(lp185
S'surnames'
p186
asg14
(dp187
VendIndex
p188
I9
sVanimacy
p189
VANIMATE
p190
sg6
I00
sVtext
p191
Vthe Republican candidate for attorney general
p192
sVisRepresentativeMention
p193
I00
sVnumber
p194
VSINGULAR
p195
sg12
(lp196
sg14
NsVstartIndex
p197
I3
sVsentNum
p198
I1
sVgender
p199
VMALE
p200
sVposition
p201
(lp202
I1
aI3
asVtype
p203
VNOMINAL
p204
sVid
p205
I4
ssVstartIndex
p206
I1
sVsentNum
p207
I1
sVgender
p208
VMALE
p209
sVposition
p210
(lp211
I1
aI1
asg21
g80
sVtype
p212
VPROPER
p213
sVid
p214
I1
sa(dp215
VendIndex
p216
I8
sVanimacy
p217
VANIMATE
p218
sg6
I00
sVtext
p219
VPirro
p220
sVisRepresentativeMention
p221
I00
sVnumber
p222
VSINGULAR
p223
sg12
(lp224
g186
asg14
(dp225
VendIndex
p226
I15
sVanimacy
p227
VANIMATE
p228
sg6
I00
sVtext
p229
Va former Westchester County district attorney
p230
sVisRepresentativeMention
p231
I00
sVnumber
p232
VSINGULAR
p233
sg12
(lp234
sg14
NsVstartIndex
p235
I9
sVsentNum
p236
I3
sVgender
p237
VMALE
p238
sVposition
p239
(lp240
I3
aI5
asVtype
p241
VNOMINAL
p242
sVid
p243
I30
ssVstartIndex
p244
I7
sVsentNum
p245
I3
sVgender
p246
VMALE
p247
sVposition
p248
(lp249
I3
aI3
asg21
g80
sVtype
p250
VPROPER
p251
sVid
p252
I25
sa(dp253
VendIndex
p254
I11
sVanimacy
p255
VANIMATE
p256
sg6
I00
sVtext
p257
VPirro
p258
sVisRepresentativeMention
p259
I00
sVnumber
p260
VSINGULAR
p261
sg12
(lp262
g186
asg14
NsVstartIndex
p263
I10
sVsentNum
p264
I5
sVgender
p265
VMALE
p266
sVposition
p267
(lp268
I5
aI3
asg21
g80
sVtype
p269
VPROPER
p270
sVid
p271
I49
sa(dp272
VendIndex
p273
I16
sVanimacy
p274
VANIMATE
p275
sg6
I00
sVtext
p276
VPirro
p277
sVisRepresentativeMention
p278
I00
sVnumber
p279
VSINGULAR
p280
sg12
(lp281
g186
asg14
NsVstartIndex
p282
I15
sVsentNum
p283
I6
sVgender
p284
VMALE
p285
sVposition
p286
(lp287
I6
aI5
asg21
g80
sVtype
p288
VPROPER
p289
sVid
p290
I54
sa(dp291
VendIndex
p292
I2
sVanimacy
p293
VANIMATE
p294
sg6
I00
sVtext
p295
VPirro
p296
sVisRepresentativeMention
p297
I00
sVnumber
p298
VSINGULAR
p299
sg12
(lp300
g186
asg14
NsVstartIndex
p301
I1
sVsentNum
p302
I8
sVgender
p303
VMALE
p304
sVposition
p305
(lp306
I8
aI1
asg21
g80
sVtype
p307
VPROPER
p308
sVid
p309
I75
sa(dp310
VendIndex
p311
I13
sVanimacy
p312
VANIMATE
p313
sg6
I00
sVtext
p314
VPirro
p315
sVisRepresentativeMention
p316
I00
sVnumber
p317
VSINGULAR
p318
sg12
(lp319
g186
asg14
NsVstartIndex
p320
I12
sVsentNum
p321
I10
sVgender
p322
VMALE
p323
sVposition
p324
(lp325
I10
aI3
asg21
g80
sVtype
p326
VPROPER
p327
sVid
p328
I91
sa(dp329
VendIndex
p330
I9
sVanimacy
p331
VANIMATE
p332
sg6
I00
sVtext
p333
VPirro
p334
sVisRepresentativeMention
p335
I00
sVnumber
p336
VSINGULAR
p337
sg12
(lp338
g186
asg14
NsVstartIndex
p339
I8
sVsentNum
p340
I19
sVgender
p341
VMALE
p342
sVposition
p343
(lp344
I19
aI2
asg21
g80
sVtype
p345
VPROPER
p346
sVid
p347
I144
sa.