(lp1
(dp2
VendIndex
p3
I19
sVanimacy
p4
VANIMATE
p5
sS'title'
p6
I00
sVtext
p7
VHe
p8
sVisRepresentativeMention
p9
I00
sVnumber
p10
VSINGULAR
p11
sS'name_type'
p12
(lp13
sS'appositive'
p14
NsVstartIndex
p15
I18
sVsentNum
p16
I1
sVgender
p17
VMALE
p18
sVposition
p19
(lp20
I1
aI9
asS'syntax'
p21
S'np-subj'
p22
sVtype
p23
VPRONOMINAL
p24
sVid
p25
I9
sa(dp26
VendIndex
p27
I52
sVanimacy
p28
VANIMATE
p29
sg6
I00
sVtext
p30
VHis
p31
sVisRepresentativeMention
p32
I00
sVnumber
p33
VSINGULAR
p34
sg12
(lp35
sg14
NsVstartIndex
p36
I51
sVsentNum
p37
I1
sVgender
p38
VMALE
p39
sVposition
p40
(lp41
I1
aI18
asg21
S'subj-det'
p42
sVtype
p43
VPRONOMINAL
p44
sVid
p45
I18
sa(dp46
VendIndex
p47
I33
sVanimacy
p48
VANIMATE
p49
sg6
I00
sVtext
p50
Vhe
p51
sVisRepresentativeMention
p52
I00
sVnumber
p53
VSINGULAR
p54
sg12
(lp55
sg14
NsVstartIndex
p56
I32
sVsentNum
p57
I2
sVgender
p58
VMALE
p59
sVposition
p60
(lp61
I2
aI9
asg21
g22
sVtype
p62
VPRONOMINAL
p63
sVid
p64
I30
sa(dp65
VendIndex
p66
I2
sVanimacy
p67
VANIMATE
p68
sg6
I00
sVtext
p69
VHis
p70
sVisRepresentativeMention
p71
I00
sVnumber
p72
VSINGULAR
p73
sg12
(lp74
sg14
NsVstartIndex
p75
I1
sVsentNum
p76
I5
sVgender
p77
VMALE
p78
sVposition
p79
(lp80
I5
aI2
asg21
g42
sVtype
p81
VPRONOMINAL
p82
sVid
p83
I53
sa(dp84
VendIndex
p85
I2
sVanimacy
p86
VANIMATE
p87
sg6
I00
sVtext
p88
VHe
p89
sVisRepresentativeMention
p90
I00
sVnumber
p91
VSINGULAR
p92
sg12
(lp93
sg14
NsVstartIndex
p94
I1
sVsentNum
p95
I7
sVgender
p96
VMALE
p97
sVposition
p98
(lp99
I7
aI1
asg21
g22
sVtype
p100
VPRONOMINAL
p101
sVid
p102
I71
sa(dp103
VendIndex
p104
I2
sVanimacy
p105
VANIMATE
p106
sg6
I00
sVtext
p107
VHe
p108
sVisRepresentativeMention
p109
I00
sVnumber
p110
VSINGULAR
p111
sg12
(lp112
sg14
NsVstartIndex
p113
I1
sVsentNum
p114
I8
sVgender
p115
VMALE
p116
sVposition
p117
(lp118
I8
aI1
asg21
g22
sVtype
p119
VPRONOMINAL
p120
sVid
p121
I81
sa(dp122
VendIndex
p123
I16
sVanimacy
p124
VANIMATE
p125
sg6
I00
sVtext
p126
Vhe
p127
sVisRepresentativeMention
p128
I00
sVnumber
p129
VSINGULAR
p130
sg12
(lp131
sg14
NsVstartIndex
p132
I15
sVsentNum
p133
I9
sVgender
p134
VMALE
p135
sVposition
p136
(lp137
I9
aI6
asg21
g22
sVtype
p138
VPRONOMINAL
p139
sVid
p140
I92
sa(dp141
VendIndex
p142
I5
sVanimacy
p143
VANIMATE
p144
sg6
I00
sVtext
p145
VVladimir Putin  on Tuesday
p146
sVisRepresentativeMention
p147
I01
sVnumber
p148
VSINGULAR
p149
sg12
(lp150
sg14
NsVstartIndex
p151
I1
sVsentNum
p152
I1
sVgender
p153
VMALE
p154
sVposition
p155
(lp156
I1
aI1
asg21
g22
sVtype
p157
VPROPER
p158
sVid
p159
I4
sa(dp160
VendIndex
p161
I2
sVanimacy
p162
VANIMATE
p163
sg6
I00
sVtext
p164
VPutin
p165
sVisRepresentativeMention
p166
I00
sVnumber
p167
VSINGULAR
p168
sg12
(lp169
S'surnames'
p170
asg14
NsVstartIndex
p171
I1
sVsentNum
p172
I3
sVgender
p173
VMALE
p174
sVposition
p175
(lp176
I3
aI1
asg21
g22
sVtype
p177
VPROPER
p178
sVid
p179
I31
sa(dp180
VendIndex
p181
I3
sVanimacy
p182
VANIMATE
p183
sg6
I01
sVtext
p184
VPresident Putin
p185
sVisRepresentativeMention
p186
I00
sVnumber
p187
VSINGULAR
p188
sg12
(lp189
g170
asg14
NsVstartIndex
p190
I1
sVsentNum
p191
I4
sVgender
p192
VMALE
p193
sVposition
p194
(lp195
I4
aI1
asg21
g22
sVtype
p196
VPROPER
p197
sVid
p198
I41
sa(dp199
VendIndex
p200
I5
sVanimacy
p201
VANIMATE
p202
sg6
I00
sVtext
p203
VPutin
p204
sVisRepresentativeMention
p205
I00
sVnumber
p206
VSINGULAR
p207
sg12
(lp208
g170
asg14
NsVstartIndex
p209
I4
sVsentNum
p210
I6
sVgender
p211
VMALE
p212
sVposition
p213
(lp214
I6
aI2
asg21
g22
sVtype
p215
VPROPER
p216
sVid
p217
I62
sa(dp218
VendIndex
p219
I14
sVanimacy
p220
VANIMATE
p221
sg6
I00
sVtext
p222
VPutin
p223
sVisRepresentativeMention
p224
I00
sVnumber
p225
VSINGULAR
p226
sg12
(lp227
g170
asg14
NsVstartIndex
p228
I13
sVsentNum
p229
I7
sVgender
p230
VMALE
p231
sVposition
p232
(lp233
I7
aI3
asg21
g22
sVtype
p234
VPROPER
p235
sVid
p236
I69
sa(dp237
VendIndex
p238
I21
sVanimacy
p239
VANIMATE
p240
sg6
I00
sVtext
p241
VPutin
p242
sVisRepresentativeMention
p243
I00
sVnumber
p244
VSINGULAR
p245
sg12
(lp246
g170
asg14
NsVstartIndex
p247
I20
sVsentNum
p248
I8
sVgender
p249
VMALE
p250
sVposition
p251
(lp252
I8
aI8
asg21
g22
sVtype
p253
VPROPER
p254
sVid
p255
I79
sa(dp256
VendIndex
p257
I3
sVanimacy
p258
VANIMATE
p259
sg6
I00
sVtext
p260
VVladimir Putin
p261
sVisRepresentativeMention
p262
I00
sVnumber
p263
VSINGULAR
p264
sg12
(lp265
S'foaf_names'
p266
aS'dbp_names'
p267
asg14
NsVstartIndex
p268
I1
sVsentNum
p269
I9
sVgender
p270
VMALE
p271
sVposition
p272
(lp273
I9
aI1
asg21
g22
sVtype
p274
VPROPER
p275
sVid
p276
I87
sa(dp277
VendIndex
p278
I12
sVanimacy
p279
VANIMATE
p280
sg6
I00
sVtext
p281
VPutin
p282
sVisRepresentativeMention
p283
I00
sVnumber
p284
VSINGULAR
p285
sg12
(lp286
g170
asg14
NsVstartIndex
p287
I11
sVsentNum
p288
I12
sVgender
p289
VMALE
p290
sVposition
p291
(lp292
I12
aI2
asg21
g22
sVtype
p293
VPROPER
p294
sVid
p295
I121
sa.