(lp1
(dp2
VendIndex
p3
I19
sVanimacy
p4
VANIMATE
p5
sS'title'
p6
I00
sVtext
p7
Vhe
p8
sVisRepresentativeMention
p9
I00
sVnumber
p10
VSINGULAR
p11
sS'name_type'
p12
(lp13
sS'appositive'
p14
NsVstartIndex
p15
I18
sVsentNum
p16
I1
sVgender
p17
VMALE
p18
sVposition
p19
(lp20
I1
aI9
asS'syntax'
p21
S'np-subj'
p22
sVtype
p23
VPRONOMINAL
p24
sVid
p25
I9
sa(dp26
VendIndex
p27
I27
sVanimacy
p28
VANIMATE
p29
sg6
I00
sVtext
p30
Vhe
p31
sVisRepresentativeMention
p32
I00
sVnumber
p33
VSINGULAR
p34
sg12
(lp35
sg14
NsVstartIndex
p36
I26
sVsentNum
p37
I1
sVgender
p38
VMALE
p39
sVposition
p40
(lp41
I1
aI11
asg21
g22
sVtype
p42
VPRONOMINAL
p43
sVid
p44
I11
sa(dp45
VendIndex
p46
I50
sVanimacy
p47
VANIMATE
p48
sg6
I00
sVtext
p49
Vhis
p50
sVisRepresentativeMention
p51
I00
sVnumber
p52
VSINGULAR
p53
sg12
(lp54
sg14
NsVstartIndex
p55
I49
sVsentNum
p56
I1
sVgender
p57
VMALE
p58
sVposition
p59
(lp60
I1
aI18
asg21
S'subj-det'
p61
sVtype
p62
VPRONOMINAL
p63
sVid
p64
I18
sa(dp65
VendIndex
p66
I33
sVanimacy
p67
VANIMATE
p68
sg6
I00
sVtext
p69
Vhe
p70
sVisRepresentativeMention
p71
I00
sVnumber
p72
VSINGULAR
p73
sg12
(lp74
sg14
NsVstartIndex
p75
I32
sVsentNum
p76
I2
sVgender
p77
VMALE
p78
sVposition
p79
(lp80
I2
aI9
asg21
g22
sVtype
p81
VPRONOMINAL
p82
sVid
p83
I30
sa(dp84
VendIndex
p85
I2
sVanimacy
p86
VANIMATE
p87
sg6
I00
sVtext
p88
VHe
p89
sVisRepresentativeMention
p90
I00
sVnumber
p91
VSINGULAR
p92
sg12
(lp93
sg14
NsVstartIndex
p94
I1
sVsentNum
p95
I4
sVgender
p96
VMALE
p97
sVposition
p98
(lp99
I4
aI1
asg21
g22
sVtype
p100
VPRONOMINAL
p101
sVid
p102
I40
sa(dp103
VendIndex
p104
I5
sVanimacy
p105
VANIMATE
p106
sg6
I00
sVtext
p107
VVladimir Putin  on Tuesday
p108
sVisRepresentativeMention
p109
I01
sVnumber
p110
VSINGULAR
p111
sg12
(lp112
sg14
NsVstartIndex
p113
I1
sVsentNum
p114
I1
sVgender
p115
VMALE
p116
sVposition
p117
(lp118
I1
aI1
asg21
g22
sVtype
p119
VPROPER
p120
sVid
p121
I4
sa(dp122
VendIndex
p123
I2
sVanimacy
p124
VANIMATE
p125
sg6
I00
sVtext
p126
VPutin
p127
sVisRepresentativeMention
p128
I00
sVnumber
p129
VSINGULAR
p130
sg12
(lp131
S'surnames'
p132
asg14
NsVstartIndex
p133
I1
sVsentNum
p134
I3
sVgender
p135
VMALE
p136
sVposition
p137
(lp138
I3
aI1
asg21
g22
sVtype
p139
VPROPER
p140
sVid
p141
I31
sa.