(lp1
(dp2
VendIndex
p3
I18
sVanimacy
p4
VANIMATE
p5
sS'title'
p6
I00
sVtext
p7
Vhe
p8
sVisRepresentativeMention
p9
I00
sVnumber
p10
VSINGULAR
p11
sS'name_type'
p12
(lp13
sS'appositive'
p14
NsVstartIndex
p15
I17
sVsentNum
p16
I1
sVgender
p17
VMALE
p18
sVposition
p19
(lp20
I1
aI9
asS'syntax'
p21
S'np-subj'
p22
sVtype
p23
VPRONOMINAL
p24
sVid
p25
I9
sa(dp26
VendIndex
p27
I33
sVanimacy
p28
VANIMATE
p29
sg6
I00
sVtext
p30
Vhe
p31
sVisRepresentativeMention
p32
I00
sVnumber
p33
VSINGULAR
p34
sg12
(lp35
sg14
NsVstartIndex
p36
I32
sVsentNum
p37
I2
sVgender
p38
VMALE
p39
sVposition
p40
(lp41
I2
aI9
asg21
g22
sVtype
p42
VPRONOMINAL
p43
sVid
p44
I28
sa(dp45
VendIndex
p46
I2
sVanimacy
p47
VANIMATE
p48
sg6
I00
sVtext
p49
VHe
p50
sVisRepresentativeMention
p51
I00
sVnumber
p52
VSINGULAR
p53
sg12
(lp54
sg14
NsVstartIndex
p55
I1
sVsentNum
p56
I4
sVgender
p57
VMALE
p58
sVposition
p59
(lp60
I4
aI1
asg21
g22
sVtype
p61
VPRONOMINAL
p62
sVid
p63
I38
sa(dp64
VendIndex
p65
I4
sVanimacy
p66
VANIMATE
p67
sg6
I00
sVtext
p68
VPutin  on Tuesday
p69
sVisRepresentativeMention
p70
I01
sVnumber
p71
VSINGULAR
p72
sg12
(lp73
sg14
NsVstartIndex
p74
I1
sVsentNum
p75
I1
sVgender
p76
VMALE
p77
sVposition
p78
(lp79
I1
aI1
asg21
g22
sVtype
p80
VPROPER
p81
sVid
p82
I4
sa(dp83
VendIndex
p84
I2
sVanimacy
p85
VANIMATE
p86
sg6
I00
sVtext
p87
VPutin
p88
sVisRepresentativeMention
p89
I00
sVnumber
p90
VSINGULAR
p91
sg12
(lp92
S'surnames'
p93
asg14
NsVstartIndex
p94
I1
sVsentNum
p95
I3
sVgender
p96
VMALE
p97
sVposition
p98
(lp99
I3
aI1
asg21
g22
sVtype
p100
VPROPER
p101
sVid
p102
I29
sa(dp103
VendIndex
p104
I15
sVanimacy
p105
VANIMATE
p106
sg6
I00
sVtext
p107
VPutin
p108
sVisRepresentativeMention
p109
I00
sVnumber
p110
VSINGULAR
p111
sg12
(lp112
g93
asg14
NsVstartIndex
p113
I14
sVsentNum
p114
I9
sVgender
p115
VMALE
p116
sVposition
p117
(lp118
I9
aI6
asg21
g22
sVtype
p119
VPROPER
p120
sVid
p121
I83
sa.