(lp1
(dp2
VendIndex
p3
I50
sVanimacy
p4
VANIMATE
p5
sS'title'
p6
I00
sVtext
p7
Vhis
p8
sVisRepresentativeMention
p9
I00
sVnumber
p10
VSINGULAR
p11
sS'name_type'
p12
(lp13
sS'appositive'
p14
NsVstartIndex
p15
I49
sVsentNum
p16
I1
sVgender
p17
VMALE
p18
sVposition
p19
(lp20
I1
aI17
asS'syntax'
p21
S'subj-det'
p22
sVtype
p23
VPRONOMINAL
p24
sVid
p25
I17
sa(dp26
VendIndex
p27
I33
sVanimacy
p28
VANIMATE
p29
sg6
I00
sVtext
p30
Vhe
p31
sVisRepresentativeMention
p32
I00
sVnumber
p33
VSINGULAR
p34
sg12
(lp35
sg14
NsVstartIndex
p36
I32
sVsentNum
p37
I2
sVgender
p38
VMALE
p39
sVposition
p40
(lp41
I2
aI9
asg21
S'np-subj'
p42
sVtype
p43
VPRONOMINAL
p44
sVid
p45
I29
sa(dp46
VendIndex
p47
I2
sVanimacy
p48
VANIMATE
p49
sg6
I00
sVtext
p50
VHe
p51
sVisRepresentativeMention
p52
I00
sVnumber
p53
VSINGULAR
p54
sg12
(lp55
sg14
NsVstartIndex
p56
I1
sVsentNum
p57
I4
sVgender
p58
VMALE
p59
sVposition
p60
(lp61
I4
aI1
asg21
g42
sVtype
p62
VPRONOMINAL
p63
sVid
p64
I39
sa(dp65
VendIndex
p66
I21
sVanimacy
p67
VANIMATE
p68
sg6
I00
sVtext
p69
Vhe
p70
sVisRepresentativeMention
p71
I00
sVnumber
p72
VSINGULAR
p73
sg12
(lp74
sg14
NsVstartIndex
p75
I20
sVsentNum
p76
I8
sVgender
p77
VMALE
p78
sVposition
p79
(lp80
I8
aI8
asg21
g42
sVtype
p81
VPRONOMINAL
p82
sVid
p83
I81
sa(dp84
VendIndex
p85
I2
sVanimacy
p86
VANIMATE
p87
sg6
I00
sVtext
p88
VHe
p89
sVisRepresentativeMention
p90
I00
sVnumber
p91
VSINGULAR
p92
sg12
(lp93
sg14
NsVstartIndex
p94
I1
sVsentNum
p95
I9
sVgender
p96
VMALE
p97
sVposition
p98
(lp99
I9
aI1
asg21
g42
sVtype
p100
VPRONOMINAL
p101
sVid
p102
I84
sa(dp103
VendIndex
p104
I15
sVanimacy
p105
VANIMATE
p106
sg6
I00
sVtext
p107
Vhe
p108
sVisRepresentativeMention
p109
I00
sVnumber
p110
VSINGULAR
p111
sg12
(lp112
sg14
NsVstartIndex
p113
I14
sVsentNum
p114
I9
sVgender
p115
VMALE
p116
sVposition
p117
(lp118
I9
aI6
asg21
g42
sVtype
p119
VPRONOMINAL
p120
sVid
p121
I88
sa(dp122
VendIndex
p123
I2
sVanimacy
p124
VANIMATE
p125
sg6
I00
sVtext
p126
VHe
p127
sVisRepresentativeMention
p128
I00
sVnumber
p129
VSINGULAR
p130
sg12
(lp131
sg14
NsVstartIndex
p132
I1
sVsentNum
p133
I11
sVgender
p134
VMALE
p135
sVposition
p136
(lp137
I11
aI1
asg21
g42
sVtype
p138
VPRONOMINAL
p139
sVid
p140
I104
sa(dp141
VendIndex
p142
I12
sVanimacy
p143
VANIMATE
p144
sg6
I00
sVtext
p145
Vhe
p146
sVisRepresentativeMention
p147
I00
sVnumber
p148
VSINGULAR
p149
sg12
(lp150
sg14
NsVstartIndex
p151
I11
sVsentNum
p152
I12
sVgender
p153
VMALE
p154
sVposition
p155
(lp156
I12
aI2
asg21
g42
sVtype
p157
VPRONOMINAL
p158
sVid
p159
I117
sa(dp160
VendIndex
p161
I5
sVanimacy
p162
VANIMATE
p163
sg6
I00
sVtext
p164
VVladimir Putin  on Tuesday
p165
sVisRepresentativeMention
p166
I01
sVnumber
p167
VSINGULAR
p168
sg12
(lp169
sg14
NsVstartIndex
p170
I1
sVsentNum
p171
I1
sVgender
p172
VMALE
p173
sVposition
p174
(lp175
I1
aI1
asg21
g42
sVtype
p176
VPROPER
p177
sVid
p178
I5
sa(dp179
VendIndex
p180
I19
sVanimacy
p181
VANIMATE
p182
sg6
I00
sVtext
p183
VPutin
p184
sVisRepresentativeMention
p185
I00
sVnumber
p186
VSINGULAR
p187
sg12
(lp188
S'surnames'
p189
asg14
NsVstartIndex
p190
I18
sVsentNum
p191
I1
sVgender
p192
VMALE
p193
sVposition
p194
(lp195
I1
aI9
asg21
g42
sVtype
p196
VPROPER
p197
sVid
p198
I4
sa(dp199
VendIndex
p200
I2
sVanimacy
p201
VANIMATE
p202
sg6
I00
sVtext
p203
VPutin
p204
sVisRepresentativeMention
p205
I00
sVnumber
p206
VSINGULAR
p207
sg12
(lp208
g189
asg14
NsVstartIndex
p209
I1
sVsentNum
p210
I3
sVgender
p211
VMALE
p212
sVposition
p213
(lp214
I3
aI1
asg21
g42
sVtype
p215
VPROPER
p216
sVid
p217
I30
sa(dp218
VendIndex
p219
I2
sVanimacy
p220
VANIMATE
p221
sg6
I00
sVtext
p222
VPutin
p223
sVisRepresentativeMention
p224
I00
sVnumber
p225
VSINGULAR
p226
sg12
(lp227
g189
asg14
NsVstartIndex
p228
I1
sVsentNum
p229
I8
sVgender
p230
VMALE
p231
sVposition
p232
(lp233
I8
aI1
asg21
g42
sVtype
p234
VPROPER
p235
sVid
p236
I73
sa.