(lp1
(dp2
VendIndex
p3
I20
sVanimacy
p4
VANIMATE
p5
sS'title'
p6
I00
sVtext
p7
Vhe
p8
sVisRepresentativeMention
p9
I00
sVnumber
p10
VSINGULAR
p11
sS'name_type'
p12
(lp13
sS'appositive'
p14
NsVstartIndex
p15
I19
sVsentNum
p16
I1
sVgender
p17
VMALE
p18
sVposition
p19
(lp20
I1
aI9
asS'syntax'
p21
S'np-subj'
p22
sVtype
p23
VPRONOMINAL
p24
sVid
p25
I9
sa(dp26
VendIndex
p27
I2
sVanimacy
p28
VANIMATE
p29
sg6
I00
sVtext
p30
VHe
p31
sVisRepresentativeMention
p32
I00
sVnumber
p33
VSINGULAR
p34
sg12
(lp35
sg14
NsVstartIndex
p36
I1
sVsentNum
p37
I4
sVgender
p38
VMALE
p39
sVposition
p40
(lp41
I4
aI1
asg21
g22
sVtype
p42
VPRONOMINAL
p43
sVid
p44
I38
sa(dp45
VendIndex
p46
I15
sVanimacy
p47
VANIMATE
p48
sg6
I00
sVtext
p49
Vhe
p50
sVisRepresentativeMention
p51
I00
sVnumber
p52
VSINGULAR
p53
sg12
(lp54
sg14
NsVstartIndex
p55
I14
sVsentNum
p56
I7
sVgender
p57
VMALE
p58
sVposition
p59
(lp60
I7
aI3
asg21
g22
sVtype
p61
VPRONOMINAL
p62
sVid
p63
I68
sa(dp64
VendIndex
p65
I2
sVanimacy
p66
VANIMATE
p67
sg6
I00
sVtext
p68
VHe
p69
sVisRepresentativeMention
p70
I00
sVnumber
p71
VSINGULAR
p72
sg12
(lp73
sg14
NsVstartIndex
p74
I1
sVsentNum
p75
I8
sVgender
p76
VMALE
p77
sVposition
p78
(lp79
I8
aI1
asg21
g22
sVtype
p80
VPRONOMINAL
p81
sVid
p82
I76
sa(dp83
VendIndex
p84
I2
sVanimacy
p85
VANIMATE
p86
sg6
I00
sVtext
p87
VHe
p88
sVisRepresentativeMention
p89
I00
sVnumber
p90
VSINGULAR
p91
sg12
(lp92
sg14
NsVstartIndex
p93
I1
sVsentNum
p94
I11
sVgender
p95
VMALE
p96
sVposition
p97
(lp98
I11
aI1
asg21
g22
sVtype
p99
VPRONOMINAL
p100
sVid
p101
I103
sa(dp102
VendIndex
p103
I6
sVanimacy
p104
VANIMATE
p105
sg6
I00
sVtext
p106
VVladimir Vladimirovich Putin  on Tuesday
p107
sVisRepresentativeMention
p108
I01
sVnumber
p109
VSINGULAR
p110
sg12
(lp111
sg14
NsVstartIndex
p112
I1
sVsentNum
p113
I1
sVgender
p114
VMALE
p115
sVposition
p116
(lp117
I1
aI1
asg21
g22
sVtype
p118
VPROPER
p119
sVid
p120
I4
sa(dp121
VendIndex
p122
I33
sVanimacy
p123
VANIMATE
p124
sg6
I00
sVtext
p125
VPutin
p126
sVisRepresentativeMention
p127
I00
sVnumber
p128
VSINGULAR
p129
sg12
(lp130
S'surnames'
p131
asg14
NsVstartIndex
p132
I32
sVsentNum
p133
I2
sVgender
p134
VMALE
p135
sVposition
p136
(lp137
I2
aI9
asg21
g22
sVtype
p138
VPROPER
p139
sVid
p140
I21
sa(dp141
VendIndex
p142
I2
sVanimacy
p143
VANIMATE
p144
sg6
I00
sVtext
p145
VPutin
p146
sVisRepresentativeMention
p147
I00
sVnumber
p148
VSINGULAR
p149
sg12
(lp150
g131
asg14
NsVstartIndex
p151
I1
sVsentNum
p152
I3
sVgender
p153
VMALE
p154
sVposition
p155
(lp156
I3
aI1
asg21
g22
sVtype
p157
VPROPER
p158
sVid
p159
I29
sa(dp160
VendIndex
p161
I5
sVanimacy
p162
VANIMATE
p163
sg6
I00
sVtext
p164
VPutin
p165
sVisRepresentativeMention
p166
I00
sVnumber
p167
VSINGULAR
p168
sg12
(lp169
g131
asg14
NsVstartIndex
p170
I4
sVsentNum
p171
I6
sVgender
p172
VMALE
p173
sVposition
p174
(lp175
I6
aI2
asg21
g22
sVtype
p176
VPROPER
p177
sVid
p178
I58
sa(dp179
VendIndex
p180
I3
sVanimacy
p181
VANIMATE
p182
sg6
I00
sVtext
p183
VVladimir Putin
p184
sVisRepresentativeMention
p185
I00
sVnumber
p186
VSINGULAR
p187
sg12
(lp188
S'foaf_names'
p189
aS'dbp_names'
p190
asg14
NsVstartIndex
p191
I1
sVsentNum
p192
I7
sVgender
p193
VMALE
p194
sVposition
p195
(lp196
I7
aI1
asg21
g22
sVtype
p197
VPROPER
p198
sVid
p199
I65
sa(dp200
VendIndex
p201
I2
sVanimacy
p202
VANIMATE
p203
sg6
I00
sVtext
p204
VPutin
p205
sVisRepresentativeMention
p206
I00
sVnumber
p207
VSINGULAR
p208
sg12
(lp209
g131
asg14
NsVstartIndex
p210
I1
sVsentNum
p211
I9
sVgender
p212
VMALE
p213
sVposition
p214
(lp215
I9
aI1
asg21
g22
sVtype
p216
VPROPER
p217
sVid
p218
I82
sa(dp219
VendIndex
p220
I12
sVanimacy
p221
VANIMATE
p222
sg6
I00
sVtext
p223
VPutin
p224
sVisRepresentativeMention
p225
I00
sVnumber
p226
VSINGULAR
p227
sg12
(lp228
g131
asg14
NsVstartIndex
p229
I11
sVsentNum
p230
I12
sVgender
p231
VMALE
p232
sVposition
p233
(lp234
I12
aI2
asg21
g22
sVtype
p235
VPROPER
p236
sVid
p237
I115
sa.